; ModuleID = 'graph.cpp'
target datalayout = "e-p:32:32:32-i1:8:8-i8:8:8-i16:16:16-i32:32:32-i64:32:64-f32:32:32-f64:32:64-v64:64:64-v128:128:128-a0:0:64-f80:32:32-n8:16:32-S128"
target triple = "i386-pc-linux-gnu"

%"class.std::ios_base::Init" = type { i8 }
%"class.std::basic_ostream" = type { i32 (...)**, %"class.std::basic_ios" }
%"class.std::basic_ios" = type { %"class.std::ios_base", %"class.std::basic_ostream"*, i8, i8, %"class.std::basic_streambuf"*, %"class.std::ctype"*, %"class.std::num_put"*, %"class.std::num_get"* }
%"class.std::ios_base" = type { i32 (...)**, i32, i32, i32, i32, i32, %"struct.std::ios_base::_Callback_list"*, %"struct.std::ios_base::_Words", [8 x %"struct.std::ios_base::_Words"], i32, %"struct.std::ios_base::_Words"*, %"class.std::locale" }
%"struct.std::ios_base::_Callback_list" = type { %"struct.std::ios_base::_Callback_list"*, void (i32, %"class.std::ios_base"*, i32)*, i32, i32 }
%"struct.std::ios_base::_Words" = type { i8*, i32 }
%"class.std::locale" = type { %"class.std::locale::_Impl"* }
%"class.std::locale::_Impl" = type { i32, %"class.std::locale::facet"**, i32, %"class.std::locale::facet"**, i8** }
%"class.std::locale::facet" = type { i32 (...)**, i32 }
%"class.std::basic_streambuf" = type { i32 (...)**, i8*, i8*, i8*, i8*, i8*, i8*, %"class.std::locale" }
%"class.std::ctype" = type { %"class.std::locale::facet", %struct.__locale_struct*, i8, i32*, i32*, i16*, i8, [256 x i8], [256 x i8], i8 }
%struct.__locale_struct = type { [13 x %struct.__locale_data*], i16*, i32*, i32*, [13 x i8*] }
%struct.__locale_data = type opaque
%"class.std::num_put" = type { %"class.std::locale::facet" }
%"class.std::num_get" = type { %"class.std::locale::facet" }
%"class.boost::adjacency_list" = type { %"class.boost::vec_adj_list_impl", %"class.boost::scoped_ptr" }
%"class.boost::vec_adj_list_impl" = type { %"class.std::list", %"class.std::vector" }
%"class.std::list" = type { %"class.std::_List_base" }
%"class.std::_List_base" = type { %"struct.std::_List_base<boost::list_edge<unsigned int, boost::property<boost::edge_weight_t, int, boost::no_property> >, std::allocator<boost::list_edge<unsigned int, boost::property<boost::edge_weight_t, int, boost::no_property> > > >::_List_impl" }
%"struct.std::_List_base<boost::list_edge<unsigned int, boost::property<boost::edge_weight_t, int, boost::no_property> >, std::allocator<boost::list_edge<unsigned int, boost::property<boost::edge_weight_t, int, boost::no_property> > > >::_List_impl" = type { %"struct.std::__detail::_List_node_base" }
%"struct.std::__detail::_List_node_base" = type { %"struct.std::__detail::_List_node_base"*, %"struct.std::__detail::_List_node_base"* }
%"class.std::vector" = type { %"struct.std::_Vector_base" }
%"struct.std::_Vector_base" = type { %"struct.std::_Vector_base<boost::detail::adj_list_gen<boost::adjacency_list<boost::vecS, boost::vecS, boost::bidirectionalS, boost::property<boost::vertex_color_t, boost::default_color_type, boost::property<boost::vertex_distance_t, int, boost::property<boost::vertex_degree_t, int, boost::property<boost::vertex_in_degree_t, int, boost::property<boost::vertex_out_degree_t, int, boost::no_property> > > > >, boost::property<boost::edge_weight_t, int, boost::no_property>, boost::no_property, boost::listS>, boost::vecS, boost::vecS, boost::bidirectionalS, boost::property<boost::vertex_color_t, boost::default_color_type, boost::property<boost::vertex_distance_t, int, boost::property<boost::vertex_degree_t, int, boost::property<boost::vertex_in_degree_t, int, boost::property<boost::vertex_out_degree_t, int, boost::no_property> > > > >, boost::property<boost::edge_weight_t, int, boost::no_property>, boost::no_property, boost::listS>::config::stored_vertex, std::allocator<boost::detail::adj_list_gen<boost::adjacency_list<boost::vecS, boost::vecS, boost::bidirectionalS, boost::property<boost::vertex_color_t, boost::default_color_type, boost::property<boost::vertex_distance_t, int, boost::property<boost::vertex_degree_t, int, boost::property<boost::vertex_in_degree_t, int, boost::property<boost::vertex_out_degree_t, int, boost::no_property> > > > >, boost::property<boost::edge_weight_t, int, boost::no_property>, boost::no_property, boost::listS>, boost::vecS, boost::vecS, boost::bidirectionalS, boost::property<boost::vertex_color_t, boost::default_color_type, boost::property<boost::vertex_distance_t, int, boost::property<boost::vertex_degree_t, int, boost::property<boost::vertex_in_degree_t, int, boost::property<boost::vertex_out_degree_t, int, boost::no_property> > > > >, boost::property<boost::edge_weight_t, int, boost::no_property>, boost::no_property, boost::listS>::config::stored_vertex> >::_Vector_impl" }
%"struct.std::_Vector_base<boost::detail::adj_list_gen<boost::adjacency_list<boost::vecS, boost::vecS, boost::bidirectionalS, boost::property<boost::vertex_color_t, boost::default_color_type, boost::property<boost::vertex_distance_t, int, boost::property<boost::vertex_degree_t, int, boost::property<boost::vertex_in_degree_t, int, boost::property<boost::vertex_out_degree_t, int, boost::no_property> > > > >, boost::property<boost::edge_weight_t, int, boost::no_property>, boost::no_property, boost::listS>, boost::vecS, boost::vecS, boost::bidirectionalS, boost::property<boost::vertex_color_t, boost::default_color_type, boost::property<boost::vertex_distance_t, int, boost::property<boost::vertex_degree_t, int, boost::property<boost::vertex_in_degree_t, int, boost::property<boost::vertex_out_degree_t, int, boost::no_property> > > > >, boost::property<boost::edge_weight_t, int, boost::no_property>, boost::no_property, boost::listS>::config::stored_vertex, std::allocator<boost::detail::adj_list_gen<boost::adjacency_list<boost::vecS, boost::vecS, boost::bidirectionalS, boost::property<boost::vertex_color_t, boost::default_color_type, boost::property<boost::vertex_distance_t, int, boost::property<boost::vertex_degree_t, int, boost::property<boost::vertex_in_degree_t, int, boost::property<boost::vertex_out_degree_t, int, boost::no_property> > > > >, boost::property<boost::edge_weight_t, int, boost::no_property>, boost::no_property, boost::listS>, boost::vecS, boost::vecS, boost::bidirectionalS, boost::property<boost::vertex_color_t, boost::default_color_type, boost::property<boost::vertex_distance_t, int, boost::property<boost::vertex_degree_t, int, boost::property<boost::vertex_in_degree_t, int, boost::property<boost::vertex_out_degree_t, int, boost::no_property> > > > >, boost::property<boost::edge_weight_t, int, boost::no_property>, boost::no_property, boost::listS>::config::stored_vertex> >::_Vector_impl" = type { %"struct.boost::detail::adj_list_gen<boost::adjacency_list<boost::vecS, boost::vecS, boost::bidirectionalS, boost::property<boost::vertex_color_t, boost::default_color_type, boost::property<boost::vertex_distance_t, int, boost::property<boost::vertex_degree_t, int, boost::property<boost::vertex_in_degree_t, int, boost::property<boost::vertex_out_degree_t, int, boost::no_property> > > > >, boost::property<boost::edge_weight_t, int, boost::no_property>, boost::no_property, boost::listS>, boost::vecS, boost::vecS, boost::bidirectionalS, boost::property<boost::vertex_color_t, boost::default_color_type, boost::property<boost::vertex_distance_t, int, boost::property<boost::vertex_degree_t, int, boost::property<boost::vertex_in_degree_t, int, boost::property<boost::vertex_out_degree_t, int, boost::no_property> > > > >, boost::property<boost::edge_weight_t, int, boost::no_property>, boost::no_property, boost::listS>::config::stored_vertex"*, %"struct.boost::detail::adj_list_gen<boost::adjacency_list<boost::vecS, boost::vecS, boost::bidirectionalS, boost::property<boost::vertex_color_t, boost::default_color_type, boost::property<boost::vertex_distance_t, int, boost::property<boost::vertex_degree_t, int, boost::property<boost::vertex_in_degree_t, int, boost::property<boost::vertex_out_degree_t, int, boost::no_property> > > > >, boost::property<boost::edge_weight_t, int, boost::no_property>, boost::no_property, boost::listS>, boost::vecS, boost::vecS, boost::bidirectionalS, boost::property<boost::vertex_color_t, boost::default_color_type, boost::property<boost::vertex_distance_t, int, boost::property<boost::vertex_degree_t, int, boost::property<boost::vertex_in_degree_t, int, boost::property<boost::vertex_out_degree_t, int, boost::no_property> > > > >, boost::property<boost::edge_weight_t, int, boost::no_property>, boost::no_property, boost::listS>::config::stored_vertex"*, %"struct.boost::detail::adj_list_gen<boost::adjacency_list<boost::vecS, boost::vecS, boost::bidirectionalS, boost::property<boost::vertex_color_t, boost::default_color_type, boost::property<boost::vertex_distance_t, int, boost::property<boost::vertex_degree_t, int, boost::property<boost::vertex_in_degree_t, int, boost::property<boost::vertex_out_degree_t, int, boost::no_property> > > > >, boost::property<boost::edge_weight_t, int, boost::no_property>, boost::no_property, boost::listS>, boost::vecS, boost::vecS, boost::bidirectionalS, boost::property<boost::vertex_color_t, boost::default_color_type, boost::property<boost::vertex_distance_t, int, boost::property<boost::vertex_degree_t, int, boost::property<boost::vertex_in_degree_t, int, boost::property<boost::vertex_out_degree_t, int, boost::no_property> > > > >, boost::property<boost::edge_weight_t, int, boost::no_property>, boost::no_property, boost::listS>::config::stored_vertex"* }
%"struct.boost::detail::adj_list_gen<boost::adjacency_list<boost::vecS, boost::vecS, boost::bidirectionalS, boost::property<boost::vertex_color_t, boost::default_color_type, boost::property<boost::vertex_distance_t, int, boost::property<boost::vertex_degree_t, int, boost::property<boost::vertex_in_degree_t, int, boost::property<boost::vertex_out_degree_t, int, boost::no_property> > > > >, boost::property<boost::edge_weight_t, int, boost::no_property>, boost::no_property, boost::listS>, boost::vecS, boost::vecS, boost::bidirectionalS, boost::property<boost::vertex_color_t, boost::default_color_type, boost::property<boost::vertex_distance_t, int, boost::property<boost::vertex_degree_t, int, boost::property<boost::vertex_in_degree_t, int, boost::property<boost::vertex_out_degree_t, int, boost::no_property> > > > >, boost::property<boost::edge_weight_t, int, boost::no_property>, boost::no_property, boost::listS>::config::stored_vertex" = type { %"struct.boost::detail::adj_list_gen<boost::adjacency_list<boost::vecS, boost::vecS, boost::bidirectionalS, boost::property<boost::vertex_color_t, boost::default_color_type, boost::property<boost::vertex_distance_t, int, boost::property<boost::vertex_degree_t, int, boost::property<boost::vertex_in_degree_t, int, boost::property<boost::vertex_out_degree_t, int, boost::no_property> > > > >, boost::property<boost::edge_weight_t, int, boost::no_property>, boost::no_property, boost::listS>, boost::vecS, boost::vecS, boost::bidirectionalS, boost::property<boost::vertex_color_t, boost::default_color_type, boost::property<boost::vertex_distance_t, int, boost::property<boost::vertex_degree_t, int, boost::property<boost::vertex_in_degree_t, int, boost::property<boost::vertex_out_degree_t, int, boost::no_property> > > > >, boost::property<boost::edge_weight_t, int, boost::no_property>, boost::no_property, boost::listS>::config::bidir_rand_stored_vertex" }
%"struct.boost::detail::adj_list_gen<boost::adjacency_list<boost::vecS, boost::vecS, boost::bidirectionalS, boost::property<boost::vertex_color_t, boost::default_color_type, boost::property<boost::vertex_distance_t, int, boost::property<boost::vertex_degree_t, int, boost::property<boost::vertex_in_degree_t, int, boost::property<boost::vertex_out_degree_t, int, boost::no_property> > > > >, boost::property<boost::edge_weight_t, int, boost::no_property>, boost::no_property, boost::listS>, boost::vecS, boost::vecS, boost::bidirectionalS, boost::property<boost::vertex_color_t, boost::default_color_type, boost::property<boost::vertex_distance_t, int, boost::property<boost::vertex_degree_t, int, boost::property<boost::vertex_in_degree_t, int, boost::property<boost::vertex_out_degree_t, int, boost::no_property> > > > >, boost::property<boost::edge_weight_t, int, boost::no_property>, boost::no_property, boost::listS>::config::bidir_rand_stored_vertex" = type { %"class.std::vector.3", %"class.std::vector.3", %"struct.boost::property" }
%"class.std::vector.3" = type { %"struct.std::_Vector_base.4" }
%"struct.std::_Vector_base.4" = type { %"struct.std::_Vector_base<boost::detail::stored_edge_iter<unsigned int, std::_List_iterator<boost::list_edge<unsigned int, boost::property<boost::edge_weight_t, int, boost::no_property> > >, boost::property<boost::edge_weight_t, int, boost::no_property> >, std::allocator<boost::detail::stored_edge_iter<unsigned int, std::_List_iterator<boost::list_edge<unsigned int, boost::property<boost::edge_weight_t, int, boost::no_property> > >, boost::property<boost::edge_weight_t, int, boost::no_property> > > >::_Vector_impl" }
%"struct.std::_Vector_base<boost::detail::stored_edge_iter<unsigned int, std::_List_iterator<boost::list_edge<unsigned int, boost::property<boost::edge_weight_t, int, boost::no_property> > >, boost::property<boost::edge_weight_t, int, boost::no_property> >, std::allocator<boost::detail::stored_edge_iter<unsigned int, std::_List_iterator<boost::list_edge<unsigned int, boost::property<boost::edge_weight_t, int, boost::no_property> > >, boost::property<boost::edge_weight_t, int, boost::no_property> > > >::_Vector_impl" = type { %"class.boost::detail::stored_edge_iter"*, %"class.boost::detail::stored_edge_iter"*, %"class.boost::detail::stored_edge_iter"* }
%"class.boost::detail::stored_edge_iter" = type { %"class.boost::detail::stored_edge", %"struct.std::_List_iterator" }
%"class.boost::detail::stored_edge" = type { i32 }
%"struct.std::_List_iterator" = type { %"struct.std::__detail::_List_node_base"* }
%"struct.boost::property" = type { i32, %"struct.boost::property.8" }
%"struct.boost::property.8" = type { i32, %"struct.boost::property.9" }
%"struct.boost::property.9" = type { i32, %"struct.boost::property.10" }
%"struct.boost::property.10" = type { i32, %"struct.boost::property.11" }
%"struct.boost::property.11" = type { i32, %"struct.boost::no_property" }
%"struct.boost::no_property" = type { i8 }
%"class.boost::scoped_ptr" = type { %"struct.boost::no_property"* }
%"struct.std::pair" = type { %"class.boost::detail::edge_desc_impl", i8 }
%"class.boost::detail::edge_desc_impl" = type { %"struct.boost::detail::edge_base", i8* }
%"struct.boost::detail::edge_base" = type { i32, i32 }
%"struct.boost::bidirectional_graph_helper_with_property" = type { i8 }
%"struct.boost::adj_list_helper" = type { i8 }
%"struct.boost::property.13" = type { i32, %"struct.boost::no_property" }
%"struct.boost::adjacency_iterator" = type { %"class.boost::iterator_adaptor.27", %"class.boost::adjacency_list"* }
%"class.boost::iterator_adaptor.27" = type { %"struct.boost::detail::out_edge_iter" }
%"struct.boost::detail::out_edge_iter" = type { %"class.boost::iterator_adaptor", i32 }
%"class.boost::iterator_adaptor" = type { %"class.__gnu_cxx::__normal_iterator.14" }
%"class.__gnu_cxx::__normal_iterator.14" = type { %"class.boost::detail::stored_edge_iter"* }
%"class.boost::tuples::tuple.29" = type { %"struct.boost::tuples::cons.30" }
%"struct.boost::tuples::cons.30" = type { %"struct.boost::adjacency_iterator"*, %"struct.boost::tuples::cons.31" }
%"struct.boost::tuples::cons.31" = type { %"struct.boost::adjacency_iterator"* }
%"struct.std::pair.32" = type { %"struct.boost::adjacency_iterator", %"struct.boost::adjacency_iterator" }
%"class.boost::iterator_facade.28" = type { i8 }
%"class.boost::range_detail::integer_iterator" = type { i32 }
%"class.boost::tuples::tuple" = type { %"struct.boost::tuples::cons" }
%"struct.boost::tuples::cons" = type { %"class.boost::range_detail::integer_iterator"*, %"struct.boost::tuples::cons.20" }
%"struct.boost::tuples::cons.20" = type { %"class.boost::range_detail::integer_iterator"* }
%"struct.std::pair.21" = type { %"class.boost::range_detail::integer_iterator", %"class.boost::range_detail::integer_iterator" }
%"class.boost::tuples::tuple.22" = type { %"struct.boost::tuples::cons.23" }
%"struct.boost::tuples::cons.23" = type { %"struct.boost::detail::out_edge_iter"*, %"struct.boost::tuples::cons.24" }
%"struct.boost::tuples::cons.24" = type { %"struct.boost::detail::out_edge_iter"* }
%"struct.std::pair.25" = type { %"struct.boost::detail::out_edge_iter", %"struct.boost::detail::out_edge_iter" }
%"class.boost::iterator_facade" = type { i8 }
%"class.boost::iterator_facade.19" = type { i8 }
%"struct.boost::allow_parallel_edge_tag" = type { i8 }
%"struct.boost::graph::maybe_named_graph" = type { i8 }
%"class.boost::integer_range" = type { %"class.boost::iterator_range" }
%"class.boost::iterator_range" = type { %"class.boost::range_detail::integer_iterator", %"class.boost::range_detail::integer_iterator" }
%"struct.boost::bidirectional_tag" = type { i8 }
%"class.__gnu_cxx::__normal_iterator" = type { %"struct.boost::detail::adj_list_gen<boost::adjacency_list<boost::vecS, boost::vecS, boost::bidirectionalS, boost::property<boost::vertex_color_t, boost::default_color_type, boost::property<boost::vertex_distance_t, int, boost::property<boost::vertex_degree_t, int, boost::property<boost::vertex_in_degree_t, int, boost::property<boost::vertex_out_degree_t, int, boost::no_property> > > > >, boost::property<boost::edge_weight_t, int, boost::no_property>, boost::no_property, boost::listS>, boost::vecS, boost::vecS, boost::bidirectionalS, boost::property<boost::vertex_color_t, boost::default_color_type, boost::property<boost::vertex_distance_t, int, boost::property<boost::vertex_degree_t, int, boost::property<boost::vertex_in_degree_t, int, boost::property<boost::vertex_out_degree_t, int, boost::no_property> > > > >, boost::property<boost::edge_weight_t, int, boost::no_property>, boost::no_property, boost::listS>::config::stored_vertex"* }
%"struct.boost::list_edge" = type { %"struct.boost::detail::edge_base.12", %"struct.boost::property.13" }
%"struct.boost::detail::edge_base.12" = type { i32, i32 }
%"class.__gnu_cxx::new_allocator.1" = type { i8 }
%"struct.std::_List_node" = type { %"struct.std::__detail::_List_node_base", %"struct.boost::list_edge" }
%"class.std::allocator.5" = type { i8 }
%"class.__gnu_cxx::new_allocator.6" = type { i8 }
%"class.__gnu_cxx::__normal_iterator.15" = type { %"class.boost::detail::stored_edge_iter"* }
%"struct.boost::detail::target_is" = type { i32 }
%"class.std::allocator.16" = type { i8 }
%"class.__gnu_cxx::new_allocator.17" = type { i8 }
%"class.std::allocator" = type { i8 }
%"class.__gnu_cxx::new_allocator" = type { i8 }
%"struct.boost::graph_detail::sequence_tag" = type { %"struct.boost::graph_detail::forward_container_tag" }
%"struct.boost::graph_detail::forward_container_tag" = type { i32 (...)** }
%"struct.boost::graph_detail::vector_tag" = type { %"struct.boost::graph_detail::random_access_container_tag", %"struct.boost::graph_detail::back_insertion_sequence_tag" }
%"struct.boost::graph_detail::random_access_container_tag" = type { %"struct.boost::graph_detail::reversible_container_tag" }
%"struct.boost::graph_detail::reversible_container_tag" = type { %"struct.boost::graph_detail::forward_container_tag" }
%"struct.boost::graph_detail::back_insertion_sequence_tag" = type { %"struct.boost::graph_detail::sequence_tag" }
%"struct.boost::graph_detail::unstable_tag" = type { i8 }
%"struct.boost::graph_detail::container_tag" = type { i8 }
%"struct.std::random_access_iterator_tag" = type { i8 }
%"struct.mpl_::bool_" = type { i8 }
%"struct.boost::is_convertible" = type { i8 }
%"class.std::allocator.0" = type { i8 }
%"struct.boost::is_convertible.26" = type { i8 }
%"struct.boost::tuples::null_type" = type { i8 }
%"struct.std::input_iterator_tag" = type { i8 }
%"struct.boost::detail::iterator_category_with_traversal" = type { i8 }
%"struct.boost::is_convertible.33" = type { i8 }
%"struct.std::pair.34" = type { %"struct.std::_List_iterator", i8 }
%"class.boost::tuples::tuple.35" = type { %"struct.boost::tuples::cons.36" }
%"struct.boost::tuples::cons.36" = type { %"class.__gnu_cxx::__normal_iterator.14"*, %"struct.boost::tuples::cons.37" }
%"struct.boost::tuples::cons.37" = type { i8* }
%"struct.std::pair.38" = type { %"class.__gnu_cxx::__normal_iterator.14", i8 }
%"struct.boost::graph_detail::list_tag" = type { %"struct.boost::graph_detail::reversible_container_tag", %"struct.boost::graph_detail::back_insertion_sequence_tag" }
%"struct.boost::equality_comparable1" = type { i8 }

@_ZStL8__ioinit = internal global %"class.std::ios_base::Init" zeroinitializer, align 1
@__dso_handle = external global i8
@_ZSt4cout = external global %"class.std::basic_ostream"
@.str = private unnamed_addr constant [12 x i8] c"edge edge (\00", align 1
@.str1 = private unnamed_addr constant [2 x i8] c",\00", align 1
@.str2 = private unnamed_addr constant [2 x i8] c")\00", align 1
@_ZSt4cerr = external global %"class.std::basic_ostream"
@.str3 = private unnamed_addr constant [12 x i8] c"    Failed.\00", align 1
@.str4 = private unnamed_addr constant [19 x i8] c"           Passed.\00", align 1
@.str5 = private unnamed_addr constant [14 x i8] c"remove edge (\00", align 1
@.str6 = private unnamed_addr constant [11 x i8] c"add edge (\00", align 1
@.str7 = private unnamed_addr constant [17 x i8] c"Removing vertex \00", align 1
@_ZTVN5boost12graph_detail10vector_tagE = linkonce_odr unnamed_addr constant [13 x i8*] [i8* inttoptr (i32 4 to i8*), i8* inttoptr (i32 4 to i8*), i8* null, i8* null, i8* null, i8* null, i8* null, i8* bitcast ({ i8*, i8*, i32, i32, i8*, i32, i8*, i32 }* @_ZTIN5boost12graph_detail10vector_tagE to i8*), i8* null, i8* inttoptr (i32 -4 to i8*), i8* inttoptr (i32 -4 to i8*), i8* inttoptr (i32 -4 to i8*), i8* bitcast ({ i8*, i8*, i32, i32, i8*, i32, i8*, i32 }* @_ZTIN5boost12graph_detail10vector_tagE to i8*)]
@_ZTTN5boost12graph_detail10vector_tagE = linkonce_odr unnamed_addr constant [17 x i8*] [i8* bitcast (i8** getelementptr inbounds ([13 x i8*]* @_ZTVN5boost12graph_detail10vector_tagE, i64 0, i64 8) to i8*), i8* bitcast (i8** getelementptr inbounds ([13 x i8*]* @_ZTVN5boost12graph_detail10vector_tagE, i64 0, i64 8) to i8*), i8* bitcast (i8** getelementptr inbounds ([13 x i8*]* @_ZTVN5boost12graph_detail10vector_tagE, i64 0, i64 8) to i8*), i8* bitcast (i8** getelementptr inbounds ([13 x i8*]* @_ZTVN5boost12graph_detail10vector_tagE, i64 0, i64 8) to i8*), i8* bitcast (i8** getelementptr inbounds ([13 x i8*]* @_ZTVN5boost12graph_detail10vector_tagE, i64 1, i64 0) to i8*), i8* bitcast (i8** getelementptr inbounds ([13 x i8*]* @_ZTVN5boost12graph_detail10vector_tagE, i64 1, i64 0) to i8*), i8* bitcast (i8** getelementptr inbounds ([5 x i8*]* @_ZTCN5boost12graph_detail10vector_tagE0_NS0_27random_access_container_tagE, i64 1, i64 0) to i8*), i8* bitcast (i8** getelementptr inbounds ([5 x i8*]* @_ZTCN5boost12graph_detail10vector_tagE0_NS0_27random_access_container_tagE, i64 1, i64 0) to i8*), i8* bitcast (i8** getelementptr inbounds ([5 x i8*]* @_ZTCN5boost12graph_detail10vector_tagE0_NS0_27random_access_container_tagE, i64 1, i64 0) to i8*), i8* bitcast (i8** getelementptr inbounds ([4 x i8*]* @_ZTCN5boost12graph_detail10vector_tagE0_NS0_24reversible_container_tagE, i64 1, i64 0) to i8*), i8* bitcast (i8** getelementptr inbounds ([4 x i8*]* @_ZTCN5boost12graph_detail10vector_tagE0_NS0_24reversible_container_tagE, i64 1, i64 0) to i8*), i8* bitcast (i8** getelementptr inbounds ([3 x i8*]* @_ZTCN5boost12graph_detail10vector_tagE0_NS0_21forward_container_tagE, i64 1, i64 0) to i8*), i8* bitcast (i8** getelementptr inbounds ([8 x i8*]* @_ZTCN5boost12graph_detail10vector_tagE4_NS0_27back_insertion_sequence_tagE, i64 0, i64 5) to i8*), i8* bitcast (i8** getelementptr inbounds ([8 x i8*]* @_ZTCN5boost12graph_detail10vector_tagE4_NS0_27back_insertion_sequence_tagE, i64 0, i64 5) to i8*), i8* bitcast (i8** getelementptr inbounds ([8 x i8*]* @_ZTCN5boost12graph_detail10vector_tagE4_NS0_27back_insertion_sequence_tagE, i64 1, i64 0) to i8*), i8* bitcast (i8** getelementptr inbounds ([7 x i8*]* @_ZTCN5boost12graph_detail10vector_tagE4_NS0_12sequence_tagE, i64 0, i64 4) to i8*), i8* bitcast (i8** getelementptr inbounds ([7 x i8*]* @_ZTCN5boost12graph_detail10vector_tagE4_NS0_12sequence_tagE, i64 1, i64 0) to i8*)]
@_ZTVN10__cxxabiv121__vmi_class_type_infoE = external global i8*
@_ZTSN5boost12graph_detail10vector_tagE = linkonce_odr constant [35 x i8] c"N5boost12graph_detail10vector_tagE\00"
@_ZTSN5boost12graph_detail27random_access_container_tagE = linkonce_odr constant [52 x i8] c"N5boost12graph_detail27random_access_container_tagE\00"
@_ZTSN5boost12graph_detail24reversible_container_tagE = linkonce_odr constant [49 x i8] c"N5boost12graph_detail24reversible_container_tagE\00"
@_ZTSN5boost12graph_detail21forward_container_tagE = linkonce_odr constant [46 x i8] c"N5boost12graph_detail21forward_container_tagE\00"
@_ZTVN10__cxxabiv117__class_type_infoE = external global i8*
@_ZTSN5boost12graph_detail13container_tagE = linkonce_odr constant [38 x i8] c"N5boost12graph_detail13container_tagE\00"
@_ZTIN5boost12graph_detail13container_tagE = linkonce_odr unnamed_addr constant { i8*, i8* } { i8* bitcast (i8** getelementptr inbounds (i8** @_ZTVN10__cxxabiv117__class_type_infoE, i32 2) to i8*), i8* getelementptr inbounds ([38 x i8]* @_ZTSN5boost12graph_detail13container_tagE, i32 0, i32 0) }
@_ZTIN5boost12graph_detail21forward_container_tagE = linkonce_odr unnamed_addr constant { i8*, i8*, i32, i32, i8*, i32 } { i8* bitcast (i8** getelementptr inbounds (i8** @_ZTVN10__cxxabiv121__vmi_class_type_infoE, i32 2) to i8*), i8* getelementptr inbounds ([46 x i8]* @_ZTSN5boost12graph_detail21forward_container_tagE, i32 0, i32 0), i32 0, i32 1, i8* bitcast ({ i8*, i8* }* @_ZTIN5boost12graph_detail13container_tagE to i8*), i32 -3069 }
@_ZTIN5boost12graph_detail24reversible_container_tagE = linkonce_odr unnamed_addr constant { i8*, i8*, i32, i32, i8*, i32 } { i8* bitcast (i8** getelementptr inbounds (i8** @_ZTVN10__cxxabiv121__vmi_class_type_infoE, i32 2) to i8*), i8* getelementptr inbounds ([49 x i8]* @_ZTSN5boost12graph_detail24reversible_container_tagE, i32 0, i32 0), i32 0, i32 1, i8* bitcast ({ i8*, i8*, i32, i32, i8*, i32 }* @_ZTIN5boost12graph_detail21forward_container_tagE to i8*), i32 -4093 }
@_ZTIN5boost12graph_detail27random_access_container_tagE = linkonce_odr unnamed_addr constant { i8*, i8*, i32, i32, i8*, i32 } { i8* bitcast (i8** getelementptr inbounds (i8** @_ZTVN10__cxxabiv121__vmi_class_type_infoE, i32 2) to i8*), i8* getelementptr inbounds ([52 x i8]* @_ZTSN5boost12graph_detail27random_access_container_tagE, i32 0, i32 0), i32 0, i32 1, i8* bitcast ({ i8*, i8*, i32, i32, i8*, i32 }* @_ZTIN5boost12graph_detail24reversible_container_tagE to i8*), i32 -5117 }
@_ZTSN5boost12graph_detail27back_insertion_sequence_tagE = linkonce_odr constant [52 x i8] c"N5boost12graph_detail27back_insertion_sequence_tagE\00"
@_ZTSN5boost12graph_detail12sequence_tagE = linkonce_odr constant [37 x i8] c"N5boost12graph_detail12sequence_tagE\00"
@_ZTIN5boost12graph_detail12sequence_tagE = linkonce_odr unnamed_addr constant { i8*, i8*, i32, i32, i8*, i32 } { i8* bitcast (i8** getelementptr inbounds (i8** @_ZTVN10__cxxabiv121__vmi_class_type_infoE, i32 2) to i8*), i8* getelementptr inbounds ([37 x i8]* @_ZTSN5boost12graph_detail12sequence_tagE, i32 0, i32 0), i32 0, i32 1, i8* bitcast ({ i8*, i8*, i32, i32, i8*, i32 }* @_ZTIN5boost12graph_detail21forward_container_tagE to i8*), i32 -4093 }
@_ZTIN5boost12graph_detail27back_insertion_sequence_tagE = linkonce_odr unnamed_addr constant { i8*, i8*, i32, i32, i8*, i32 } { i8* bitcast (i8** getelementptr inbounds (i8** @_ZTVN10__cxxabiv121__vmi_class_type_infoE, i32 2) to i8*), i8* getelementptr inbounds ([52 x i8]* @_ZTSN5boost12graph_detail27back_insertion_sequence_tagE, i32 0, i32 0), i32 0, i32 1, i8* bitcast ({ i8*, i8*, i32, i32, i8*, i32 }* @_ZTIN5boost12graph_detail12sequence_tagE to i8*), i32 -5117 }
@_ZTIN5boost12graph_detail10vector_tagE = linkonce_odr unnamed_addr constant { i8*, i8*, i32, i32, i8*, i32, i8*, i32 } { i8* bitcast (i8** getelementptr inbounds (i8** @_ZTVN10__cxxabiv121__vmi_class_type_infoE, i32 2) to i8*), i8* getelementptr inbounds ([35 x i8]* @_ZTSN5boost12graph_detail10vector_tagE, i32 0, i32 0), i32 2, i32 2, i8* bitcast ({ i8*, i8*, i32, i32, i8*, i32 }* @_ZTIN5boost12graph_detail27random_access_container_tagE to i8*), i32 -6141, i8* bitcast ({ i8*, i8*, i32, i32, i8*, i32 }* @_ZTIN5boost12graph_detail27back_insertion_sequence_tagE to i8*), i32 -7165 }
@_ZTCN5boost12graph_detail10vector_tagE0_NS0_27random_access_container_tagE = linkonce_odr unnamed_addr constant [5 x i8*] [i8* null, i8* null, i8* null, i8* null, i8* bitcast ({ i8*, i8*, i32, i32, i8*, i32 }* @_ZTIN5boost12graph_detail27random_access_container_tagE to i8*)]
@_ZTCN5boost12graph_detail10vector_tagE0_NS0_24reversible_container_tagE = linkonce_odr unnamed_addr constant [4 x i8*] [i8* null, i8* null, i8* null, i8* bitcast ({ i8*, i8*, i32, i32, i8*, i32 }* @_ZTIN5boost12graph_detail24reversible_container_tagE to i8*)]
@_ZTCN5boost12graph_detail10vector_tagE0_NS0_21forward_container_tagE = linkonce_odr unnamed_addr constant [3 x i8*] [i8* null, i8* null, i8* bitcast ({ i8*, i8*, i32, i32, i8*, i32 }* @_ZTIN5boost12graph_detail21forward_container_tagE to i8*)]
@_ZTCN5boost12graph_detail10vector_tagE4_NS0_27back_insertion_sequence_tagE = linkonce_odr unnamed_addr constant [8 x i8*] [i8* null, i8* inttoptr (i32 -4 to i8*), i8* inttoptr (i32 -4 to i8*), i8* null, i8* bitcast ({ i8*, i8*, i32, i32, i8*, i32 }* @_ZTIN5boost12graph_detail27back_insertion_sequence_tagE to i8*), i8* null, i8* inttoptr (i32 4 to i8*), i8* bitcast ({ i8*, i8*, i32, i32, i8*, i32 }* @_ZTIN5boost12graph_detail27back_insertion_sequence_tagE to i8*)]
@_ZTCN5boost12graph_detail10vector_tagE4_NS0_12sequence_tagE = linkonce_odr unnamed_addr constant [7 x i8*] [i8* inttoptr (i32 -4 to i8*), i8* inttoptr (i32 -4 to i8*), i8* null, i8* bitcast ({ i8*, i8*, i32, i32, i8*, i32 }* @_ZTIN5boost12graph_detail12sequence_tagE to i8*), i8* null, i8* inttoptr (i32 4 to i8*), i8* bitcast ({ i8*, i8*, i32, i32, i8*, i32 }* @_ZTIN5boost12graph_detail12sequence_tagE to i8*)]
@_ZTVN5boost12graph_detail27back_insertion_sequence_tagE = linkonce_odr unnamed_addr constant [5 x i8*] [i8* null, i8* null, i8* null, i8* null, i8* bitcast ({ i8*, i8*, i32, i32, i8*, i32 }* @_ZTIN5boost12graph_detail27back_insertion_sequence_tagE to i8*)]
@_ZTTN5boost12graph_detail27back_insertion_sequence_tagE = linkonce_odr unnamed_addr constant [6 x i8*] [i8* bitcast (i8** getelementptr inbounds ([5 x i8*]* @_ZTVN5boost12graph_detail27back_insertion_sequence_tagE, i64 1, i64 0) to i8*), i8* bitcast (i8** getelementptr inbounds ([5 x i8*]* @_ZTVN5boost12graph_detail27back_insertion_sequence_tagE, i64 1, i64 0) to i8*), i8* bitcast (i8** getelementptr inbounds ([5 x i8*]* @_ZTVN5boost12graph_detail27back_insertion_sequence_tagE, i64 1, i64 0) to i8*), i8* bitcast (i8** getelementptr inbounds ([4 x i8*]* @_ZTCN5boost12graph_detail27back_insertion_sequence_tagE0_NS0_12sequence_tagE, i64 1, i64 0) to i8*), i8* bitcast (i8** getelementptr inbounds ([4 x i8*]* @_ZTCN5boost12graph_detail27back_insertion_sequence_tagE0_NS0_12sequence_tagE, i64 1, i64 0) to i8*), i8* bitcast (i8** getelementptr inbounds ([3 x i8*]* @_ZTCN5boost12graph_detail27back_insertion_sequence_tagE0_NS0_21forward_container_tagE, i64 1, i64 0) to i8*)]
@_ZTCN5boost12graph_detail27back_insertion_sequence_tagE0_NS0_12sequence_tagE = linkonce_odr unnamed_addr constant [4 x i8*] [i8* null, i8* null, i8* null, i8* bitcast ({ i8*, i8*, i32, i32, i8*, i32 }* @_ZTIN5boost12graph_detail12sequence_tagE to i8*)]
@_ZTCN5boost12graph_detail27back_insertion_sequence_tagE0_NS0_21forward_container_tagE = linkonce_odr unnamed_addr constant [3 x i8*] [i8* null, i8* null, i8* bitcast ({ i8*, i8*, i32, i32, i8*, i32 }* @_ZTIN5boost12graph_detail21forward_container_tagE to i8*)]
@_ZTVN5boost12graph_detail12sequence_tagE = linkonce_odr unnamed_addr constant [4 x i8*] [i8* null, i8* null, i8* null, i8* bitcast ({ i8*, i8*, i32, i32, i8*, i32 }* @_ZTIN5boost12graph_detail12sequence_tagE to i8*)]
@_ZTTN5boost12graph_detail12sequence_tagE = linkonce_odr unnamed_addr constant [3 x i8*] [i8* bitcast (i8** getelementptr inbounds ([4 x i8*]* @_ZTVN5boost12graph_detail12sequence_tagE, i64 1, i64 0) to i8*), i8* bitcast (i8** getelementptr inbounds ([4 x i8*]* @_ZTVN5boost12graph_detail12sequence_tagE, i64 1, i64 0) to i8*), i8* bitcast (i8** getelementptr inbounds ([3 x i8*]* @_ZTCN5boost12graph_detail12sequence_tagE0_NS0_21forward_container_tagE, i64 1, i64 0) to i8*)]
@_ZTCN5boost12graph_detail12sequence_tagE0_NS0_21forward_container_tagE = linkonce_odr unnamed_addr constant [3 x i8*] [i8* null, i8* null, i8* bitcast ({ i8*, i8*, i32, i32, i8*, i32 }* @_ZTIN5boost12graph_detail21forward_container_tagE to i8*)]
@_ZTVN5boost12graph_detail27random_access_container_tagE = linkonce_odr unnamed_addr constant [5 x i8*] [i8* null, i8* null, i8* null, i8* null, i8* bitcast ({ i8*, i8*, i32, i32, i8*, i32 }* @_ZTIN5boost12graph_detail27random_access_container_tagE to i8*)]
@_ZTTN5boost12graph_detail27random_access_container_tagE = linkonce_odr unnamed_addr constant [6 x i8*] [i8* bitcast (i8** getelementptr inbounds ([5 x i8*]* @_ZTVN5boost12graph_detail27random_access_container_tagE, i64 1, i64 0) to i8*), i8* bitcast (i8** getelementptr inbounds ([5 x i8*]* @_ZTVN5boost12graph_detail27random_access_container_tagE, i64 1, i64 0) to i8*), i8* bitcast (i8** getelementptr inbounds ([5 x i8*]* @_ZTVN5boost12graph_detail27random_access_container_tagE, i64 1, i64 0) to i8*), i8* bitcast (i8** getelementptr inbounds ([4 x i8*]* @_ZTCN5boost12graph_detail27random_access_container_tagE0_NS0_24reversible_container_tagE, i64 1, i64 0) to i8*), i8* bitcast (i8** getelementptr inbounds ([4 x i8*]* @_ZTCN5boost12graph_detail27random_access_container_tagE0_NS0_24reversible_container_tagE, i64 1, i64 0) to i8*), i8* bitcast (i8** getelementptr inbounds ([3 x i8*]* @_ZTCN5boost12graph_detail27random_access_container_tagE0_NS0_21forward_container_tagE, i64 1, i64 0) to i8*)]
@_ZTCN5boost12graph_detail27random_access_container_tagE0_NS0_24reversible_container_tagE = linkonce_odr unnamed_addr constant [4 x i8*] [i8* null, i8* null, i8* null, i8* bitcast ({ i8*, i8*, i32, i32, i8*, i32 }* @_ZTIN5boost12graph_detail24reversible_container_tagE to i8*)]
@_ZTCN5boost12graph_detail27random_access_container_tagE0_NS0_21forward_container_tagE = linkonce_odr unnamed_addr constant [3 x i8*] [i8* null, i8* null, i8* bitcast ({ i8*, i8*, i32, i32, i8*, i32 }* @_ZTIN5boost12graph_detail21forward_container_tagE to i8*)]
@_ZTVN5boost12graph_detail24reversible_container_tagE = linkonce_odr unnamed_addr constant [4 x i8*] [i8* null, i8* null, i8* null, i8* bitcast ({ i8*, i8*, i32, i32, i8*, i32 }* @_ZTIN5boost12graph_detail24reversible_container_tagE to i8*)]
@_ZTTN5boost12graph_detail24reversible_container_tagE = linkonce_odr unnamed_addr constant [3 x i8*] [i8* bitcast (i8** getelementptr inbounds ([4 x i8*]* @_ZTVN5boost12graph_detail24reversible_container_tagE, i64 1, i64 0) to i8*), i8* bitcast (i8** getelementptr inbounds ([4 x i8*]* @_ZTVN5boost12graph_detail24reversible_container_tagE, i64 1, i64 0) to i8*), i8* bitcast (i8** getelementptr inbounds ([3 x i8*]* @_ZTCN5boost12graph_detail24reversible_container_tagE0_NS0_21forward_container_tagE, i64 1, i64 0) to i8*)]
@_ZTCN5boost12graph_detail24reversible_container_tagE0_NS0_21forward_container_tagE = linkonce_odr unnamed_addr constant [3 x i8*] [i8* null, i8* null, i8* bitcast ({ i8*, i8*, i32, i32, i8*, i32 }* @_ZTIN5boost12graph_detail21forward_container_tagE to i8*)]
@_ZTVN5boost12graph_detail21forward_container_tagE = linkonce_odr unnamed_addr constant [3 x i8*] [i8* null, i8* null, i8* bitcast ({ i8*, i8*, i32, i32, i8*, i32 }* @_ZTIN5boost12graph_detail21forward_container_tagE to i8*)]
@_ZTTN5boost12graph_detail21forward_container_tagE = linkonce_odr unnamed_addr constant [1 x i8*] [i8* bitcast (i8** getelementptr inbounds ([3 x i8*]* @_ZTVN5boost12graph_detail21forward_container_tagE, i64 1, i64 0) to i8*)]
@.str8 = private unnamed_addr constant [23 x i8] c"vector::_M_fill_insert\00", align 1
@.str9 = private unnamed_addr constant [6 x i8] c" --> \00", align 1
@.str10 = private unnamed_addr constant [3 x i8] c"  \00", align 1
@.str11 = private unnamed_addr constant [22 x i8] c"vector::_M_insert_aux\00", align 1
@_ZTVN5boost12graph_detail8list_tagE = linkonce_odr unnamed_addr constant [12 x i8*] [i8* inttoptr (i32 4 to i8*), i8* inttoptr (i32 4 to i8*), i8* null, i8* null, i8* null, i8* null, i8* bitcast ({ i8*, i8*, i32, i32, i8*, i32, i8*, i32 }* @_ZTIN5boost12graph_detail8list_tagE to i8*), i8* null, i8* inttoptr (i32 -4 to i8*), i8* inttoptr (i32 -4 to i8*), i8* inttoptr (i32 -4 to i8*), i8* bitcast ({ i8*, i8*, i32, i32, i8*, i32, i8*, i32 }* @_ZTIN5boost12graph_detail8list_tagE to i8*)]
@_ZTTN5boost12graph_detail8list_tagE = linkonce_odr unnamed_addr constant [13 x i8*] [i8* bitcast (i8** getelementptr inbounds ([12 x i8*]* @_ZTVN5boost12graph_detail8list_tagE, i64 0, i64 7) to i8*), i8* bitcast (i8** getelementptr inbounds ([12 x i8*]* @_ZTVN5boost12graph_detail8list_tagE, i64 0, i64 7) to i8*), i8* bitcast (i8** getelementptr inbounds ([12 x i8*]* @_ZTVN5boost12graph_detail8list_tagE, i64 0, i64 7) to i8*), i8* bitcast (i8** getelementptr inbounds ([12 x i8*]* @_ZTVN5boost12graph_detail8list_tagE, i64 1, i64 0) to i8*), i8* bitcast (i8** getelementptr inbounds ([12 x i8*]* @_ZTVN5boost12graph_detail8list_tagE, i64 1, i64 0) to i8*), i8* bitcast (i8** getelementptr inbounds ([4 x i8*]* @_ZTCN5boost12graph_detail8list_tagE0_NS0_24reversible_container_tagE, i64 1, i64 0) to i8*), i8* bitcast (i8** getelementptr inbounds ([4 x i8*]* @_ZTCN5boost12graph_detail8list_tagE0_NS0_24reversible_container_tagE, i64 1, i64 0) to i8*), i8* bitcast (i8** getelementptr inbounds ([3 x i8*]* @_ZTCN5boost12graph_detail8list_tagE0_NS0_21forward_container_tagE, i64 1, i64 0) to i8*), i8* bitcast (i8** getelementptr inbounds ([8 x i8*]* @_ZTCN5boost12graph_detail8list_tagE4_NS0_27back_insertion_sequence_tagE, i64 0, i64 5) to i8*), i8* bitcast (i8** getelementptr inbounds ([8 x i8*]* @_ZTCN5boost12graph_detail8list_tagE4_NS0_27back_insertion_sequence_tagE, i64 0, i64 5) to i8*), i8* bitcast (i8** getelementptr inbounds ([8 x i8*]* @_ZTCN5boost12graph_detail8list_tagE4_NS0_27back_insertion_sequence_tagE, i64 1, i64 0) to i8*), i8* bitcast (i8** getelementptr inbounds ([7 x i8*]* @_ZTCN5boost12graph_detail8list_tagE4_NS0_12sequence_tagE, i64 0, i64 4) to i8*), i8* bitcast (i8** getelementptr inbounds ([7 x i8*]* @_ZTCN5boost12graph_detail8list_tagE4_NS0_12sequence_tagE, i64 1, i64 0) to i8*)]
@_ZTSN5boost12graph_detail8list_tagE = linkonce_odr constant [32 x i8] c"N5boost12graph_detail8list_tagE\00"
@_ZTIN5boost12graph_detail8list_tagE = linkonce_odr unnamed_addr constant { i8*, i8*, i32, i32, i8*, i32, i8*, i32 } { i8* bitcast (i8** getelementptr inbounds (i8** @_ZTVN10__cxxabiv121__vmi_class_type_infoE, i32 2) to i8*), i8* getelementptr inbounds ([32 x i8]* @_ZTSN5boost12graph_detail8list_tagE, i32 0, i32 0), i32 2, i32 2, i8* bitcast ({ i8*, i8*, i32, i32, i8*, i32 }* @_ZTIN5boost12graph_detail24reversible_container_tagE to i8*), i32 -5117, i8* bitcast ({ i8*, i8*, i32, i32, i8*, i32 }* @_ZTIN5boost12graph_detail27back_insertion_sequence_tagE to i8*), i32 -6141 }
@_ZTCN5boost12graph_detail8list_tagE0_NS0_24reversible_container_tagE = linkonce_odr unnamed_addr constant [4 x i8*] [i8* null, i8* null, i8* null, i8* bitcast ({ i8*, i8*, i32, i32, i8*, i32 }* @_ZTIN5boost12graph_detail24reversible_container_tagE to i8*)]
@_ZTCN5boost12graph_detail8list_tagE0_NS0_21forward_container_tagE = linkonce_odr unnamed_addr constant [3 x i8*] [i8* null, i8* null, i8* bitcast ({ i8*, i8*, i32, i32, i8*, i32 }* @_ZTIN5boost12graph_detail21forward_container_tagE to i8*)]
@_ZTCN5boost12graph_detail8list_tagE4_NS0_27back_insertion_sequence_tagE = linkonce_odr unnamed_addr constant [8 x i8*] [i8* null, i8* inttoptr (i32 -4 to i8*), i8* inttoptr (i32 -4 to i8*), i8* null, i8* bitcast ({ i8*, i8*, i32, i32, i8*, i32 }* @_ZTIN5boost12graph_detail27back_insertion_sequence_tagE to i8*), i8* null, i8* inttoptr (i32 4 to i8*), i8* bitcast ({ i8*, i8*, i32, i32, i8*, i32 }* @_ZTIN5boost12graph_detail27back_insertion_sequence_tagE to i8*)]
@_ZTCN5boost12graph_detail8list_tagE4_NS0_12sequence_tagE = linkonce_odr unnamed_addr constant [7 x i8*] [i8* inttoptr (i32 -4 to i8*), i8* inttoptr (i32 -4 to i8*), i8* null, i8* bitcast ({ i8*, i8*, i32, i32, i8*, i32 }* @_ZTIN5boost12graph_detail12sequence_tagE to i8*), i8* null, i8* inttoptr (i32 4 to i8*), i8* bitcast ({ i8*, i8*, i32, i32, i8*, i32 }* @_ZTIN5boost12graph_detail12sequence_tagE to i8*)]
@llvm.global_ctors = appending global [1 x { i32, void ()* }] [{ i32, void ()* } { i32 65535, void ()* @_GLOBAL__I_a }]

define internal void @__cxx_global_var_init() section ".text.startup" {
entry:
  call void @_ZNSt8ios_base4InitC1Ev(%"class.std::ios_base::Init"* @_ZStL8__ioinit)
  %0 = call i32 @__cxa_atexit(void (i8*)* bitcast (void (%"class.std::ios_base::Init"*)* @_ZNSt8ios_base4InitD1Ev to void (i8*)*), i8* getelementptr inbounds (%"class.std::ios_base::Init"* @_ZStL8__ioinit, i32 0, i32 0), i8* @__dso_handle) nounwind
  ret void
}

declare void @_ZNSt8ios_base4InitC1Ev(%"class.std::ios_base::Init"*)

declare void @_ZNSt8ios_base4InitD1Ev(%"class.std::ios_base::Init"*)

declare i32 @__cxa_atexit(void (i8*)*, i8*, i8*) nounwind

define i32 @_Z6myrandj(i32 %N) nounwind {
entry:
  %N.addr = alloca i32, align 4
  %ret = alloca i32, align 4
  store i32 %N, i32* %N.addr, align 4
  %call = call i32 @rand() nounwind
  %0 = load i32* %N.addr, align 4
  %rem = urem i32 %call, %0
  store i32 %rem, i32* %ret, align 4
  %1 = load i32* %ret, align 4
  ret i32 %1
}

declare i32 @rand() nounwind

define i32 @main(i32, i8**) {
entry:
  %retval = alloca i32, align 4
  %.addr = alloca i32, align 4
  %.addr1 = alloca i8**, align 4
  %N = alloca i32, align 4
  %g = alloca %"class.boost::adjacency_list", align 4
  %ref.tmp = alloca %"struct.boost::no_property", align 1
  %i = alloca i32, align 4
  %is_failed = alloca i8, align 1
  %a = alloca i32, align 4
  %exn.slot = alloca i8*
  %ehselector.slot = alloca i32
  %b = alloca i32, align 4
  %tmp = alloca %"struct.std::pair", align 4
  %a36 = alloca i32, align 4
  %b40 = alloca i32, align 4
  %old_N = alloca i32, align 4
  %vid = alloca i32, align 4
  %vidp1 = alloca i32, align 4
  %a109 = alloca i32, align 4
  %b113 = alloca i32, align 4
  %tmp152 = alloca %"struct.std::pair", align 4
  %tmp154 = alloca %"struct.std::pair", align 4
  %c = alloca i32, align 4
  %cleanup.dest.slot = alloca i32
  store i32 0, i32* %retval
  store i32 %0, i32* %.addr, align 4
  store i8** %1, i8*** %.addr1, align 4
  store i32 5, i32* %N, align 4
  %2 = load i32* %N, align 4
  call void @_ZN5boost14adjacency_listINS_4vecSES1_NS_14bidirectionalSENS_8propertyINS_14vertex_color_tENS_18default_color_typeENS3_INS_17vertex_distance_tEiNS3_INS_15vertex_degree_tEiNS3_INS_18vertex_in_degree_tEiNS3_INS_19vertex_out_degree_tEiNS_11no_propertyEEEEEEEEEEENS3_INS_13edge_weight_tEiSA_EESA_NS_5listSEEC1EjRKSA_(%"class.boost::adjacency_list"* %g, i32 %2, %"struct.boost::no_property"* %ref.tmp)
  store i8 0, i8* %is_failed, align 1
  store i32 0, i32* %i, align 4
  br label %for.cond

for.cond:                                         ; preds = %for.inc, %entry
  %3 = load i32* %i, align 4
  %cmp = icmp slt i32 %3, 6
  br i1 %cmp, label %for.body, label %for.end

for.body:                                         ; preds = %for.cond
  %4 = load i32* %N, align 4
  %call = invoke i32 @_Z6myrandj(i32 %4)
          to label %invoke.cont unwind label %lpad

invoke.cont:                                      ; preds = %for.body
  store i32 %call, i32* %a, align 4
  %5 = load i32* %N, align 4
  %call3 = invoke i32 @_Z6myrandj(i32 %5)
          to label %invoke.cont2 unwind label %lpad

invoke.cont2:                                     ; preds = %invoke.cont
  store i32 %call3, i32* %b, align 4
  br label %while.cond

while.cond:                                       ; preds = %invoke.cont5, %invoke.cont2
  %6 = load i32* %a, align 4
  %7 = load i32* %b, align 4
  %cmp4 = icmp eq i32 %6, %7
  br i1 %cmp4, label %while.body, label %while.end

while.body:                                       ; preds = %while.cond
  %8 = load i32* %N, align 4
  %call6 = invoke i32 @_Z6myrandj(i32 %8)
          to label %invoke.cont5 unwind label %lpad

invoke.cont5:                                     ; preds = %while.body
  store i32 %call6, i32* %b, align 4
  br label %while.cond

lpad:                                             ; preds = %if.end218, %invoke.cont214, %if.else213, %invoke.cont209, %if.then208, %invoke.cont201, %invoke.cont199, %invoke.cont197, %invoke.cont195, %if.end194, %invoke.cont189, %invoke.cont187, %invoke.cont185, %if.end184, %invoke.cont180, %if.else179, %invoke.cont175, %if.then174, %lor.rhs164, %lor.rhs157, %invoke.cont153, %invoke.cont150, %invoke.cont148, %invoke.cont146, %invoke.cont144, %invoke.cont142, %invoke.cont140, %invoke.cont138, %invoke.cont136, %invoke.cont134, %invoke.cont132, %invoke.cont130, %invoke.cont128, %while.end127, %while.body124, %while.body118, %invoke.cont110, %for.body107, %invoke.cont100, %if.else99, %invoke.cont95, %if.then94, %invoke.cont89, %invoke.cont86, %invoke.cont83, %if.end82, %invoke.cont78, %if.else77, %invoke.cont73, %if.then72, %lor.rhs63, %invoke.cont59, %invoke.cont57, %invoke.cont55, %invoke.cont53, %invoke.cont51, %invoke.cont49, %while.end48, %while.body45, %invoke.cont37, %for.body34, %if.end, %invoke.cont27, %if.else, %invoke.cont23, %if.then, %lor.rhs, %invoke.cont17, %invoke.cont15, %invoke.cont13, %invoke.cont11, %invoke.cont9, %invoke.cont7, %while.end, %while.body, %invoke.cont, %for.body
  %9 = landingpad { i8*, i32 } personality i8* bitcast (i32 (...)* @__gxx_personality_v0 to i8*)
          cleanup
  %10 = extractvalue { i8*, i32 } %9, 0
  store i8* %10, i8** %exn.slot
  %11 = extractvalue { i8*, i32 } %9, 1
  store i32 %11, i32* %ehselector.slot
  invoke void @_ZN5boost14adjacency_listINS_4vecSES1_NS_14bidirectionalSENS_8propertyINS_14vertex_color_tENS_18default_color_typeENS3_INS_17vertex_distance_tEiNS3_INS_15vertex_degree_tEiNS3_INS_18vertex_in_degree_tEiNS3_INS_19vertex_out_degree_tEiNS_11no_propertyEEEEEEEEEEENS3_INS_13edge_weight_tEiSA_EESA_NS_5listSEED1Ev(%"class.boost::adjacency_list"* %g)
          to label %invoke.cont220 unwind label %terminate.lpad

while.end:                                        ; preds = %while.cond
  %call8 = invoke %"class.std::basic_ostream"* @_ZStlsISt11char_traitsIcEERSt13basic_ostreamIcT_ES5_PKc(%"class.std::basic_ostream"* @_ZSt4cout, i8* getelementptr inbounds ([12 x i8]* @.str, i32 0, i32 0))
          to label %invoke.cont7 unwind label %lpad

invoke.cont7:                                     ; preds = %while.end
  %12 = load i32* %a, align 4
  %call10 = invoke %"class.std::basic_ostream"* @_ZNSolsEj(%"class.std::basic_ostream"* %call8, i32 %12)
          to label %invoke.cont9 unwind label %lpad

invoke.cont9:                                     ; preds = %invoke.cont7
  %call12 = invoke %"class.std::basic_ostream"* @_ZStlsISt11char_traitsIcEERSt13basic_ostreamIcT_ES5_PKc(%"class.std::basic_ostream"* %call10, i8* getelementptr inbounds ([2 x i8]* @.str1, i32 0, i32 0))
          to label %invoke.cont11 unwind label %lpad

invoke.cont11:                                    ; preds = %invoke.cont9
  %13 = load i32* %b, align 4
  %call14 = invoke %"class.std::basic_ostream"* @_ZNSolsEj(%"class.std::basic_ostream"* %call12, i32 %13)
          to label %invoke.cont13 unwind label %lpad

invoke.cont13:                                    ; preds = %invoke.cont11
  %call16 = invoke %"class.std::basic_ostream"* @_ZStlsISt11char_traitsIcEERSt13basic_ostreamIcT_ES5_PKc(%"class.std::basic_ostream"* %call14, i8* getelementptr inbounds ([2 x i8]* @.str2, i32 0, i32 0))
          to label %invoke.cont15 unwind label %lpad

invoke.cont15:                                    ; preds = %invoke.cont13
  %call18 = invoke %"class.std::basic_ostream"* @_ZNSolsEPFRSoS_E(%"class.std::basic_ostream"* %call16, %"class.std::basic_ostream"* (%"class.std::basic_ostream"*)* @_ZSt4endlIcSt11char_traitsIcEERSt13basic_ostreamIT_T0_ES6_)
          to label %invoke.cont17 unwind label %lpad

invoke.cont17:                                    ; preds = %invoke.cont15
  %14 = load i32* %a, align 4
  %15 = load i32* %b, align 4
  %16 = bitcast %"class.boost::adjacency_list"* %g to %"class.boost::vec_adj_list_impl"*
  invoke void @_ZN5boost8add_edgeINS_14adjacency_listINS_4vecSES2_NS_14bidirectionalSENS_8propertyINS_14vertex_color_tENS_18default_color_typeENS4_INS_17vertex_distance_tEiNS4_INS_15vertex_degree_tEiNS4_INS_18vertex_in_degree_tEiNS4_INS_19vertex_out_degree_tEiNS_11no_propertyEEEEEEEEEEENS4_INS_13edge_weight_tEiSB_EESB_NS_5listSEEENS_6detail12adj_list_genISK_S2_S2_S3_SG_SI_SB_SJ_E6configENS_40bidirectional_graph_helper_with_propertyISO_EEEESt4pairINT0_15edge_descriptorEbENSS_17vertex_descriptorESV_RNS_17vec_adj_list_implIT_SS_T1_EE(%"struct.std::pair"* sret %tmp, i32 %14, i32 %15, %"class.boost::vec_adj_list_impl"* %16)
          to label %invoke.cont19 unwind label %lpad

invoke.cont19:                                    ; preds = %invoke.cont17
  %17 = load i8* %is_failed, align 1
  %tobool = trunc i8 %17 to i1
  br i1 %tobool, label %lor.end, label %lor.rhs

lor.rhs:                                          ; preds = %invoke.cont19
  %18 = load i32* %a, align 4
  %19 = load i32* %b, align 4
  %call21 = invoke zeroext i1 @_Z10check_edgeIN5boost14adjacency_listINS0_4vecSES2_NS0_14bidirectionalSENS0_8propertyINS0_14vertex_color_tENS0_18default_color_typeENS4_INS0_17vertex_distance_tEiNS4_INS0_15vertex_degree_tEiNS4_INS0_18vertex_in_degree_tEiNS4_INS0_19vertex_out_degree_tEiNS0_11no_propertyEEEEEEEEEEENS4_INS0_13edge_weight_tEiSB_EESB_NS0_5listSEEEEbRT_jj(%"class.boost::adjacency_list"* %g, i32 %18, i32 %19)
          to label %invoke.cont20 unwind label %lpad

invoke.cont20:                                    ; preds = %lor.rhs
  %lnot = xor i1 %call21, true
  br label %lor.end

lor.end:                                          ; preds = %invoke.cont20, %invoke.cont19
  %20 = phi i1 [ true, %invoke.cont19 ], [ %lnot, %invoke.cont20 ]
  %frombool = zext i1 %20 to i8
  store i8 %frombool, i8* %is_failed, align 1
  br label %for.inc

for.inc:                                          ; preds = %lor.end
  %21 = load i32* %i, align 4
  %inc = add nsw i32 %21, 1
  store i32 %inc, i32* %i, align 4
  br label %for.cond

for.end:                                          ; preds = %for.cond
  %22 = load i8* %is_failed, align 1
  %tobool22 = trunc i8 %22 to i1
  br i1 %tobool22, label %if.then, label %if.else

if.then:                                          ; preds = %for.end
  %call24 = invoke %"class.std::basic_ostream"* @_ZStlsISt11char_traitsIcEERSt13basic_ostreamIcT_ES5_PKc(%"class.std::basic_ostream"* @_ZSt4cerr, i8* getelementptr inbounds ([12 x i8]* @.str3, i32 0, i32 0))
          to label %invoke.cont23 unwind label %lpad

invoke.cont23:                                    ; preds = %if.then
  %call26 = invoke %"class.std::basic_ostream"* @_ZNSolsEPFRSoS_E(%"class.std::basic_ostream"* %call24, %"class.std::basic_ostream"* (%"class.std::basic_ostream"*)* @_ZSt4endlIcSt11char_traitsIcEERSt13basic_ostreamIT_T0_ES6_)
          to label %invoke.cont25 unwind label %lpad

invoke.cont25:                                    ; preds = %invoke.cont23
  br label %if.end

if.else:                                          ; preds = %for.end
  %call28 = invoke %"class.std::basic_ostream"* @_ZStlsISt11char_traitsIcEERSt13basic_ostreamIcT_ES5_PKc(%"class.std::basic_ostream"* @_ZSt4cerr, i8* getelementptr inbounds ([19 x i8]* @.str4, i32 0, i32 0))
          to label %invoke.cont27 unwind label %lpad

invoke.cont27:                                    ; preds = %if.else
  %call30 = invoke %"class.std::basic_ostream"* @_ZNSolsEPFRSoS_E(%"class.std::basic_ostream"* %call28, %"class.std::basic_ostream"* (%"class.std::basic_ostream"*)* @_ZSt4endlIcSt11char_traitsIcEERSt13basic_ostreamIT_T0_ES6_)
          to label %invoke.cont29 unwind label %lpad

invoke.cont29:                                    ; preds = %invoke.cont27
  br label %if.end

if.end:                                           ; preds = %invoke.cont29, %invoke.cont25
  invoke void @_Z5printIN5boost14adjacency_listINS0_4vecSES2_NS0_14bidirectionalSENS0_8propertyINS0_14vertex_color_tENS0_18default_color_typeENS4_INS0_17vertex_distance_tEiNS4_INS0_15vertex_degree_tEiNS4_INS0_18vertex_in_degree_tEiNS4_INS0_19vertex_out_degree_tEiNS0_11no_propertyEEEEEEEEEEENS4_INS0_13edge_weight_tEiSB_EESB_NS0_5listSEEEEvRT_(%"class.boost::adjacency_list"* %g)
          to label %invoke.cont31 unwind label %lpad

invoke.cont31:                                    ; preds = %if.end
  store i32 0, i32* %i, align 4
  br label %for.cond32

for.cond32:                                       ; preds = %for.inc68, %invoke.cont31
  %23 = load i32* %i, align 4
  %cmp33 = icmp slt i32 %23, 2
  br i1 %cmp33, label %for.body34, label %for.end70

for.body34:                                       ; preds = %for.cond32
  %24 = load i32* %N, align 4
  %call38 = invoke i32 @_Z6myrandj(i32 %24)
          to label %invoke.cont37 unwind label %lpad

invoke.cont37:                                    ; preds = %for.body34
  store i32 %call38, i32* %a36, align 4
  %25 = load i32* %N, align 4
  %call42 = invoke i32 @_Z6myrandj(i32 %25)
          to label %invoke.cont41 unwind label %lpad

invoke.cont41:                                    ; preds = %invoke.cont37
  store i32 %call42, i32* %b40, align 4
  br label %while.cond43

while.cond43:                                     ; preds = %invoke.cont46, %invoke.cont41
  %26 = load i32* %a36, align 4
  %27 = load i32* %b40, align 4
  %cmp44 = icmp eq i32 %26, %27
  br i1 %cmp44, label %while.body45, label %while.end48

while.body45:                                     ; preds = %while.cond43
  %28 = load i32* %N, align 4
  %call47 = invoke i32 @_Z6myrandj(i32 %28)
          to label %invoke.cont46 unwind label %lpad

invoke.cont46:                                    ; preds = %while.body45
  store i32 %call47, i32* %b40, align 4
  br label %while.cond43

while.end48:                                      ; preds = %while.cond43
  %call50 = invoke %"class.std::basic_ostream"* @_ZStlsISt11char_traitsIcEERSt13basic_ostreamIcT_ES5_PKc(%"class.std::basic_ostream"* @_ZSt4cout, i8* getelementptr inbounds ([14 x i8]* @.str5, i32 0, i32 0))
          to label %invoke.cont49 unwind label %lpad

invoke.cont49:                                    ; preds = %while.end48
  %29 = load i32* %a36, align 4
  %call52 = invoke %"class.std::basic_ostream"* @_ZNSolsEj(%"class.std::basic_ostream"* %call50, i32 %29)
          to label %invoke.cont51 unwind label %lpad

invoke.cont51:                                    ; preds = %invoke.cont49
  %call54 = invoke %"class.std::basic_ostream"* @_ZStlsISt11char_traitsIcEERSt13basic_ostreamIcT_ES5_PKc(%"class.std::basic_ostream"* %call52, i8* getelementptr inbounds ([2 x i8]* @.str1, i32 0, i32 0))
          to label %invoke.cont53 unwind label %lpad

invoke.cont53:                                    ; preds = %invoke.cont51
  %30 = load i32* %b40, align 4
  %call56 = invoke %"class.std::basic_ostream"* @_ZNSolsEj(%"class.std::basic_ostream"* %call54, i32 %30)
          to label %invoke.cont55 unwind label %lpad

invoke.cont55:                                    ; preds = %invoke.cont53
  %call58 = invoke %"class.std::basic_ostream"* @_ZStlsISt11char_traitsIcEERSt13basic_ostreamIcT_ES5_PKc(%"class.std::basic_ostream"* %call56, i8* getelementptr inbounds ([2 x i8]* @.str2, i32 0, i32 0))
          to label %invoke.cont57 unwind label %lpad

invoke.cont57:                                    ; preds = %invoke.cont55
  %call60 = invoke %"class.std::basic_ostream"* @_ZNSolsEPFRSoS_E(%"class.std::basic_ostream"* %call58, %"class.std::basic_ostream"* (%"class.std::basic_ostream"*)* @_ZSt4endlIcSt11char_traitsIcEERSt13basic_ostreamIT_T0_ES6_)
          to label %invoke.cont59 unwind label %lpad

invoke.cont59:                                    ; preds = %invoke.cont57
  %31 = load i32* %a36, align 4
  %32 = load i32* %b40, align 4
  %33 = bitcast %"class.boost::adjacency_list"* %g to %"struct.boost::bidirectional_graph_helper_with_property"*
  invoke void @_ZN5boost11remove_edgeINS_6detail12adj_list_genINS_14adjacency_listINS_4vecSES4_NS_14bidirectionalSENS_8propertyINS_14vertex_color_tENS_18default_color_typeENS6_INS_17vertex_distance_tEiNS6_INS_15vertex_degree_tEiNS6_INS_18vertex_in_degree_tEiNS6_INS_19vertex_out_degree_tEiNS_11no_propertyEEEEEEEEEEENS6_INS_13edge_weight_tEiSD_EESD_NS_5listSEEES4_S4_S5_SI_SK_SD_SL_E6configEEEvNT_17vertex_descriptorESQ_RNS_40bidirectional_graph_helper_with_propertyISP_EE(i32 %31, i32 %32, %"struct.boost::bidirectional_graph_helper_with_property"* %33)
          to label %invoke.cont61 unwind label %lpad

invoke.cont61:                                    ; preds = %invoke.cont59
  %34 = load i8* %is_failed, align 1
  %tobool62 = trunc i8 %34 to i1
  br i1 %tobool62, label %lor.end66, label %lor.rhs63

lor.rhs63:                                        ; preds = %invoke.cont61
  %35 = load i32* %a36, align 4
  %36 = load i32* %b40, align 4
  %call65 = invoke zeroext i1 @_Z10check_edgeIN5boost14adjacency_listINS0_4vecSES2_NS0_14bidirectionalSENS0_8propertyINS0_14vertex_color_tENS0_18default_color_typeENS4_INS0_17vertex_distance_tEiNS4_INS0_15vertex_degree_tEiNS4_INS0_18vertex_in_degree_tEiNS4_INS0_19vertex_out_degree_tEiNS0_11no_propertyEEEEEEEEEEENS4_INS0_13edge_weight_tEiSB_EESB_NS0_5listSEEEEbRT_jj(%"class.boost::adjacency_list"* %g, i32 %35, i32 %36)
          to label %invoke.cont64 unwind label %lpad

invoke.cont64:                                    ; preds = %lor.rhs63
  br label %lor.end66

lor.end66:                                        ; preds = %invoke.cont64, %invoke.cont61
  %37 = phi i1 [ true, %invoke.cont61 ], [ %call65, %invoke.cont64 ]
  %frombool67 = zext i1 %37 to i8
  store i8 %frombool67, i8* %is_failed, align 1
  br label %for.inc68

for.inc68:                                        ; preds = %lor.end66
  %38 = load i32* %i, align 4
  %inc69 = add nsw i32 %38, 1
  store i32 %inc69, i32* %i, align 4
  br label %for.cond32

for.end70:                                        ; preds = %for.cond32
  %39 = load i8* %is_failed, align 1
  %tobool71 = trunc i8 %39 to i1
  br i1 %tobool71, label %if.then72, label %if.else77

if.then72:                                        ; preds = %for.end70
  %call74 = invoke %"class.std::basic_ostream"* @_ZStlsISt11char_traitsIcEERSt13basic_ostreamIcT_ES5_PKc(%"class.std::basic_ostream"* @_ZSt4cerr, i8* getelementptr inbounds ([12 x i8]* @.str3, i32 0, i32 0))
          to label %invoke.cont73 unwind label %lpad

invoke.cont73:                                    ; preds = %if.then72
  %call76 = invoke %"class.std::basic_ostream"* @_ZNSolsEPFRSoS_E(%"class.std::basic_ostream"* %call74, %"class.std::basic_ostream"* (%"class.std::basic_ostream"*)* @_ZSt4endlIcSt11char_traitsIcEERSt13basic_ostreamIT_T0_ES6_)
          to label %invoke.cont75 unwind label %lpad

invoke.cont75:                                    ; preds = %invoke.cont73
  br label %if.end82

if.else77:                                        ; preds = %for.end70
  %call79 = invoke %"class.std::basic_ostream"* @_ZStlsISt11char_traitsIcEERSt13basic_ostreamIcT_ES5_PKc(%"class.std::basic_ostream"* @_ZSt4cerr, i8* getelementptr inbounds ([19 x i8]* @.str4, i32 0, i32 0))
          to label %invoke.cont78 unwind label %lpad

invoke.cont78:                                    ; preds = %if.else77
  %call81 = invoke %"class.std::basic_ostream"* @_ZNSolsEPFRSoS_E(%"class.std::basic_ostream"* %call79, %"class.std::basic_ostream"* (%"class.std::basic_ostream"*)* @_ZSt4endlIcSt11char_traitsIcEERSt13basic_ostreamIT_T0_ES6_)
          to label %invoke.cont80 unwind label %lpad

invoke.cont80:                                    ; preds = %invoke.cont78
  br label %if.end82

if.end82:                                         ; preds = %invoke.cont80, %invoke.cont75
  invoke void @_Z5printIN5boost14adjacency_listINS0_4vecSES2_NS0_14bidirectionalSENS0_8propertyINS0_14vertex_color_tENS0_18default_color_typeENS4_INS0_17vertex_distance_tEiNS4_INS0_15vertex_degree_tEiNS4_INS0_18vertex_in_degree_tEiNS4_INS0_19vertex_out_degree_tEiNS0_11no_propertyEEEEEEEEEEENS4_INS0_13edge_weight_tEiSB_EESB_NS0_5listSEEEEvRT_(%"class.boost::adjacency_list"* %g)
          to label %invoke.cont83 unwind label %lpad

invoke.cont83:                                    ; preds = %if.end82
  store i8 0, i8* %is_failed, align 1
  %40 = load i32* %N, align 4
  store i32 %40, i32* %old_N, align 4
  %41 = bitcast %"class.boost::adjacency_list"* %g to %"class.boost::vec_adj_list_impl"*
  %call87 = invoke i32 @_ZN5boost10add_vertexINS_14adjacency_listINS_4vecSES2_NS_14bidirectionalSENS_8propertyINS_14vertex_color_tENS_18default_color_typeENS4_INS_17vertex_distance_tEiNS4_INS_15vertex_degree_tEiNS4_INS_18vertex_in_degree_tEiNS4_INS_19vertex_out_degree_tEiNS_11no_propertyEEEEEEEEEEENS4_INS_13edge_weight_tEiSB_EESB_NS_5listSEEENS_6detail12adj_list_genISK_S2_S2_S3_SG_SI_SB_SJ_E6configENS_40bidirectional_graph_helper_with_propertyISO_EEEENT0_17vertex_descriptorERNS_17vec_adj_list_implIT_SR_T1_EE(%"class.boost::vec_adj_list_impl"* %41)
          to label %invoke.cont86 unwind label %lpad

invoke.cont86:                                    ; preds = %invoke.cont83
  store i32 %call87, i32* %vid, align 4
  %42 = bitcast %"class.boost::adjacency_list"* %g to %"class.boost::vec_adj_list_impl"*
  %call90 = invoke i32 @_ZN5boost10add_vertexINS_14adjacency_listINS_4vecSES2_NS_14bidirectionalSENS_8propertyINS_14vertex_color_tENS_18default_color_typeENS4_INS_17vertex_distance_tEiNS4_INS_15vertex_degree_tEiNS4_INS_18vertex_in_degree_tEiNS4_INS_19vertex_out_degree_tEiNS_11no_propertyEEEEEEEEEEENS4_INS_13edge_weight_tEiSB_EESB_NS_5listSEEENS_6detail12adj_list_genISK_S2_S2_S3_SG_SI_SB_SJ_E6configENS_40bidirectional_graph_helper_with_propertyISO_EEEENT0_17vertex_descriptorERNS_17vec_adj_list_implIT_SR_T1_EE(%"class.boost::vec_adj_list_impl"* %42)
          to label %invoke.cont89 unwind label %lpad

invoke.cont89:                                    ; preds = %invoke.cont86
  store i32 %call90, i32* %vidp1, align 4
  %43 = bitcast %"class.boost::adjacency_list"* %g to %"struct.boost::adj_list_helper"*
  %call92 = invoke i32 @_ZN5boost12num_verticesINS_6detail12adj_list_genINS_14adjacency_listINS_4vecSES4_NS_14bidirectionalSENS_8propertyINS_14vertex_color_tENS_18default_color_typeENS6_INS_17vertex_distance_tEiNS6_INS_15vertex_degree_tEiNS6_INS_18vertex_in_degree_tEiNS6_INS_19vertex_out_degree_tEiNS_11no_propertyEEEEEEEEEEENS6_INS_13edge_weight_tEiSD_EESD_NS_5listSEEES4_S4_S5_SI_SK_SD_SL_E6configENS_40bidirectional_graph_helper_with_propertyISO_EEEENT_18vertices_size_typeERKNS_15adj_list_helperISR_T0_EE(%"struct.boost::adj_list_helper"* %43)
          to label %invoke.cont91 unwind label %lpad

invoke.cont91:                                    ; preds = %invoke.cont89
  store i32 %call92, i32* %N, align 4
  %44 = load i32* %N, align 4
  %sub = sub i32 %44, 2
  %45 = load i32* %old_N, align 4
  %cmp93 = icmp ne i32 %sub, %45
  br i1 %cmp93, label %if.then94, label %if.else99

if.then94:                                        ; preds = %invoke.cont91
  %call96 = invoke %"class.std::basic_ostream"* @_ZStlsISt11char_traitsIcEERSt13basic_ostreamIcT_ES5_PKc(%"class.std::basic_ostream"* @_ZSt4cerr, i8* getelementptr inbounds ([12 x i8]* @.str3, i32 0, i32 0))
          to label %invoke.cont95 unwind label %lpad

invoke.cont95:                                    ; preds = %if.then94
  %call98 = invoke %"class.std::basic_ostream"* @_ZNSolsEPFRSoS_E(%"class.std::basic_ostream"* %call96, %"class.std::basic_ostream"* (%"class.std::basic_ostream"*)* @_ZSt4endlIcSt11char_traitsIcEERSt13basic_ostreamIT_T0_ES6_)
          to label %invoke.cont97 unwind label %lpad

invoke.cont97:                                    ; preds = %invoke.cont95
  br label %if.end104

if.else99:                                        ; preds = %invoke.cont91
  %call101 = invoke %"class.std::basic_ostream"* @_ZStlsISt11char_traitsIcEERSt13basic_ostreamIcT_ES5_PKc(%"class.std::basic_ostream"* @_ZSt4cerr, i8* getelementptr inbounds ([19 x i8]* @.str4, i32 0, i32 0))
          to label %invoke.cont100 unwind label %lpad

invoke.cont100:                                   ; preds = %if.else99
  %call103 = invoke %"class.std::basic_ostream"* @_ZNSolsEPFRSoS_E(%"class.std::basic_ostream"* %call101, %"class.std::basic_ostream"* (%"class.std::basic_ostream"*)* @_ZSt4endlIcSt11char_traitsIcEERSt13basic_ostreamIT_T0_ES6_)
          to label %invoke.cont102 unwind label %lpad

invoke.cont102:                                   ; preds = %invoke.cont100
  br label %if.end104

if.end104:                                        ; preds = %invoke.cont102, %invoke.cont97
  store i8 0, i8* %is_failed, align 1
  store i32 0, i32* %i, align 4
  br label %for.cond105

for.cond105:                                      ; preds = %for.inc170, %if.end104
  %46 = load i32* %i, align 4
  %cmp106 = icmp slt i32 %46, 2
  br i1 %cmp106, label %for.body107, label %for.end172

for.body107:                                      ; preds = %for.cond105
  %47 = load i32* %N, align 4
  %call111 = invoke i32 @_Z6myrandj(i32 %47)
          to label %invoke.cont110 unwind label %lpad

invoke.cont110:                                   ; preds = %for.body107
  store i32 %call111, i32* %a109, align 4
  %48 = load i32* %N, align 4
  %call115 = invoke i32 @_Z6myrandj(i32 %48)
          to label %invoke.cont114 unwind label %lpad

invoke.cont114:                                   ; preds = %invoke.cont110
  store i32 %call115, i32* %b113, align 4
  br label %while.cond116

while.cond116:                                    ; preds = %invoke.cont119, %invoke.cont114
  %49 = load i32* %a109, align 4
  %50 = load i32* %vid, align 4
  %cmp117 = icmp eq i32 %49, %50
  br i1 %cmp117, label %while.body118, label %while.end121

while.body118:                                    ; preds = %while.cond116
  %51 = load i32* %N, align 4
  %call120 = invoke i32 @_Z6myrandj(i32 %51)
          to label %invoke.cont119 unwind label %lpad

invoke.cont119:                                   ; preds = %while.body118
  store i32 %call120, i32* %a109, align 4
  br label %while.cond116

while.end121:                                     ; preds = %while.cond116
  br label %while.cond122

while.cond122:                                    ; preds = %invoke.cont125, %while.end121
  %52 = load i32* %b113, align 4
  %53 = load i32* %vidp1, align 4
  %cmp123 = icmp eq i32 %52, %53
  br i1 %cmp123, label %while.body124, label %while.end127

while.body124:                                    ; preds = %while.cond122
  %54 = load i32* %N, align 4
  %call126 = invoke i32 @_Z6myrandj(i32 %54)
          to label %invoke.cont125 unwind label %lpad

invoke.cont125:                                   ; preds = %while.body124
  store i32 %call126, i32* %b113, align 4
  br label %while.cond122

while.end127:                                     ; preds = %while.cond122
  %call129 = invoke %"class.std::basic_ostream"* @_ZStlsISt11char_traitsIcEERSt13basic_ostreamIcT_ES5_PKc(%"class.std::basic_ostream"* @_ZSt4cout, i8* getelementptr inbounds ([11 x i8]* @.str6, i32 0, i32 0))
          to label %invoke.cont128 unwind label %lpad

invoke.cont128:                                   ; preds = %while.end127
  %55 = load i32* %vid, align 4
  %call131 = invoke %"class.std::basic_ostream"* @_ZNSolsEj(%"class.std::basic_ostream"* %call129, i32 %55)
          to label %invoke.cont130 unwind label %lpad

invoke.cont130:                                   ; preds = %invoke.cont128
  %call133 = invoke %"class.std::basic_ostream"* @_ZStlsISt11char_traitsIcEERSt13basic_ostreamIcT_ES5_PKc(%"class.std::basic_ostream"* %call131, i8* getelementptr inbounds ([2 x i8]* @.str1, i32 0, i32 0))
          to label %invoke.cont132 unwind label %lpad

invoke.cont132:                                   ; preds = %invoke.cont130
  %56 = load i32* %a109, align 4
  %call135 = invoke %"class.std::basic_ostream"* @_ZNSolsEj(%"class.std::basic_ostream"* %call133, i32 %56)
          to label %invoke.cont134 unwind label %lpad

invoke.cont134:                                   ; preds = %invoke.cont132
  %call137 = invoke %"class.std::basic_ostream"* @_ZStlsISt11char_traitsIcEERSt13basic_ostreamIcT_ES5_PKc(%"class.std::basic_ostream"* %call135, i8* getelementptr inbounds ([2 x i8]* @.str2, i32 0, i32 0))
          to label %invoke.cont136 unwind label %lpad

invoke.cont136:                                   ; preds = %invoke.cont134
  %call139 = invoke %"class.std::basic_ostream"* @_ZNSolsEPFRSoS_E(%"class.std::basic_ostream"* %call137, %"class.std::basic_ostream"* (%"class.std::basic_ostream"*)* @_ZSt4endlIcSt11char_traitsIcEERSt13basic_ostreamIT_T0_ES6_)
          to label %invoke.cont138 unwind label %lpad

invoke.cont138:                                   ; preds = %invoke.cont136
  %call141 = invoke %"class.std::basic_ostream"* @_ZStlsISt11char_traitsIcEERSt13basic_ostreamIcT_ES5_PKc(%"class.std::basic_ostream"* @_ZSt4cout, i8* getelementptr inbounds ([11 x i8]* @.str6, i32 0, i32 0))
          to label %invoke.cont140 unwind label %lpad

invoke.cont140:                                   ; preds = %invoke.cont138
  %57 = load i32* %vid, align 4
  %call143 = invoke %"class.std::basic_ostream"* @_ZNSolsEj(%"class.std::basic_ostream"* %call141, i32 %57)
          to label %invoke.cont142 unwind label %lpad

invoke.cont142:                                   ; preds = %invoke.cont140
  %call145 = invoke %"class.std::basic_ostream"* @_ZStlsISt11char_traitsIcEERSt13basic_ostreamIcT_ES5_PKc(%"class.std::basic_ostream"* %call143, i8* getelementptr inbounds ([2 x i8]* @.str1, i32 0, i32 0))
          to label %invoke.cont144 unwind label %lpad

invoke.cont144:                                   ; preds = %invoke.cont142
  %58 = load i32* %vidp1, align 4
  %call147 = invoke %"class.std::basic_ostream"* @_ZNSolsEj(%"class.std::basic_ostream"* %call145, i32 %58)
          to label %invoke.cont146 unwind label %lpad

invoke.cont146:                                   ; preds = %invoke.cont144
  %call149 = invoke %"class.std::basic_ostream"* @_ZStlsISt11char_traitsIcEERSt13basic_ostreamIcT_ES5_PKc(%"class.std::basic_ostream"* %call147, i8* getelementptr inbounds ([2 x i8]* @.str2, i32 0, i32 0))
          to label %invoke.cont148 unwind label %lpad

invoke.cont148:                                   ; preds = %invoke.cont146
  %call151 = invoke %"class.std::basic_ostream"* @_ZNSolsEPFRSoS_E(%"class.std::basic_ostream"* %call149, %"class.std::basic_ostream"* (%"class.std::basic_ostream"*)* @_ZSt4endlIcSt11char_traitsIcEERSt13basic_ostreamIT_T0_ES6_)
          to label %invoke.cont150 unwind label %lpad

invoke.cont150:                                   ; preds = %invoke.cont148
  %59 = load i32* %vid, align 4
  %60 = load i32* %a109, align 4
  %61 = bitcast %"class.boost::adjacency_list"* %g to %"class.boost::vec_adj_list_impl"*
  invoke void @_ZN5boost8add_edgeINS_14adjacency_listINS_4vecSES2_NS_14bidirectionalSENS_8propertyINS_14vertex_color_tENS_18default_color_typeENS4_INS_17vertex_distance_tEiNS4_INS_15vertex_degree_tEiNS4_INS_18vertex_in_degree_tEiNS4_INS_19vertex_out_degree_tEiNS_11no_propertyEEEEEEEEEEENS4_INS_13edge_weight_tEiSB_EESB_NS_5listSEEENS_6detail12adj_list_genISK_S2_S2_S3_SG_SI_SB_SJ_E6configENS_40bidirectional_graph_helper_with_propertyISO_EEEESt4pairINT0_15edge_descriptorEbENSS_17vertex_descriptorESV_RNS_17vec_adj_list_implIT_SS_T1_EE(%"struct.std::pair"* sret %tmp152, i32 %59, i32 %60, %"class.boost::vec_adj_list_impl"* %61)
          to label %invoke.cont153 unwind label %lpad

invoke.cont153:                                   ; preds = %invoke.cont150
  %62 = load i32* %b113, align 4
  %63 = load i32* %vidp1, align 4
  %64 = bitcast %"class.boost::adjacency_list"* %g to %"class.boost::vec_adj_list_impl"*
  invoke void @_ZN5boost8add_edgeINS_14adjacency_listINS_4vecSES2_NS_14bidirectionalSENS_8propertyINS_14vertex_color_tENS_18default_color_typeENS4_INS_17vertex_distance_tEiNS4_INS_15vertex_degree_tEiNS4_INS_18vertex_in_degree_tEiNS4_INS_19vertex_out_degree_tEiNS_11no_propertyEEEEEEEEEEENS4_INS_13edge_weight_tEiSB_EESB_NS_5listSEEENS_6detail12adj_list_genISK_S2_S2_S3_SG_SI_SB_SJ_E6configENS_40bidirectional_graph_helper_with_propertyISO_EEEESt4pairINT0_15edge_descriptorEbENSS_17vertex_descriptorESV_RNS_17vec_adj_list_implIT_SS_T1_EE(%"struct.std::pair"* sret %tmp154, i32 %62, i32 %63, %"class.boost::vec_adj_list_impl"* %64)
          to label %invoke.cont155 unwind label %lpad

invoke.cont155:                                   ; preds = %invoke.cont153
  %65 = load i8* %is_failed, align 1
  %tobool156 = trunc i8 %65 to i1
  br i1 %tobool156, label %lor.end161, label %lor.rhs157

lor.rhs157:                                       ; preds = %invoke.cont155
  %66 = load i32* %vid, align 4
  %67 = load i32* %a109, align 4
  %call159 = invoke zeroext i1 @_Z10check_edgeIN5boost14adjacency_listINS0_4vecSES2_NS0_14bidirectionalSENS0_8propertyINS0_14vertex_color_tENS0_18default_color_typeENS4_INS0_17vertex_distance_tEiNS4_INS0_15vertex_degree_tEiNS4_INS0_18vertex_in_degree_tEiNS4_INS0_19vertex_out_degree_tEiNS0_11no_propertyEEEEEEEEEEENS4_INS0_13edge_weight_tEiSB_EESB_NS0_5listSEEEEbRT_jj(%"class.boost::adjacency_list"* %g, i32 %66, i32 %67)
          to label %invoke.cont158 unwind label %lpad

invoke.cont158:                                   ; preds = %lor.rhs157
  %lnot160 = xor i1 %call159, true
  br label %lor.end161

lor.end161:                                       ; preds = %invoke.cont158, %invoke.cont155
  %68 = phi i1 [ true, %invoke.cont155 ], [ %lnot160, %invoke.cont158 ]
  %frombool162 = zext i1 %68 to i8
  store i8 %frombool162, i8* %is_failed, align 1
  %69 = load i8* %is_failed, align 1
  %tobool163 = trunc i8 %69 to i1
  br i1 %tobool163, label %lor.end168, label %lor.rhs164

lor.rhs164:                                       ; preds = %lor.end161
  %70 = load i32* %b113, align 4
  %71 = load i32* %vidp1, align 4
  %call166 = invoke zeroext i1 @_Z10check_edgeIN5boost14adjacency_listINS0_4vecSES2_NS0_14bidirectionalSENS0_8propertyINS0_14vertex_color_tENS0_18default_color_typeENS4_INS0_17vertex_distance_tEiNS4_INS0_15vertex_degree_tEiNS4_INS0_18vertex_in_degree_tEiNS4_INS0_19vertex_out_degree_tEiNS0_11no_propertyEEEEEEEEEEENS4_INS0_13edge_weight_tEiSB_EESB_NS0_5listSEEEEbRT_jj(%"class.boost::adjacency_list"* %g, i32 %70, i32 %71)
          to label %invoke.cont165 unwind label %lpad

invoke.cont165:                                   ; preds = %lor.rhs164
  %lnot167 = xor i1 %call166, true
  br label %lor.end168

lor.end168:                                       ; preds = %invoke.cont165, %lor.end161
  %72 = phi i1 [ true, %lor.end161 ], [ %lnot167, %invoke.cont165 ]
  %frombool169 = zext i1 %72 to i8
  store i8 %frombool169, i8* %is_failed, align 1
  br label %for.inc170

for.inc170:                                       ; preds = %lor.end168
  %73 = load i32* %i, align 4
  %inc171 = add nsw i32 %73, 1
  store i32 %inc171, i32* %i, align 4
  br label %for.cond105

for.end172:                                       ; preds = %for.cond105
  %74 = load i8* %is_failed, align 1
  %tobool173 = trunc i8 %74 to i1
  br i1 %tobool173, label %if.then174, label %if.else179

if.then174:                                       ; preds = %for.end172
  %call176 = invoke %"class.std::basic_ostream"* @_ZStlsISt11char_traitsIcEERSt13basic_ostreamIcT_ES5_PKc(%"class.std::basic_ostream"* @_ZSt4cerr, i8* getelementptr inbounds ([12 x i8]* @.str3, i32 0, i32 0))
          to label %invoke.cont175 unwind label %lpad

invoke.cont175:                                   ; preds = %if.then174
  %call178 = invoke %"class.std::basic_ostream"* @_ZNSolsEPFRSoS_E(%"class.std::basic_ostream"* %call176, %"class.std::basic_ostream"* (%"class.std::basic_ostream"*)* @_ZSt4endlIcSt11char_traitsIcEERSt13basic_ostreamIT_T0_ES6_)
          to label %invoke.cont177 unwind label %lpad

invoke.cont177:                                   ; preds = %invoke.cont175
  br label %if.end184

if.else179:                                       ; preds = %for.end172
  %call181 = invoke %"class.std::basic_ostream"* @_ZStlsISt11char_traitsIcEERSt13basic_ostreamIcT_ES5_PKc(%"class.std::basic_ostream"* @_ZSt4cerr, i8* getelementptr inbounds ([19 x i8]* @.str4, i32 0, i32 0))
          to label %invoke.cont180 unwind label %lpad

invoke.cont180:                                   ; preds = %if.else179
  %call183 = invoke %"class.std::basic_ostream"* @_ZNSolsEPFRSoS_E(%"class.std::basic_ostream"* %call181, %"class.std::basic_ostream"* (%"class.std::basic_ostream"*)* @_ZSt4endlIcSt11char_traitsIcEERSt13basic_ostreamIT_T0_ES6_)
          to label %invoke.cont182 unwind label %lpad

invoke.cont182:                                   ; preds = %invoke.cont180
  br label %if.end184

if.end184:                                        ; preds = %invoke.cont182, %invoke.cont177
  invoke void @_Z5printIN5boost14adjacency_listINS0_4vecSES2_NS0_14bidirectionalSENS0_8propertyINS0_14vertex_color_tENS0_18default_color_typeENS4_INS0_17vertex_distance_tEiNS4_INS0_15vertex_degree_tEiNS4_INS0_18vertex_in_degree_tEiNS4_INS0_19vertex_out_degree_tEiNS0_11no_propertyEEEEEEEEEEENS4_INS0_13edge_weight_tEiSB_EESB_NS0_5listSEEEEvRT_(%"class.boost::adjacency_list"* %g)
          to label %invoke.cont185 unwind label %lpad

invoke.cont185:                                   ; preds = %if.end184
  %75 = load i32* %N, align 4
  %call188 = invoke i32 @_Z6myrandj(i32 %75)
          to label %invoke.cont187 unwind label %lpad

invoke.cont187:                                   ; preds = %invoke.cont185
  store i32 %call188, i32* %c, align 4
  store i8 0, i8* %is_failed, align 1
  %76 = load i32* %c, align 4
  %77 = bitcast %"class.boost::adjacency_list"* %g to %"struct.boost::bidirectional_graph_helper_with_property"*
  invoke void @_ZN5boost12clear_vertexINS_6detail12adj_list_genINS_14adjacency_listINS_4vecSES4_NS_14bidirectionalSENS_8propertyINS_14vertex_color_tENS_18default_color_typeENS6_INS_17vertex_distance_tEiNS6_INS_15vertex_degree_tEiNS6_INS_18vertex_in_degree_tEiNS6_INS_19vertex_out_degree_tEiNS_11no_propertyEEEEEEEEEEENS6_INS_13edge_weight_tEiSD_EESD_NS_5listSEEES4_S4_S5_SI_SK_SD_SL_E6configEEEvNT_17vertex_descriptorERNS_40bidirectional_graph_helper_with_propertyISP_EE(i32 %76, %"struct.boost::bidirectional_graph_helper_with_property"* %77)
          to label %invoke.cont189 unwind label %lpad

invoke.cont189:                                   ; preds = %invoke.cont187
  %78 = load i32* %c, align 4
  %79 = bitcast %"class.boost::adjacency_list"* %g to %"struct.boost::adj_list_helper"*
  %call191 = invoke i32 @_ZN5boost10out_degreeINS_6detail12adj_list_genINS_14adjacency_listINS_4vecSES4_NS_14bidirectionalSENS_8propertyINS_14vertex_color_tENS_18default_color_typeENS6_INS_17vertex_distance_tEiNS6_INS_15vertex_degree_tEiNS6_INS_18vertex_in_degree_tEiNS6_INS_19vertex_out_degree_tEiNS_11no_propertyEEEEEEEEEEENS6_INS_13edge_weight_tEiSD_EESD_NS_5listSEEES4_S4_S5_SI_SK_SD_SL_E6configENS_40bidirectional_graph_helper_with_propertyISO_EEEENT_16degree_size_typeENSR_17vertex_descriptorERKNS_15adj_list_helperISR_T0_EE(i32 %78, %"struct.boost::adj_list_helper"* %79)
          to label %invoke.cont190 unwind label %lpad

invoke.cont190:                                   ; preds = %invoke.cont189
  %cmp192 = icmp ne i32 %call191, 0
  br i1 %cmp192, label %if.then193, label %if.end194

if.then193:                                       ; preds = %invoke.cont190
  store i8 1, i8* %is_failed, align 1
  br label %if.end194

if.end194:                                        ; preds = %if.then193, %invoke.cont190
  %call196 = invoke %"class.std::basic_ostream"* @_ZStlsISt11char_traitsIcEERSt13basic_ostreamIcT_ES5_PKc(%"class.std::basic_ostream"* @_ZSt4cout, i8* getelementptr inbounds ([17 x i8]* @.str7, i32 0, i32 0))
          to label %invoke.cont195 unwind label %lpad

invoke.cont195:                                   ; preds = %if.end194
  %80 = load i32* %c, align 4
  %call198 = invoke %"class.std::basic_ostream"* @_ZNSolsEj(%"class.std::basic_ostream"* %call196, i32 %80)
          to label %invoke.cont197 unwind label %lpad

invoke.cont197:                                   ; preds = %invoke.cont195
  %call200 = invoke %"class.std::basic_ostream"* @_ZNSolsEPFRSoS_E(%"class.std::basic_ostream"* %call198, %"class.std::basic_ostream"* (%"class.std::basic_ostream"*)* @_ZSt4endlIcSt11char_traitsIcEERSt13basic_ostreamIT_T0_ES6_)
          to label %invoke.cont199 unwind label %lpad

invoke.cont199:                                   ; preds = %invoke.cont197
  %81 = load i32* %c, align 4
  %82 = bitcast %"class.boost::adjacency_list"* %g to %"class.boost::vec_adj_list_impl"*
  invoke void @_ZN5boost13remove_vertexINS_14adjacency_listINS_4vecSES2_NS_14bidirectionalSENS_8propertyINS_14vertex_color_tENS_18default_color_typeENS4_INS_17vertex_distance_tEiNS4_INS_15vertex_degree_tEiNS4_INS_18vertex_in_degree_tEiNS4_INS_19vertex_out_degree_tEiNS_11no_propertyEEEEEEEEEEENS4_INS_13edge_weight_tEiSB_EESB_NS_5listSEEENS_6detail12adj_list_genISK_S2_S2_S3_SG_SI_SB_SJ_E6configENS_40bidirectional_graph_helper_with_propertyISO_EEEEvNT0_17vertex_descriptorERNS_17vec_adj_list_implIT_SR_T1_EE(i32 %81, %"class.boost::vec_adj_list_impl"* %82)
          to label %invoke.cont201 unwind label %lpad

invoke.cont201:                                   ; preds = %invoke.cont199
  %83 = load i32* %N, align 4
  store i32 %83, i32* %old_N, align 4
  %84 = bitcast %"class.boost::adjacency_list"* %g to %"struct.boost::adj_list_helper"*
  %call203 = invoke i32 @_ZN5boost12num_verticesINS_6detail12adj_list_genINS_14adjacency_listINS_4vecSES4_NS_14bidirectionalSENS_8propertyINS_14vertex_color_tENS_18default_color_typeENS6_INS_17vertex_distance_tEiNS6_INS_15vertex_degree_tEiNS6_INS_18vertex_in_degree_tEiNS6_INS_19vertex_out_degree_tEiNS_11no_propertyEEEEEEEEEEENS6_INS_13edge_weight_tEiSD_EESD_NS_5listSEEES4_S4_S5_SI_SK_SD_SL_E6configENS_40bidirectional_graph_helper_with_propertyISO_EEEENT_18vertices_size_typeERKNS_15adj_list_helperISR_T0_EE(%"struct.boost::adj_list_helper"* %84)
          to label %invoke.cont202 unwind label %lpad

invoke.cont202:                                   ; preds = %invoke.cont201
  store i32 %call203, i32* %N, align 4
  %85 = load i32* %N, align 4
  %add = add i32 %85, 1
  %86 = load i32* %old_N, align 4
  %cmp204 = icmp ne i32 %add, %86
  br i1 %cmp204, label %if.then205, label %if.end206

if.then205:                                       ; preds = %invoke.cont202
  store i8 1, i8* %is_failed, align 1
  br label %if.end206

if.end206:                                        ; preds = %if.then205, %invoke.cont202
  %87 = load i8* %is_failed, align 1
  %tobool207 = trunc i8 %87 to i1
  br i1 %tobool207, label %if.then208, label %if.else213

if.then208:                                       ; preds = %if.end206
  %call210 = invoke %"class.std::basic_ostream"* @_ZStlsISt11char_traitsIcEERSt13basic_ostreamIcT_ES5_PKc(%"class.std::basic_ostream"* @_ZSt4cerr, i8* getelementptr inbounds ([12 x i8]* @.str3, i32 0, i32 0))
          to label %invoke.cont209 unwind label %lpad

invoke.cont209:                                   ; preds = %if.then208
  %call212 = invoke %"class.std::basic_ostream"* @_ZNSolsEPFRSoS_E(%"class.std::basic_ostream"* %call210, %"class.std::basic_ostream"* (%"class.std::basic_ostream"*)* @_ZSt4endlIcSt11char_traitsIcEERSt13basic_ostreamIT_T0_ES6_)
          to label %invoke.cont211 unwind label %lpad

invoke.cont211:                                   ; preds = %invoke.cont209
  br label %if.end218

if.else213:                                       ; preds = %if.end206
  %call215 = invoke %"class.std::basic_ostream"* @_ZStlsISt11char_traitsIcEERSt13basic_ostreamIcT_ES5_PKc(%"class.std::basic_ostream"* @_ZSt4cerr, i8* getelementptr inbounds ([19 x i8]* @.str4, i32 0, i32 0))
          to label %invoke.cont214 unwind label %lpad

invoke.cont214:                                   ; preds = %if.else213
  %call217 = invoke %"class.std::basic_ostream"* @_ZNSolsEPFRSoS_E(%"class.std::basic_ostream"* %call215, %"class.std::basic_ostream"* (%"class.std::basic_ostream"*)* @_ZSt4endlIcSt11char_traitsIcEERSt13basic_ostreamIT_T0_ES6_)
          to label %invoke.cont216 unwind label %lpad

invoke.cont216:                                   ; preds = %invoke.cont214
  br label %if.end218

if.end218:                                        ; preds = %invoke.cont216, %invoke.cont211
  invoke void @_Z5printIN5boost14adjacency_listINS0_4vecSES2_NS0_14bidirectionalSENS0_8propertyINS0_14vertex_color_tENS0_18default_color_typeENS4_INS0_17vertex_distance_tEiNS4_INS0_15vertex_degree_tEiNS4_INS0_18vertex_in_degree_tEiNS4_INS0_19vertex_out_degree_tEiNS0_11no_propertyEEEEEEEEEEENS4_INS0_13edge_weight_tEiSB_EESB_NS0_5listSEEEEvRT_(%"class.boost::adjacency_list"* %g)
          to label %invoke.cont219 unwind label %lpad

invoke.cont219:                                   ; preds = %if.end218
  store i32 0, i32* %retval
  store i32 1, i32* %cleanup.dest.slot
  call void @_ZN5boost14adjacency_listINS_4vecSES1_NS_14bidirectionalSENS_8propertyINS_14vertex_color_tENS_18default_color_typeENS3_INS_17vertex_distance_tEiNS3_INS_15vertex_degree_tEiNS3_INS_18vertex_in_degree_tEiNS3_INS_19vertex_out_degree_tEiNS_11no_propertyEEEEEEEEEEENS3_INS_13edge_weight_tEiSA_EESA_NS_5listSEED1Ev(%"class.boost::adjacency_list"* %g)
  %88 = load i32* %retval
  ret i32 %88

invoke.cont220:                                   ; preds = %lpad
  br label %eh.resume

eh.resume:                                        ; preds = %invoke.cont220
  %exn = load i8** %exn.slot
  %sel = load i32* %ehselector.slot
  %lpad.val = insertvalue { i8*, i32 } undef, i8* %exn, 0
  %lpad.val221 = insertvalue { i8*, i32 } %lpad.val, i32 %sel, 1
  resume { i8*, i32 } %lpad.val221

terminate.lpad:                                   ; preds = %lpad
  %89 = landingpad { i8*, i32 } personality i8* bitcast (i32 (...)* @__gxx_personality_v0 to i8*)
          catch i8* null
  call void @_ZSt9terminatev() noreturn nounwind
  unreachable
}

define linkonce_odr void @_ZN5boost14adjacency_listINS_4vecSES1_NS_14bidirectionalSENS_8propertyINS_14vertex_color_tENS_18default_color_typeENS3_INS_17vertex_distance_tEiNS3_INS_15vertex_degree_tEiNS3_INS_18vertex_in_degree_tEiNS3_INS_19vertex_out_degree_tEiNS_11no_propertyEEEEEEEEEEENS3_INS_13edge_weight_tEiSA_EESA_NS_5listSEEC1EjRKSA_(%"class.boost::adjacency_list"* %this, i32 %num_vertices, %"struct.boost::no_property"* %p) unnamed_addr align 2 {
entry:
  %this.addr = alloca %"class.boost::adjacency_list"*, align 4
  %num_vertices.addr = alloca i32, align 4
  %p.addr = alloca %"struct.boost::no_property"*, align 4
  store %"class.boost::adjacency_list"* %this, %"class.boost::adjacency_list"** %this.addr, align 4
  store i32 %num_vertices, i32* %num_vertices.addr, align 4
  store %"struct.boost::no_property"* %p, %"struct.boost::no_property"** %p.addr, align 4
  %this1 = load %"class.boost::adjacency_list"** %this.addr
  %0 = load i32* %num_vertices.addr, align 4
  %1 = load %"struct.boost::no_property"** %p.addr
  call void @_ZN5boost14adjacency_listINS_4vecSES1_NS_14bidirectionalSENS_8propertyINS_14vertex_color_tENS_18default_color_typeENS3_INS_17vertex_distance_tEiNS3_INS_15vertex_degree_tEiNS3_INS_18vertex_in_degree_tEiNS3_INS_19vertex_out_degree_tEiNS_11no_propertyEEEEEEEEEEENS3_INS_13edge_weight_tEiSA_EESA_NS_5listSEEC2EjRKSA_(%"class.boost::adjacency_list"* %this1, i32 %0, %"struct.boost::no_property"* %1)
  ret void
}

declare i32 @__gxx_personality_v0(...)

declare %"class.std::basic_ostream"* @_ZStlsISt11char_traitsIcEERSt13basic_ostreamIcT_ES5_PKc(%"class.std::basic_ostream"*, i8*)

declare %"class.std::basic_ostream"* @_ZNSolsEj(%"class.std::basic_ostream"*, i32)

declare %"class.std::basic_ostream"* @_ZNSolsEPFRSoS_E(%"class.std::basic_ostream"*, %"class.std::basic_ostream"* (%"class.std::basic_ostream"*)*)

declare %"class.std::basic_ostream"* @_ZSt4endlIcSt11char_traitsIcEERSt13basic_ostreamIT_T0_ES6_(%"class.std::basic_ostream"*)

define linkonce_odr void @_ZN5boost8add_edgeINS_14adjacency_listINS_4vecSES2_NS_14bidirectionalSENS_8propertyINS_14vertex_color_tENS_18default_color_typeENS4_INS_17vertex_distance_tEiNS4_INS_15vertex_degree_tEiNS4_INS_18vertex_in_degree_tEiNS4_INS_19vertex_out_degree_tEiNS_11no_propertyEEEEEEEEEEENS4_INS_13edge_weight_tEiSB_EESB_NS_5listSEEENS_6detail12adj_list_genISK_S2_S2_S3_SG_SI_SB_SJ_E6configENS_40bidirectional_graph_helper_with_propertyISO_EEEESt4pairINT0_15edge_descriptorEbENSS_17vertex_descriptorESV_RNS_17vec_adj_list_implIT_SS_T1_EE(%"struct.std::pair"* noalias sret %agg.result, i32 %u, i32 %v, %"class.boost::vec_adj_list_impl"* %g_) inlinehint {
entry:
  %u.addr = alloca i32, align 4
  %v.addr = alloca i32, align 4
  %g_.addr = alloca %"class.boost::vec_adj_list_impl"*, align 4
  %p = alloca %"struct.boost::property.13", align 4
  %ref.tmp = alloca i32, align 4
  store i32 %u, i32* %u.addr, align 4
  store i32 %v, i32* %v.addr, align 4
  store %"class.boost::vec_adj_list_impl"* %g_, %"class.boost::vec_adj_list_impl"** %g_.addr, align 4
  store i32 0, i32* %ref.tmp, align 4
  call void @_ZN5boost8propertyINS_13edge_weight_tEiNS_11no_propertyEEC1ERKi(%"struct.boost::property.13"* %p, i32* %ref.tmp)
  %0 = load i32* %u.addr, align 4
  %1 = load i32* %v.addr, align 4
  %2 = load %"class.boost::vec_adj_list_impl"** %g_.addr, align 4
  call void @_ZN5boost8add_edgeINS_14adjacency_listINS_4vecSES2_NS_14bidirectionalSENS_8propertyINS_14vertex_color_tENS_18default_color_typeENS4_INS_17vertex_distance_tEiNS4_INS_15vertex_degree_tEiNS4_INS_18vertex_in_degree_tEiNS4_INS_19vertex_out_degree_tEiNS_11no_propertyEEEEEEEEEEENS4_INS_13edge_weight_tEiSB_EESB_NS_5listSEEENS_6detail12adj_list_genISK_S2_S2_S3_SG_SI_SB_SJ_E6configENS_40bidirectional_graph_helper_with_propertyISO_EEEESt4pairINT0_15edge_descriptorEbENSS_17vertex_descriptorESV_RKNSS_18edge_property_typeERNS_17vec_adj_list_implIT_SS_T1_EE(%"struct.std::pair"* sret %agg.result, i32 %0, i32 %1, %"struct.boost::property.13"* %p, %"class.boost::vec_adj_list_impl"* %2)
  ret void
}

define linkonce_odr zeroext i1 @_Z10check_edgeIN5boost14adjacency_listINS0_4vecSES2_NS0_14bidirectionalSENS0_8propertyINS0_14vertex_color_tENS0_18default_color_typeENS4_INS0_17vertex_distance_tEiNS4_INS0_15vertex_degree_tEiNS4_INS0_18vertex_in_degree_tEiNS4_INS0_19vertex_out_degree_tEiNS0_11no_propertyEEEEEEEEEEENS4_INS0_13edge_weight_tEiSB_EESB_NS0_5listSEEEEbRT_jj(%"class.boost::adjacency_list"* %g, i32 %a, i32 %b) {
entry:
  %retval = alloca i1, align 1
  %g.addr = alloca %"class.boost::adjacency_list"*, align 4
  %a.addr = alloca i32, align 4
  %b.addr = alloca i32, align 4
  %vi = alloca %"struct.boost::adjacency_iterator", align 4
  %viend = alloca %"struct.boost::adjacency_iterator", align 4
  %found = alloca %"struct.boost::adjacency_iterator", align 4
  %tmp = alloca %"class.boost::tuples::tuple.29", align 4
  %ref.tmp = alloca %"struct.std::pair.32", align 4
  %ref.tmp2 = alloca %"struct.boost::adjacency_iterator", align 4
  %agg.tmp = alloca %"struct.boost::adjacency_iterator", align 4
  %agg.tmp3 = alloca %"struct.boost::adjacency_iterator", align 4
  %ref.tmp5 = alloca i32, align 4
  store %"class.boost::adjacency_list"* %g, %"class.boost::adjacency_list"** %g.addr, align 4
  store i32 %a, i32* %a.addr, align 4
  store i32 %b, i32* %b.addr, align 4
  call void @_ZN5boost18adjacency_iteratorINS_14adjacency_listINS_4vecSES2_NS_14bidirectionalSENS_8propertyINS_14vertex_color_tENS_18default_color_typeENS4_INS_17vertex_distance_tEiNS4_INS_15vertex_degree_tEiNS4_INS_18vertex_in_degree_tEiNS4_INS_19vertex_out_degree_tEiNS_11no_propertyEEEEEEEEEEENS4_INS_13edge_weight_tEiSB_EESB_NS_5listSEEEjNS_6detail13out_edge_iterIN9__gnu_cxx17__normal_iteratorIPNSL_16stored_edge_iterIjSt14_List_iteratorINS_9list_edgeIjSI_EEESI_EESt6vectorISU_SaISU_EEEEjNSL_14edge_desc_implINS_17bidirectional_tagEjEEiEEiEC1Ev(%"struct.boost::adjacency_iterator"* %vi)
  call void @_ZN5boost18adjacency_iteratorINS_14adjacency_listINS_4vecSES2_NS_14bidirectionalSENS_8propertyINS_14vertex_color_tENS_18default_color_typeENS4_INS_17vertex_distance_tEiNS4_INS_15vertex_degree_tEiNS4_INS_18vertex_in_degree_tEiNS4_INS_19vertex_out_degree_tEiNS_11no_propertyEEEEEEEEEEENS4_INS_13edge_weight_tEiSB_EESB_NS_5listSEEEjNS_6detail13out_edge_iterIN9__gnu_cxx17__normal_iteratorIPNSL_16stored_edge_iterIjSt14_List_iteratorINS_9list_edgeIjSI_EEESI_EESt6vectorISU_SaISU_EEEEjNSL_14edge_desc_implINS_17bidirectional_tagEjEEiEEiEC1Ev(%"struct.boost::adjacency_iterator"* %viend)
  call void @_ZN5boost18adjacency_iteratorINS_14adjacency_listINS_4vecSES2_NS_14bidirectionalSENS_8propertyINS_14vertex_color_tENS_18default_color_typeENS4_INS_17vertex_distance_tEiNS4_INS_15vertex_degree_tEiNS4_INS_18vertex_in_degree_tEiNS4_INS_19vertex_out_degree_tEiNS_11no_propertyEEEEEEEEEEENS4_INS_13edge_weight_tEiSB_EESB_NS_5listSEEEjNS_6detail13out_edge_iterIN9__gnu_cxx17__normal_iteratorIPNSL_16stored_edge_iterIjSt14_List_iteratorINS_9list_edgeIjSI_EEESI_EESt6vectorISU_SaISU_EEEEjNSL_14edge_desc_implINS_17bidirectional_tagEjEEiEEiEC1Ev(%"struct.boost::adjacency_iterator"* %found)
  call void @_ZN5boost6tuples3tieINS_18adjacency_iteratorINS_14adjacency_listINS_4vecSES4_NS_14bidirectionalSENS_8propertyINS_14vertex_color_tENS_18default_color_typeENS6_INS_17vertex_distance_tEiNS6_INS_15vertex_degree_tEiNS6_INS_18vertex_in_degree_tEiNS6_INS_19vertex_out_degree_tEiNS_11no_propertyEEEEEEEEEEENS6_INS_13edge_weight_tEiSD_EESD_NS_5listSEEEjNS_6detail13out_edge_iterIN9__gnu_cxx17__normal_iteratorIPNSN_16stored_edge_iterIjSt14_List_iteratorINS_9list_edgeIjSK_EEESK_EESt6vectorISW_SaISW_EEEEjNSN_14edge_desc_implINS_17bidirectional_tagEjEEiEEiEES16_EENS0_6detail10tie_mapperIT_T0_vvvvvvvvE4typeERS19_RS1A_(%"class.boost::tuples::tuple.29"* sret %tmp, %"struct.boost::adjacency_iterator"* %vi, %"struct.boost::adjacency_iterator"* %viend)
  %0 = load i32* %a.addr, align 4
  %1 = load %"class.boost::adjacency_list"** %g.addr, align 4
  %2 = bitcast %"class.boost::adjacency_list"* %1 to %"class.boost::vec_adj_list_impl"*
  %call = call i32 @_ZN5boost6vertexINS_14adjacency_listINS_4vecSES2_NS_14bidirectionalSENS_8propertyINS_14vertex_color_tENS_18default_color_typeENS4_INS_17vertex_distance_tEiNS4_INS_15vertex_degree_tEiNS4_INS_18vertex_in_degree_tEiNS4_INS_19vertex_out_degree_tEiNS_11no_propertyEEEEEEEEEEENS4_INS_13edge_weight_tEiSB_EESB_NS_5listSEEENS_6detail12adj_list_genISK_S2_S2_S3_SG_SI_SB_SJ_E6configENS_40bidirectional_graph_helper_with_propertyISO_EEEENT0_17vertex_descriptorENSR_18vertices_size_typeERKNS_17vec_adj_list_implIT_SR_T1_EE(i32 %0, %"class.boost::vec_adj_list_impl"* %2)
  %3 = load %"class.boost::adjacency_list"** %g.addr, align 4
  %4 = bitcast %"class.boost::adjacency_list"* %3 to %"struct.boost::adj_list_helper"*
  call void @_ZN5boost17adjacent_verticesINS_6detail12adj_list_genINS_14adjacency_listINS_4vecSES4_NS_14bidirectionalSENS_8propertyINS_14vertex_color_tENS_18default_color_typeENS6_INS_17vertex_distance_tEiNS6_INS_15vertex_degree_tEiNS6_INS_18vertex_in_degree_tEiNS6_INS_19vertex_out_degree_tEiNS_11no_propertyEEEEEEEEEEENS6_INS_13edge_weight_tEiSD_EESD_NS_5listSEEES4_S4_S5_SI_SK_SD_SL_E6configENS_40bidirectional_graph_helper_with_propertyISO_EEEESt4pairINT_18adjacency_iteratorEST_ENSS_17vertex_descriptorERKNS_15adj_list_helperISS_T0_EE(%"struct.std::pair.32"* sret %ref.tmp, i32 %call, %"struct.boost::adj_list_helper"* %4)
  %call1 = call %"class.boost::tuples::tuple.29"* @_ZN5boost6tuples5tupleIRNS_18adjacency_iteratorINS_14adjacency_listINS_4vecSES4_NS_14bidirectionalSENS_8propertyINS_14vertex_color_tENS_18default_color_typeENS6_INS_17vertex_distance_tEiNS6_INS_15vertex_degree_tEiNS6_INS_18vertex_in_degree_tEiNS6_INS_19vertex_out_degree_tEiNS_11no_propertyEEEEEEEEEEENS6_INS_13edge_weight_tEiSD_EESD_NS_5listSEEEjNS_6detail13out_edge_iterIN9__gnu_cxx17__normal_iteratorIPNSN_16stored_edge_iterIjSt14_List_iteratorINS_9list_edgeIjSK_EEESK_EESt6vectorISW_SaISW_EEEEjNSN_14edge_desc_implINS_17bidirectional_tagEjEEiEEiEES17_NS0_9null_typeES18_S18_S18_S18_S18_S18_S18_EaSIS16_S16_EERS19_RKSt4pairIT_T0_E(%"class.boost::tuples::tuple.29"* %tmp, %"struct.std::pair.32"* %ref.tmp)
  %5 = bitcast %"struct.boost::adjacency_iterator"* %agg.tmp to i8*
  %6 = bitcast %"struct.boost::adjacency_iterator"* %vi to i8*
  call void @llvm.memcpy.p0i8.p0i8.i32(i8* %5, i8* %6, i32 12, i32 4, i1 false)
  %7 = bitcast %"struct.boost::adjacency_iterator"* %agg.tmp3 to i8*
  %8 = bitcast %"struct.boost::adjacency_iterator"* %viend to i8*
  call void @llvm.memcpy.p0i8.p0i8.i32(i8* %7, i8* %8, i32 12, i32 4, i1 false)
  %9 = load i32* %b.addr, align 4
  %10 = load %"class.boost::adjacency_list"** %g.addr, align 4
  %11 = bitcast %"class.boost::adjacency_list"* %10 to %"class.boost::vec_adj_list_impl"*
  %call4 = call i32 @_ZN5boost6vertexINS_14adjacency_listINS_4vecSES2_NS_14bidirectionalSENS_8propertyINS_14vertex_color_tENS_18default_color_typeENS4_INS_17vertex_distance_tEiNS4_INS_15vertex_degree_tEiNS4_INS_18vertex_in_degree_tEiNS4_INS_19vertex_out_degree_tEiNS_11no_propertyEEEEEEEEEEENS4_INS_13edge_weight_tEiSB_EESB_NS_5listSEEENS_6detail12adj_list_genISK_S2_S2_S3_SG_SI_SB_SJ_E6configENS_40bidirectional_graph_helper_with_propertyISO_EEEENT0_17vertex_descriptorENSR_18vertices_size_typeERKNS_17vec_adj_list_implIT_SR_T1_EE(i32 %9, %"class.boost::vec_adj_list_impl"* %11)
  store i32 %call4, i32* %ref.tmp5, align 4
  call void @_ZSt4findIN5boost18adjacency_iteratorINS0_14adjacency_listINS0_4vecSES3_NS0_14bidirectionalSENS0_8propertyINS0_14vertex_color_tENS0_18default_color_typeENS5_INS0_17vertex_distance_tEiNS5_INS0_15vertex_degree_tEiNS5_INS0_18vertex_in_degree_tEiNS5_INS0_19vertex_out_degree_tEiNS0_11no_propertyEEEEEEEEEEENS5_INS0_13edge_weight_tEiSC_EESC_NS0_5listSEEEjNS0_6detail13out_edge_iterIN9__gnu_cxx17__normal_iteratorIPNSM_16stored_edge_iterIjSt14_List_iteratorINS0_9list_edgeIjSJ_EEESJ_EESt6vectorISV_SaISV_EEEEjNSM_14edge_desc_implINS0_17bidirectional_tagEjEEiEEiEEjET_S16_S16_RKT0_(%"struct.boost::adjacency_iterator"* sret %ref.tmp2, %"struct.boost::adjacency_iterator"* byval align 4 %agg.tmp, %"struct.boost::adjacency_iterator"* byval align 4 %agg.tmp3, i32* %ref.tmp5)
  %12 = bitcast %"struct.boost::adjacency_iterator"* %found to i8*
  %13 = bitcast %"struct.boost::adjacency_iterator"* %ref.tmp2 to i8*
  call void @llvm.memcpy.p0i8.p0i8.i32(i8* %12, i8* %13, i32 12, i32 4, i1 false)
  %14 = bitcast %"struct.boost::adjacency_iterator"* %found to %"class.boost::iterator_facade.28"*
  %15 = bitcast %"struct.boost::adjacency_iterator"* %viend to %"class.boost::iterator_facade.28"*
  %call6 = call zeroext i1 @_ZN5boosteqINS_18adjacency_iteratorINS_14adjacency_listINS_4vecSES3_NS_14bidirectionalSENS_8propertyINS_14vertex_color_tENS_18default_color_typeENS5_INS_17vertex_distance_tEiNS5_INS_15vertex_degree_tEiNS5_INS_18vertex_in_degree_tEiNS5_INS_19vertex_out_degree_tEiNS_11no_propertyEEEEEEEEEEENS5_INS_13edge_weight_tEiSC_EESC_NS_5listSEEEjNS_6detail13out_edge_iterIN9__gnu_cxx17__normal_iteratorIPNSM_16stored_edge_iterIjSt14_List_iteratorINS_9list_edgeIjSJ_EEESJ_EESt6vectorISV_SaISV_EEEEjNSM_14edge_desc_implINS_17bidirectional_tagEjEEiEEiEEjNSM_32iterator_category_with_traversalISt18input_iterator_tagNS_27random_access_traversal_tagEEEjiS15_jS19_jiEENSM_23enable_if_interoperableIT_T4_NS_3mpl6apply2INSM_12always_bool2ES1B_S1C_E4typeEE4typeERKNS_15iterator_facadeIS1B_T0_T1_T2_T3_EERKNS1K_IS1C_T5_T6_T7_T8_EE(%"class.boost::iterator_facade.28"* %14, %"class.boost::iterator_facade.28"* %15)
  br i1 %call6, label %if.then, label %if.end

if.then:                                          ; preds = %entry
  store i1 false, i1* %retval
  br label %return

if.end:                                           ; preds = %entry
  store i1 true, i1* %retval
  br label %return

return:                                           ; preds = %if.end, %if.then
  %16 = load i1* %retval
  ret i1 %16
}

define linkonce_odr void @_Z5printIN5boost14adjacency_listINS0_4vecSES2_NS0_14bidirectionalSENS0_8propertyINS0_14vertex_color_tENS0_18default_color_typeENS4_INS0_17vertex_distance_tEiNS4_INS0_15vertex_degree_tEiNS4_INS0_18vertex_in_degree_tEiNS4_INS0_19vertex_out_degree_tEiNS0_11no_propertyEEEEEEEEEEENS4_INS0_13edge_weight_tEiSB_EESB_NS0_5listSEEEEvRT_(%"class.boost::adjacency_list"* %g) {
entry:
  %g.addr = alloca %"class.boost::adjacency_list"*, align 4
  %i = alloca %"class.boost::range_detail::integer_iterator", align 4
  %end = alloca %"class.boost::range_detail::integer_iterator", align 4
  %ei = alloca %"struct.boost::detail::out_edge_iter", align 4
  %edge_end = alloca %"struct.boost::detail::out_edge_iter", align 4
  %tmp = alloca %"class.boost::tuples::tuple", align 4
  %ref.tmp = alloca %"struct.std::pair.21", align 4
  %tmp5 = alloca %"class.boost::tuples::tuple.22", align 4
  %ref.tmp6 = alloca %"struct.std::pair.25", align 4
  %ref.tmp12 = alloca %"class.boost::detail::edge_desc_impl", align 4
  store %"class.boost::adjacency_list"* %g, %"class.boost::adjacency_list"** %g.addr, align 4
  call void @_ZN5boost12range_detail16integer_iteratorIjEC1Ev(%"class.boost::range_detail::integer_iterator"* %i)
  call void @_ZN5boost12range_detail16integer_iteratorIjEC1Ev(%"class.boost::range_detail::integer_iterator"* %end)
  call void @_ZN5boost6detail13out_edge_iterIN9__gnu_cxx17__normal_iteratorIPNS0_16stored_edge_iterIjSt14_List_iteratorINS_9list_edgeIjNS_8propertyINS_13edge_weight_tEiNS_11no_propertyEEEEEESA_EESt6vectorISD_SaISD_EEEEjNS0_14edge_desc_implINS_17bidirectional_tagEjEEiEC1Ev(%"struct.boost::detail::out_edge_iter"* %ei)
  call void @_ZN5boost6detail13out_edge_iterIN9__gnu_cxx17__normal_iteratorIPNS0_16stored_edge_iterIjSt14_List_iteratorINS_9list_edgeIjNS_8propertyINS_13edge_weight_tEiNS_11no_propertyEEEEEESA_EESt6vectorISD_SaISD_EEEEjNS0_14edge_desc_implINS_17bidirectional_tagEjEEiEC1Ev(%"struct.boost::detail::out_edge_iter"* %edge_end)
  call void @_ZN5boost6tuples3tieINS_12range_detail16integer_iteratorIjEES4_EENS0_6detail10tie_mapperIT_T0_vvvvvvvvE4typeERS7_RS8_(%"class.boost::tuples::tuple"* sret %tmp, %"class.boost::range_detail::integer_iterator"* %i, %"class.boost::range_detail::integer_iterator"* %end)
  %0 = load %"class.boost::adjacency_list"** %g.addr, align 4
  %1 = bitcast %"class.boost::adjacency_list"* %0 to %"struct.boost::adj_list_helper"*
  call void @_ZN5boost8verticesINS_6detail12adj_list_genINS_14adjacency_listINS_4vecSES4_NS_14bidirectionalSENS_8propertyINS_14vertex_color_tENS_18default_color_typeENS6_INS_17vertex_distance_tEiNS6_INS_15vertex_degree_tEiNS6_INS_18vertex_in_degree_tEiNS6_INS_19vertex_out_degree_tEiNS_11no_propertyEEEEEEEEEEENS6_INS_13edge_weight_tEiSD_EESD_NS_5listSEEES4_S4_S5_SI_SK_SD_SL_E6configENS_40bidirectional_graph_helper_with_propertyISO_EEEESt4pairINT_15vertex_iteratorEST_ERKNS_15adj_list_helperISS_T0_EE(%"struct.std::pair.21"* sret %ref.tmp, %"struct.boost::adj_list_helper"* %1)
  %call = call %"class.boost::tuples::tuple"* @_ZN5boost6tuples5tupleIRNS_12range_detail16integer_iteratorIjEES5_NS0_9null_typeES6_S6_S6_S6_S6_S6_S6_EaSIS4_S4_EERS7_RKSt4pairIT_T0_E(%"class.boost::tuples::tuple"* %tmp, %"struct.std::pair.21"* %ref.tmp)
  br label %for.cond

for.cond:                                         ; preds = %for.inc18, %entry
  %2 = bitcast %"class.boost::range_detail::integer_iterator"* %i to %"class.boost::iterator_facade"*
  %3 = bitcast %"class.boost::range_detail::integer_iterator"* %end to %"class.boost::iterator_facade"*
  %call1 = call zeroext i1 @_ZN5boostneINS_12range_detail16integer_iteratorIjEEjNS_27random_access_traversal_tagEjiS3_jS4_jiEENS_6detail23enable_if_interoperableIT_T4_NS_3mpl6apply2INS5_12always_bool2ES7_S8_E4typeEE4typeERKNS_15iterator_facadeIS7_T0_T1_T2_T3_EERKNSG_IS8_T5_T6_T7_T8_EE(%"class.boost::iterator_facade"* %2, %"class.boost::iterator_facade"* %3)
  br i1 %call1, label %for.body, label %for.end20

for.body:                                         ; preds = %for.cond
  %4 = bitcast %"class.boost::range_detail::integer_iterator"* %i to %"class.boost::iterator_facade"*
  %call2 = call i32 @_ZNK5boost15iterator_facadeINS_12range_detail16integer_iteratorIjEEjNS_27random_access_traversal_tagEjiEdeEv(%"class.boost::iterator_facade"* %4)
  %call3 = call %"class.std::basic_ostream"* @_ZNSolsEj(%"class.std::basic_ostream"* @_ZSt4cout, i32 %call2)
  %call4 = call %"class.std::basic_ostream"* @_ZStlsISt11char_traitsIcEERSt13basic_ostreamIcT_ES5_PKc(%"class.std::basic_ostream"* %call3, i8* getelementptr inbounds ([6 x i8]* @.str9, i32 0, i32 0))
  call void @_ZN5boost6tuples3tieINS_6detail13out_edge_iterIN9__gnu_cxx17__normal_iteratorIPNS2_16stored_edge_iterIjSt14_List_iteratorINS_9list_edgeIjNS_8propertyINS_13edge_weight_tEiNS_11no_propertyEEEEEESC_EESt6vectorISF_SaISF_EEEEjNS2_14edge_desc_implINS_17bidirectional_tagEjEEiEESO_EENS0_6detail10tie_mapperIT_T0_vvvvvvvvE4typeERSR_RSS_(%"class.boost::tuples::tuple.22"* sret %tmp5, %"struct.boost::detail::out_edge_iter"* %ei, %"struct.boost::detail::out_edge_iter"* %edge_end)
  %5 = bitcast %"class.boost::range_detail::integer_iterator"* %i to %"class.boost::iterator_facade"*
  %call7 = call i32 @_ZNK5boost15iterator_facadeINS_12range_detail16integer_iteratorIjEEjNS_27random_access_traversal_tagEjiEdeEv(%"class.boost::iterator_facade"* %5)
  %6 = load %"class.boost::adjacency_list"** %g.addr, align 4
  %7 = bitcast %"class.boost::adjacency_list"* %6 to %"struct.boost::adj_list_helper"*
  call void @_ZN5boost9out_edgesINS_6detail12adj_list_genINS_14adjacency_listINS_4vecSES4_NS_14bidirectionalSENS_8propertyINS_14vertex_color_tENS_18default_color_typeENS6_INS_17vertex_distance_tEiNS6_INS_15vertex_degree_tEiNS6_INS_18vertex_in_degree_tEiNS6_INS_19vertex_out_degree_tEiNS_11no_propertyEEEEEEEEEEENS6_INS_13edge_weight_tEiSD_EESD_NS_5listSEEES4_S4_S5_SI_SK_SD_SL_E6configENS_40bidirectional_graph_helper_with_propertyISO_EEEESt4pairINT_17out_edge_iteratorEST_ENSS_17vertex_descriptorERKNS_15adj_list_helperISS_T0_EE(%"struct.std::pair.25"* sret %ref.tmp6, i32 %call7, %"struct.boost::adj_list_helper"* %7)
  %call8 = call %"class.boost::tuples::tuple.22"* @_ZN5boost6tuples5tupleIRNS_6detail13out_edge_iterIN9__gnu_cxx17__normal_iteratorIPNS2_16stored_edge_iterIjSt14_List_iteratorINS_9list_edgeIjNS_8propertyINS_13edge_weight_tEiNS_11no_propertyEEEEEESC_EESt6vectorISF_SaISF_EEEEjNS2_14edge_desc_implINS_17bidirectional_tagEjEEiEESP_NS0_9null_typeESQ_SQ_SQ_SQ_SQ_SQ_SQ_EaSISO_SO_EERSR_RKSt4pairIT_T0_E(%"class.boost::tuples::tuple.22"* %tmp5, %"struct.std::pair.25"* %ref.tmp6)
  br label %for.cond9

for.cond9:                                        ; preds = %for.inc, %for.body
  %8 = bitcast %"struct.boost::detail::out_edge_iter"* %ei to %"class.boost::iterator_facade.19"*
  %9 = bitcast %"struct.boost::detail::out_edge_iter"* %edge_end to %"class.boost::iterator_facade.19"*
  %call10 = call zeroext i1 @_ZN5boostneINS_6detail13out_edge_iterIN9__gnu_cxx17__normal_iteratorIPNS1_16stored_edge_iterIjSt14_List_iteratorINS_9list_edgeIjNS_8propertyINS_13edge_weight_tEiNS_11no_propertyEEEEEESB_EESt6vectorISE_SaISE_EEEEjNS1_14edge_desc_implINS_17bidirectional_tagEjEEiEESM_NS_27random_access_traversal_tagESM_iSN_SM_SO_SM_iEENS1_23enable_if_interoperableIT_T4_NS_3mpl6apply2INS1_12always_bool2ESQ_SR_E4typeEE4typeERKNS_15iterator_facadeISQ_T0_T1_T2_T3_EERKNSZ_ISR_T5_T6_T7_T8_EE(%"class.boost::iterator_facade.19"* %8, %"class.boost::iterator_facade.19"* %9)
  br i1 %call10, label %for.body11, label %for.end

for.body11:                                       ; preds = %for.cond9
  %10 = bitcast %"struct.boost::detail::out_edge_iter"* %ei to %"class.boost::iterator_facade.19"*
  call void @_ZNK5boost15iterator_facadeINS_6detail13out_edge_iterIN9__gnu_cxx17__normal_iteratorIPNS1_16stored_edge_iterIjSt14_List_iteratorINS_9list_edgeIjNS_8propertyINS_13edge_weight_tEiNS_11no_propertyEEEEEESB_EESt6vectorISE_SaISE_EEEEjNS1_14edge_desc_implINS_17bidirectional_tagEjEEiEESM_NS_27random_access_traversal_tagESM_iEdeEv(%"class.boost::detail::edge_desc_impl"* sret %ref.tmp12, %"class.boost::iterator_facade.19"* %10)
  %11 = bitcast %"class.boost::detail::edge_desc_impl"* %ref.tmp12 to %"struct.boost::detail::edge_base"*
  %12 = load %"class.boost::adjacency_list"** %g.addr, align 4
  %call13 = call i32 @_ZN5boost6targetINS_17bidirectional_tagEjNS_4vecSES2_NS_14bidirectionalSENS_8propertyINS_14vertex_color_tENS_18default_color_typeENS4_INS_17vertex_distance_tEiNS4_INS_15vertex_degree_tEiNS4_INS_18vertex_in_degree_tEiNS4_INS_19vertex_out_degree_tEiNS_11no_propertyEEEEEEEEEEENS4_INS_13edge_weight_tEiSB_EESB_NS_5listSEEET0_RKNS_6detail9edge_baseIT_SK_EERKNS_14adjacency_listIT1_T2_T3_T4_T5_T6_T7_EE(%"struct.boost::detail::edge_base"* %11, %"class.boost::adjacency_list"* %12)
  %call14 = call %"class.std::basic_ostream"* @_ZNSolsEj(%"class.std::basic_ostream"* @_ZSt4cout, i32 %call13)
  %call15 = call %"class.std::basic_ostream"* @_ZStlsISt11char_traitsIcEERSt13basic_ostreamIcT_ES5_PKc(%"class.std::basic_ostream"* %call14, i8* getelementptr inbounds ([3 x i8]* @.str10, i32 0, i32 0))
  br label %for.inc

for.inc:                                          ; preds = %for.body11
  %13 = bitcast %"struct.boost::detail::out_edge_iter"* %ei to %"class.boost::iterator_facade.19"*
  %call16 = call %"struct.boost::detail::out_edge_iter"* @_ZN5boost15iterator_facadeINS_6detail13out_edge_iterIN9__gnu_cxx17__normal_iteratorIPNS1_16stored_edge_iterIjSt14_List_iteratorINS_9list_edgeIjNS_8propertyINS_13edge_weight_tEiNS_11no_propertyEEEEEESB_EESt6vectorISE_SaISE_EEEEjNS1_14edge_desc_implINS_17bidirectional_tagEjEEiEESM_NS_27random_access_traversal_tagESM_iEppEv(%"class.boost::iterator_facade.19"* %13)
  br label %for.cond9

for.end:                                          ; preds = %for.cond9
  %call17 = call %"class.std::basic_ostream"* @_ZNSolsEPFRSoS_E(%"class.std::basic_ostream"* @_ZSt4cout, %"class.std::basic_ostream"* (%"class.std::basic_ostream"*)* @_ZSt4endlIcSt11char_traitsIcEERSt13basic_ostreamIT_T0_ES6_)
  br label %for.inc18

for.inc18:                                        ; preds = %for.end
  %14 = bitcast %"class.boost::range_detail::integer_iterator"* %i to %"class.boost::iterator_facade"*
  %call19 = call %"class.boost::range_detail::integer_iterator"* @_ZN5boost15iterator_facadeINS_12range_detail16integer_iteratorIjEEjNS_27random_access_traversal_tagEjiEppEv(%"class.boost::iterator_facade"* %14)
  br label %for.cond

for.end20:                                        ; preds = %for.cond
  ret void
}

define linkonce_odr void @_ZN5boost11remove_edgeINS_6detail12adj_list_genINS_14adjacency_listINS_4vecSES4_NS_14bidirectionalSENS_8propertyINS_14vertex_color_tENS_18default_color_typeENS6_INS_17vertex_distance_tEiNS6_INS_15vertex_degree_tEiNS6_INS_18vertex_in_degree_tEiNS6_INS_19vertex_out_degree_tEiNS_11no_propertyEEEEEEEEEEENS6_INS_13edge_weight_tEiSD_EESD_NS_5listSEEES4_S4_S5_SI_SK_SD_SL_E6configEEEvNT_17vertex_descriptorESQ_RNS_40bidirectional_graph_helper_with_propertyISP_EE(i32 %u, i32 %v, %"struct.boost::bidirectional_graph_helper_with_property"* %g_) inlinehint {
entry:
  %u.addr = alloca i32, align 4
  %v.addr = alloca i32, align 4
  %g_.addr = alloca %"struct.boost::bidirectional_graph_helper_with_property"*, align 4
  %g = alloca %"class.boost::adjacency_list"*, align 4
  %agg.tmp = alloca %"struct.boost::allow_parallel_edge_tag", align 1
  %agg.tmp2 = alloca %"struct.boost::allow_parallel_edge_tag", align 1
  store i32 %u, i32* %u.addr, align 4
  store i32 %v, i32* %v.addr, align 4
  store %"struct.boost::bidirectional_graph_helper_with_property"* %g_, %"struct.boost::bidirectional_graph_helper_with_property"** %g_.addr, align 4
  %0 = load %"struct.boost::bidirectional_graph_helper_with_property"** %g_.addr, align 4
  %1 = bitcast %"struct.boost::bidirectional_graph_helper_with_property"* %0 to %"class.boost::adjacency_list"*
  store %"class.boost::adjacency_list"* %1, %"class.boost::adjacency_list"** %g, align 4
  %2 = load %"class.boost::adjacency_list"** %g, align 4
  %3 = load %"class.boost::adjacency_list"** %g, align 4
  %4 = bitcast %"class.boost::adjacency_list"* %3 to %"class.boost::vec_adj_list_impl"*
  %5 = load i32* %u.addr, align 4
  %call = call %"class.std::vector.3"* @_ZN5boost17vec_adj_list_implINS_14adjacency_listINS_4vecSES2_NS_14bidirectionalSENS_8propertyINS_14vertex_color_tENS_18default_color_typeENS4_INS_17vertex_distance_tEiNS4_INS_15vertex_degree_tEiNS4_INS_18vertex_in_degree_tEiNS4_INS_19vertex_out_degree_tEiNS_11no_propertyEEEEEEEEEEENS4_INS_13edge_weight_tEiSB_EESB_NS_5listSEEENS_6detail12adj_list_genISK_S2_S2_S3_SG_SI_SB_SJ_E6configENS_40bidirectional_graph_helper_with_propertyISO_EEE13out_edge_listEj(%"class.boost::vec_adj_list_impl"* %4, i32 %5)
  %6 = load i32* %v.addr, align 4
  call void @_ZN5boost6detail24remove_edge_and_propertyINS_14adjacency_listINS_4vecSES3_NS_14bidirectionalSENS_8propertyINS_14vertex_color_tENS_18default_color_typeENS5_INS_17vertex_distance_tEiNS5_INS_15vertex_degree_tEiNS5_INS_18vertex_in_degree_tEiNS5_INS_19vertex_out_degree_tEiNS_11no_propertyEEEEEEEEEEENS5_INS_13edge_weight_tEiSC_EESC_NS_5listSEEESt6vectorINS0_16stored_edge_iterIjSt14_List_iteratorINS_9list_edgeIjSJ_EEESJ_EESaISS_EEjEEvRT_RT0_T1_NS_23allow_parallel_edge_tagE(%"class.boost::adjacency_list"* %2, %"class.std::vector.3"* %call, i32 %6)
  %7 = load %"class.boost::adjacency_list"** %g, align 4
  %8 = bitcast %"class.boost::adjacency_list"* %7 to %"class.boost::vec_adj_list_impl"*
  %9 = load i32* %v.addr, align 4
  %call1 = call %"class.std::vector.3"* @_ZN5boost12in_edge_listINS_14adjacency_listINS_4vecSES2_NS_14bidirectionalSENS_8propertyINS_14vertex_color_tENS_18default_color_typeENS4_INS_17vertex_distance_tEiNS4_INS_15vertex_degree_tEiNS4_INS_18vertex_in_degree_tEiNS4_INS_19vertex_out_degree_tEiNS_11no_propertyEEEEEEEEEEENS4_INS_13edge_weight_tEiSB_EESB_NS_5listSEEENS_6detail12adj_list_genISK_S2_S2_S3_SG_SI_SB_SJ_E6configENS_40bidirectional_graph_helper_with_propertyISO_EEEERNT0_10InEdgeListERNS_17vec_adj_list_implIT_SR_T1_EENSR_17vertex_descriptorE(%"class.boost::vec_adj_list_impl"* %8, i32 %9)
  %10 = load i32* %u.addr, align 4
  call void @_ZN5boost6detail25erase_from_incidence_listISt6vectorINS0_16stored_edge_iterIjSt14_List_iteratorINS_9list_edgeIjNS_8propertyINS_13edge_weight_tEiNS_11no_propertyEEEEEES9_EESaISC_EEjEEvRT_T0_NS_23allow_parallel_edge_tagE(%"class.std::vector.3"* %call1, i32 %10)
  ret void
}

define linkonce_odr i32 @_ZN5boost10add_vertexINS_14adjacency_listINS_4vecSES2_NS_14bidirectionalSENS_8propertyINS_14vertex_color_tENS_18default_color_typeENS4_INS_17vertex_distance_tEiNS4_INS_15vertex_degree_tEiNS4_INS_18vertex_in_degree_tEiNS4_INS_19vertex_out_degree_tEiNS_11no_propertyEEEEEEEEEEENS4_INS_13edge_weight_tEiSB_EESB_NS_5listSEEENS_6detail12adj_list_genISK_S2_S2_S3_SG_SI_SB_SJ_E6configENS_40bidirectional_graph_helper_with_propertyISO_EEEENT0_17vertex_descriptorERNS_17vec_adj_list_implIT_SR_T1_EE(%"class.boost::vec_adj_list_impl"* %g_) inlinehint {
entry:
  %g_.addr = alloca %"class.boost::vec_adj_list_impl"*, align 4
  %g = alloca %"class.boost::adjacency_list"*, align 4
  %agg.tmp = alloca %"struct.boost::detail::adj_list_gen<boost::adjacency_list<boost::vecS, boost::vecS, boost::bidirectionalS, boost::property<boost::vertex_color_t, boost::default_color_type, boost::property<boost::vertex_distance_t, int, boost::property<boost::vertex_degree_t, int, boost::property<boost::vertex_in_degree_t, int, boost::property<boost::vertex_out_degree_t, int, boost::no_property> > > > >, boost::property<boost::edge_weight_t, int, boost::no_property>, boost::no_property, boost::listS>, boost::vecS, boost::vecS, boost::bidirectionalS, boost::property<boost::vertex_color_t, boost::default_color_type, boost::property<boost::vertex_distance_t, int, boost::property<boost::vertex_degree_t, int, boost::property<boost::vertex_in_degree_t, int, boost::property<boost::vertex_out_degree_t, int, boost::no_property> > > > >, boost::property<boost::edge_weight_t, int, boost::no_property>, boost::no_property, boost::listS>::config::stored_vertex", align 4
  %exn.slot = alloca i8*
  %ehselector.slot = alloca i32
  store %"class.boost::vec_adj_list_impl"* %g_, %"class.boost::vec_adj_list_impl"** %g_.addr, align 4
  %0 = load %"class.boost::vec_adj_list_impl"** %g_.addr, align 4
  %1 = bitcast %"class.boost::vec_adj_list_impl"* %0 to %"class.boost::adjacency_list"*
  store %"class.boost::adjacency_list"* %1, %"class.boost::adjacency_list"** %g, align 4
  %2 = load %"class.boost::adjacency_list"** %g, align 4
  %3 = bitcast %"class.boost::adjacency_list"* %2 to %"class.boost::vec_adj_list_impl"*
  %m_vertices = getelementptr inbounds %"class.boost::vec_adj_list_impl"* %3, i32 0, i32 1
  %4 = load %"class.boost::adjacency_list"** %g, align 4
  %5 = bitcast %"class.boost::adjacency_list"* %4 to %"class.boost::vec_adj_list_impl"*
  %m_vertices1 = getelementptr inbounds %"class.boost::vec_adj_list_impl"* %5, i32 0, i32 1
  %call = call i32 @_ZNKSt6vectorIN5boost6detail12adj_list_genINS0_14adjacency_listINS0_4vecSES4_NS0_14bidirectionalSENS0_8propertyINS0_14vertex_color_tENS0_18default_color_typeENS6_INS0_17vertex_distance_tEiNS6_INS0_15vertex_degree_tEiNS6_INS0_18vertex_in_degree_tEiNS6_INS0_19vertex_out_degree_tEiNS0_11no_propertyEEEEEEEEEEENS6_INS0_13edge_weight_tEiSD_EESD_NS0_5listSEEES4_S4_S5_SI_SK_SD_SL_E6config13stored_vertexESaISP_EE4sizeEv(%"class.std::vector"* %m_vertices1)
  %add = add i32 %call, 1
  call void @_ZN5boost6detail12adj_list_genINS_14adjacency_listINS_4vecSES3_NS_14bidirectionalSENS_8propertyINS_14vertex_color_tENS_18default_color_typeENS5_INS_17vertex_distance_tEiNS5_INS_15vertex_degree_tEiNS5_INS_18vertex_in_degree_tEiNS5_INS_19vertex_out_degree_tEiNS_11no_propertyEEEEEEEEEEENS5_INS_13edge_weight_tEiSC_EESC_NS_5listSEEES3_S3_S4_SH_SJ_SC_SK_E6config13stored_vertexC1Ev(%"struct.boost::detail::adj_list_gen<boost::adjacency_list<boost::vecS, boost::vecS, boost::bidirectionalS, boost::property<boost::vertex_color_t, boost::default_color_type, boost::property<boost::vertex_distance_t, int, boost::property<boost::vertex_degree_t, int, boost::property<boost::vertex_in_degree_t, int, boost::property<boost::vertex_out_degree_t, int, boost::no_property> > > > >, boost::property<boost::edge_weight_t, int, boost::no_property>, boost::no_property, boost::listS>, boost::vecS, boost::vecS, boost::bidirectionalS, boost::property<boost::vertex_color_t, boost::default_color_type, boost::property<boost::vertex_distance_t, int, boost::property<boost::vertex_degree_t, int, boost::property<boost::vertex_in_degree_t, int, boost::property<boost::vertex_out_degree_t, int, boost::no_property> > > > >, boost::property<boost::edge_weight_t, int, boost::no_property>, boost::no_property, boost::listS>::config::stored_vertex"* %agg.tmp)
  invoke void @_ZNSt6vectorIN5boost6detail12adj_list_genINS0_14adjacency_listINS0_4vecSES4_NS0_14bidirectionalSENS0_8propertyINS0_14vertex_color_tENS0_18default_color_typeENS6_INS0_17vertex_distance_tEiNS6_INS0_15vertex_degree_tEiNS6_INS0_18vertex_in_degree_tEiNS6_INS0_19vertex_out_degree_tEiNS0_11no_propertyEEEEEEEEEEENS6_INS0_13edge_weight_tEiSD_EESD_NS0_5listSEEES4_S4_S5_SI_SK_SD_SL_E6config13stored_vertexESaISP_EE6resizeEjSP_(%"class.std::vector"* %m_vertices, i32 %add, %"struct.boost::detail::adj_list_gen<boost::adjacency_list<boost::vecS, boost::vecS, boost::bidirectionalS, boost::property<boost::vertex_color_t, boost::default_color_type, boost::property<boost::vertex_distance_t, int, boost::property<boost::vertex_degree_t, int, boost::property<boost::vertex_in_degree_t, int, boost::property<boost::vertex_out_degree_t, int, boost::no_property> > > > >, boost::property<boost::edge_weight_t, int, boost::no_property>, boost::no_property, boost::listS>, boost::vecS, boost::vecS, boost::bidirectionalS, boost::property<boost::vertex_color_t, boost::default_color_type, boost::property<boost::vertex_distance_t, int, boost::property<boost::vertex_degree_t, int, boost::property<boost::vertex_in_degree_t, int, boost::property<boost::vertex_out_degree_t, int, boost::no_property> > > > >, boost::property<boost::edge_weight_t, int, boost::no_property>, boost::no_property, boost::listS>::config::stored_vertex"* %agg.tmp)
          to label %invoke.cont unwind label %lpad

invoke.cont:                                      ; preds = %entry
  call void @_ZN5boost6detail12adj_list_genINS_14adjacency_listINS_4vecSES3_NS_14bidirectionalSENS_8propertyINS_14vertex_color_tENS_18default_color_typeENS5_INS_17vertex_distance_tEiNS5_INS_15vertex_degree_tEiNS5_INS_18vertex_in_degree_tEiNS5_INS_19vertex_out_degree_tEiNS_11no_propertyEEEEEEEEEEENS5_INS_13edge_weight_tEiSC_EESC_NS_5listSEEES3_S3_S4_SH_SJ_SC_SK_E6config13stored_vertexD1Ev(%"struct.boost::detail::adj_list_gen<boost::adjacency_list<boost::vecS, boost::vecS, boost::bidirectionalS, boost::property<boost::vertex_color_t, boost::default_color_type, boost::property<boost::vertex_distance_t, int, boost::property<boost::vertex_degree_t, int, boost::property<boost::vertex_in_degree_t, int, boost::property<boost::vertex_out_degree_t, int, boost::no_property> > > > >, boost::property<boost::edge_weight_t, int, boost::no_property>, boost::no_property, boost::listS>, boost::vecS, boost::vecS, boost::bidirectionalS, boost::property<boost::vertex_color_t, boost::default_color_type, boost::property<boost::vertex_distance_t, int, boost::property<boost::vertex_degree_t, int, boost::property<boost::vertex_in_degree_t, int, boost::property<boost::vertex_out_degree_t, int, boost::no_property> > > > >, boost::property<boost::edge_weight_t, int, boost::no_property>, boost::no_property, boost::listS>::config::stored_vertex"* %agg.tmp)
  %6 = load %"class.boost::adjacency_list"** %g, align 4
  %7 = bitcast %"class.boost::adjacency_list"* %6 to %"struct.boost::graph::maybe_named_graph"*
  %8 = load %"class.boost::adjacency_list"** %g, align 4
  %9 = bitcast %"class.boost::adjacency_list"* %8 to %"class.boost::vec_adj_list_impl"*
  %m_vertices3 = getelementptr inbounds %"class.boost::vec_adj_list_impl"* %9, i32 0, i32 1
  %call4 = call i32 @_ZNKSt6vectorIN5boost6detail12adj_list_genINS0_14adjacency_listINS0_4vecSES4_NS0_14bidirectionalSENS0_8propertyINS0_14vertex_color_tENS0_18default_color_typeENS6_INS0_17vertex_distance_tEiNS6_INS0_15vertex_degree_tEiNS6_INS0_18vertex_in_degree_tEiNS6_INS0_19vertex_out_degree_tEiNS0_11no_propertyEEEEEEEEEEENS6_INS0_13edge_weight_tEiSD_EESD_NS0_5listSEEES4_S4_S5_SI_SK_SD_SL_E6config13stored_vertexESaISP_EE4sizeEv(%"class.std::vector"* %m_vertices3)
  %sub = sub i32 %call4, 1
  call void @_ZN5boost5graph17maybe_named_graphINS_14adjacency_listINS_4vecSES3_NS_14bidirectionalSENS_8propertyINS_14vertex_color_tENS_18default_color_typeENS5_INS_17vertex_distance_tEiNS5_INS_15vertex_degree_tEiNS5_INS_18vertex_in_degree_tEiNS5_INS_19vertex_out_degree_tEiNS_11no_propertyEEEEEEEEEEENS5_INS_13edge_weight_tEiSC_EESC_NS_5listSEEEjSH_vE12added_vertexEj(%"struct.boost::graph::maybe_named_graph"* %7, i32 %sub)
  %10 = load %"class.boost::adjacency_list"** %g, align 4
  %11 = bitcast %"class.boost::adjacency_list"* %10 to %"class.boost::vec_adj_list_impl"*
  %m_vertices5 = getelementptr inbounds %"class.boost::vec_adj_list_impl"* %11, i32 0, i32 1
  %call6 = call i32 @_ZNKSt6vectorIN5boost6detail12adj_list_genINS0_14adjacency_listINS0_4vecSES4_NS0_14bidirectionalSENS0_8propertyINS0_14vertex_color_tENS0_18default_color_typeENS6_INS0_17vertex_distance_tEiNS6_INS0_15vertex_degree_tEiNS6_INS0_18vertex_in_degree_tEiNS6_INS0_19vertex_out_degree_tEiNS0_11no_propertyEEEEEEEEEEENS6_INS0_13edge_weight_tEiSD_EESD_NS0_5listSEEES4_S4_S5_SI_SK_SD_SL_E6config13stored_vertexESaISP_EE4sizeEv(%"class.std::vector"* %m_vertices5)
  %sub7 = sub i32 %call6, 1
  ret i32 %sub7

lpad:                                             ; preds = %entry
  %12 = landingpad { i8*, i32 } personality i8* bitcast (i32 (...)* @__gxx_personality_v0 to i8*)
          cleanup
  %13 = extractvalue { i8*, i32 } %12, 0
  store i8* %13, i8** %exn.slot
  %14 = extractvalue { i8*, i32 } %12, 1
  store i32 %14, i32* %ehselector.slot
  invoke void @_ZN5boost6detail12adj_list_genINS_14adjacency_listINS_4vecSES3_NS_14bidirectionalSENS_8propertyINS_14vertex_color_tENS_18default_color_typeENS5_INS_17vertex_distance_tEiNS5_INS_15vertex_degree_tEiNS5_INS_18vertex_in_degree_tEiNS5_INS_19vertex_out_degree_tEiNS_11no_propertyEEEEEEEEEEENS5_INS_13edge_weight_tEiSC_EESC_NS_5listSEEES3_S3_S4_SH_SJ_SC_SK_E6config13stored_vertexD1Ev(%"struct.boost::detail::adj_list_gen<boost::adjacency_list<boost::vecS, boost::vecS, boost::bidirectionalS, boost::property<boost::vertex_color_t, boost::default_color_type, boost::property<boost::vertex_distance_t, int, boost::property<boost::vertex_degree_t, int, boost::property<boost::vertex_in_degree_t, int, boost::property<boost::vertex_out_degree_t, int, boost::no_property> > > > >, boost::property<boost::edge_weight_t, int, boost::no_property>, boost::no_property, boost::listS>, boost::vecS, boost::vecS, boost::bidirectionalS, boost::property<boost::vertex_color_t, boost::default_color_type, boost::property<boost::vertex_distance_t, int, boost::property<boost::vertex_degree_t, int, boost::property<boost::vertex_in_degree_t, int, boost::property<boost::vertex_out_degree_t, int, boost::no_property> > > > >, boost::property<boost::edge_weight_t, int, boost::no_property>, boost::no_property, boost::listS>::config::stored_vertex"* %agg.tmp)
          to label %invoke.cont2 unwind label %terminate.lpad

invoke.cont2:                                     ; preds = %lpad
  br label %eh.resume

eh.resume:                                        ; preds = %invoke.cont2
  %exn = load i8** %exn.slot
  %sel = load i32* %ehselector.slot
  %lpad.val = insertvalue { i8*, i32 } undef, i8* %exn, 0
  %lpad.val8 = insertvalue { i8*, i32 } %lpad.val, i32 %sel, 1
  resume { i8*, i32 } %lpad.val8

terminate.lpad:                                   ; preds = %lpad
  %15 = landingpad { i8*, i32 } personality i8* bitcast (i32 (...)* @__gxx_personality_v0 to i8*)
          catch i8* null
  call void @_ZSt9terminatev() noreturn nounwind
  unreachable
}

define linkonce_odr i32 @_ZN5boost12num_verticesINS_6detail12adj_list_genINS_14adjacency_listINS_4vecSES4_NS_14bidirectionalSENS_8propertyINS_14vertex_color_tENS_18default_color_typeENS6_INS_17vertex_distance_tEiNS6_INS_15vertex_degree_tEiNS6_INS_18vertex_in_degree_tEiNS6_INS_19vertex_out_degree_tEiNS_11no_propertyEEEEEEEEEEENS6_INS_13edge_weight_tEiSD_EESD_NS_5listSEEES4_S4_S5_SI_SK_SD_SL_E6configENS_40bidirectional_graph_helper_with_propertyISO_EEEENT_18vertices_size_typeERKNS_15adj_list_helperISR_T0_EE(%"struct.boost::adj_list_helper"* %g_) inlinehint {
entry:
  %g_.addr = alloca %"struct.boost::adj_list_helper"*, align 4
  %g = alloca %"class.boost::adjacency_list"*, align 4
  %tmp = alloca %"class.boost::integer_range", align 4
  store %"struct.boost::adj_list_helper"* %g_, %"struct.boost::adj_list_helper"** %g_.addr, align 4
  %0 = load %"struct.boost::adj_list_helper"** %g_.addr, align 4
  %1 = bitcast %"struct.boost::adj_list_helper"* %0 to %"class.boost::adjacency_list"*
  store %"class.boost::adjacency_list"* %1, %"class.boost::adjacency_list"** %g, align 4
  %2 = load %"class.boost::adjacency_list"** %g, align 4
  %3 = bitcast %"class.boost::adjacency_list"* %2 to %"class.boost::vec_adj_list_impl"*
  call void @_ZNK5boost17vec_adj_list_implINS_14adjacency_listINS_4vecSES2_NS_14bidirectionalSENS_8propertyINS_14vertex_color_tENS_18default_color_typeENS4_INS_17vertex_distance_tEiNS4_INS_15vertex_degree_tEiNS4_INS_18vertex_in_degree_tEiNS4_INS_19vertex_out_degree_tEiNS_11no_propertyEEEEEEEEEEENS4_INS_13edge_weight_tEiSB_EESB_NS_5listSEEENS_6detail12adj_list_genISK_S2_S2_S3_SG_SI_SB_SJ_E6configENS_40bidirectional_graph_helper_with_propertyISO_EEE10vertex_setEv(%"class.boost::integer_range"* sret %tmp, %"class.boost::vec_adj_list_impl"* %3)
  %4 = bitcast %"class.boost::integer_range"* %tmp to %"class.boost::iterator_range"*
  %call = call i32 @_ZNK5boost14iterator_rangeINS_12range_detail16integer_iteratorIjEEE4sizeEv(%"class.boost::iterator_range"* %4)
  ret i32 %call
}

define linkonce_odr void @_ZN5boost12clear_vertexINS_6detail12adj_list_genINS_14adjacency_listINS_4vecSES4_NS_14bidirectionalSENS_8propertyINS_14vertex_color_tENS_18default_color_typeENS6_INS_17vertex_distance_tEiNS6_INS_15vertex_degree_tEiNS6_INS_18vertex_in_degree_tEiNS6_INS_19vertex_out_degree_tEiNS_11no_propertyEEEEEEEEEEENS6_INS_13edge_weight_tEiSD_EESD_NS_5listSEEES4_S4_S5_SI_SK_SD_SL_E6configEEEvNT_17vertex_descriptorERNS_40bidirectional_graph_helper_with_propertyISP_EE(i32 %u, %"struct.boost::bidirectional_graph_helper_with_property"* %g_) inlinehint {
entry:
  %u.addr = alloca i32, align 4
  %g_.addr = alloca %"struct.boost::bidirectional_graph_helper_with_property"*, align 4
  %g = alloca %"class.boost::adjacency_list"*, align 4
  %el = alloca %"class.std::vector.3"*, align 4
  %ei = alloca %"class.__gnu_cxx::__normal_iterator.14", align 4
  %ei_end = alloca %"class.__gnu_cxx::__normal_iterator.14", align 4
  %agg.tmp = alloca %"struct.boost::allow_parallel_edge_tag", align 1
  %agg.tmp5 = alloca %"struct.std::_List_iterator", align 4
  %tmp = alloca %"struct.std::_List_iterator", align 4
  %in_el = alloca %"class.std::vector.3"*, align 4
  %in_ei = alloca %"class.__gnu_cxx::__normal_iterator.14", align 4
  %in_ei_end = alloca %"class.__gnu_cxx::__normal_iterator.14", align 4
  %agg.tmp18 = alloca %"struct.boost::allow_parallel_edge_tag", align 1
  %agg.tmp20 = alloca %"struct.std::_List_iterator", align 4
  %tmp22 = alloca %"struct.std::_List_iterator", align 4
  store i32 %u, i32* %u.addr, align 4
  store %"struct.boost::bidirectional_graph_helper_with_property"* %g_, %"struct.boost::bidirectional_graph_helper_with_property"** %g_.addr, align 4
  %0 = load %"struct.boost::bidirectional_graph_helper_with_property"** %g_.addr, align 4
  %1 = bitcast %"struct.boost::bidirectional_graph_helper_with_property"* %0 to %"class.boost::adjacency_list"*
  store %"class.boost::adjacency_list"* %1, %"class.boost::adjacency_list"** %g, align 4
  %2 = load %"class.boost::adjacency_list"** %g, align 4
  %3 = bitcast %"class.boost::adjacency_list"* %2 to %"class.boost::vec_adj_list_impl"*
  %4 = load i32* %u.addr, align 4
  %call = call %"class.std::vector.3"* @_ZN5boost17vec_adj_list_implINS_14adjacency_listINS_4vecSES2_NS_14bidirectionalSENS_8propertyINS_14vertex_color_tENS_18default_color_typeENS4_INS_17vertex_distance_tEiNS4_INS_15vertex_degree_tEiNS4_INS_18vertex_in_degree_tEiNS4_INS_19vertex_out_degree_tEiNS_11no_propertyEEEEEEEEEEENS4_INS_13edge_weight_tEiSB_EESB_NS_5listSEEENS_6detail12adj_list_genISK_S2_S2_S3_SG_SI_SB_SJ_E6configENS_40bidirectional_graph_helper_with_propertyISO_EEE13out_edge_listEj(%"class.boost::vec_adj_list_impl"* %3, i32 %4)
  store %"class.std::vector.3"* %call, %"class.std::vector.3"** %el, align 4
  %5 = load %"class.std::vector.3"** %el, align 4
  call void @_ZNSt6vectorIN5boost6detail16stored_edge_iterIjSt14_List_iteratorINS0_9list_edgeIjNS0_8propertyINS0_13edge_weight_tEiNS0_11no_propertyEEEEEES8_EESaISB_EE5beginEv(%"class.__gnu_cxx::__normal_iterator.14"* sret %ei, %"class.std::vector.3"* %5)
  %6 = load %"class.std::vector.3"** %el, align 4
  call void @_ZNSt6vectorIN5boost6detail16stored_edge_iterIjSt14_List_iteratorINS0_9list_edgeIjNS0_8propertyINS0_13edge_weight_tEiNS0_11no_propertyEEEEEES8_EESaISB_EE3endEv(%"class.__gnu_cxx::__normal_iterator.14"* sret %ei_end, %"class.std::vector.3"* %6)
  br label %for.cond

for.cond:                                         ; preds = %for.inc, %entry
  %call1 = call zeroext i1 @_ZN9__gnu_cxxneIPN5boost6detail16stored_edge_iterIjSt14_List_iteratorINS1_9list_edgeIjNS1_8propertyINS1_13edge_weight_tEiNS1_11no_propertyEEEEEES9_EESt6vectorISC_SaISC_EEEEbRKNS_17__normal_iteratorIT_T0_EESM_(%"class.__gnu_cxx::__normal_iterator.14"* %ei, %"class.__gnu_cxx::__normal_iterator.14"* %ei_end)
  br i1 %call1, label %for.body, label %for.end

for.body:                                         ; preds = %for.cond
  %7 = load %"class.boost::adjacency_list"** %g, align 4
  %8 = bitcast %"class.boost::adjacency_list"* %7 to %"class.boost::vec_adj_list_impl"*
  %call2 = call %"class.boost::detail::stored_edge_iter"* @_ZNK9__gnu_cxx17__normal_iteratorIPN5boost6detail16stored_edge_iterIjSt14_List_iteratorINS1_9list_edgeIjNS1_8propertyINS1_13edge_weight_tEiNS1_11no_propertyEEEEEES9_EESt6vectorISC_SaISC_EEEdeEv(%"class.__gnu_cxx::__normal_iterator.14"* %ei)
  %9 = bitcast %"class.boost::detail::stored_edge_iter"* %call2 to %"class.boost::detail::stored_edge"*
  %call3 = call i32* @_ZNK5boost6detail11stored_edgeIjE10get_targetEv(%"class.boost::detail::stored_edge"* %9)
  %10 = load i32* %call3
  %call4 = call %"class.std::vector.3"* @_ZN5boost12in_edge_listINS_14adjacency_listINS_4vecSES2_NS_14bidirectionalSENS_8propertyINS_14vertex_color_tENS_18default_color_typeENS4_INS_17vertex_distance_tEiNS4_INS_15vertex_degree_tEiNS4_INS_18vertex_in_degree_tEiNS4_INS_19vertex_out_degree_tEiNS_11no_propertyEEEEEEEEEEENS4_INS_13edge_weight_tEiSB_EESB_NS_5listSEEENS_6detail12adj_list_genISK_S2_S2_S3_SG_SI_SB_SJ_E6configENS_40bidirectional_graph_helper_with_propertyISO_EEEERNT0_10InEdgeListERNS_17vec_adj_list_implIT_SR_T1_EENSR_17vertex_descriptorE(%"class.boost::vec_adj_list_impl"* %8, i32 %10)
  %11 = load i32* %u.addr, align 4
  call void @_ZN5boost6detail25erase_from_incidence_listISt6vectorINS0_16stored_edge_iterIjSt14_List_iteratorINS_9list_edgeIjNS_8propertyINS_13edge_weight_tEiNS_11no_propertyEEEEEES9_EESaISC_EEjEEvRT_T0_NS_23allow_parallel_edge_tagE(%"class.std::vector.3"* %call4, i32 %11)
  %12 = load %"class.boost::adjacency_list"** %g, align 4
  %13 = bitcast %"class.boost::adjacency_list"* %12 to %"class.boost::vec_adj_list_impl"*
  %m_edges = getelementptr inbounds %"class.boost::vec_adj_list_impl"* %13, i32 0, i32 0
  %call6 = call %"class.boost::detail::stored_edge_iter"* @_ZNK9__gnu_cxx17__normal_iteratorIPN5boost6detail16stored_edge_iterIjSt14_List_iteratorINS1_9list_edgeIjNS1_8propertyINS1_13edge_weight_tEiNS1_11no_propertyEEEEEES9_EESt6vectorISC_SaISC_EEEdeEv(%"class.__gnu_cxx::__normal_iterator.14"* %ei)
  call void @_ZNK5boost6detail16stored_edge_iterIjSt14_List_iteratorINS_9list_edgeIjNS_8propertyINS_13edge_weight_tEiNS_11no_propertyEEEEEES7_E8get_iterEv(%"struct.std::_List_iterator"* sret %agg.tmp5, %"class.boost::detail::stored_edge_iter"* %call6)
  call void @_ZNSt4listIN5boost9list_edgeIjNS0_8propertyINS0_13edge_weight_tEiNS0_11no_propertyEEEEESaIS6_EE5eraseESt14_List_iteratorIS6_E(%"struct.std::_List_iterator"* sret %tmp, %"class.std::list"* %m_edges, %"struct.std::_List_iterator"* byval align 4 %agg.tmp5)
  br label %for.inc

for.inc:                                          ; preds = %for.body
  %call7 = call %"class.__gnu_cxx::__normal_iterator.14"* @_ZN9__gnu_cxx17__normal_iteratorIPN5boost6detail16stored_edge_iterIjSt14_List_iteratorINS1_9list_edgeIjNS1_8propertyINS1_13edge_weight_tEiNS1_11no_propertyEEEEEES9_EESt6vectorISC_SaISC_EEEppEv(%"class.__gnu_cxx::__normal_iterator.14"* %ei)
  br label %for.cond

for.end:                                          ; preds = %for.cond
  %14 = load %"class.boost::adjacency_list"** %g, align 4
  %15 = bitcast %"class.boost::adjacency_list"* %14 to %"class.boost::vec_adj_list_impl"*
  %16 = load i32* %u.addr, align 4
  %call9 = call %"class.std::vector.3"* @_ZN5boost12in_edge_listINS_14adjacency_listINS_4vecSES2_NS_14bidirectionalSENS_8propertyINS_14vertex_color_tENS_18default_color_typeENS4_INS_17vertex_distance_tEiNS4_INS_15vertex_degree_tEiNS4_INS_18vertex_in_degree_tEiNS4_INS_19vertex_out_degree_tEiNS_11no_propertyEEEEEEEEEEENS4_INS_13edge_weight_tEiSB_EESB_NS_5listSEEENS_6detail12adj_list_genISK_S2_S2_S3_SG_SI_SB_SJ_E6configENS_40bidirectional_graph_helper_with_propertyISO_EEEERNT0_10InEdgeListERNS_17vec_adj_list_implIT_SR_T1_EENSR_17vertex_descriptorE(%"class.boost::vec_adj_list_impl"* %15, i32 %16)
  store %"class.std::vector.3"* %call9, %"class.std::vector.3"** %in_el, align 4
  %17 = load %"class.std::vector.3"** %in_el, align 4
  call void @_ZNSt6vectorIN5boost6detail16stored_edge_iterIjSt14_List_iteratorINS0_9list_edgeIjNS0_8propertyINS0_13edge_weight_tEiNS0_11no_propertyEEEEEES8_EESaISB_EE5beginEv(%"class.__gnu_cxx::__normal_iterator.14"* sret %in_ei, %"class.std::vector.3"* %17)
  %18 = load %"class.std::vector.3"** %in_el, align 4
  call void @_ZNSt6vectorIN5boost6detail16stored_edge_iterIjSt14_List_iteratorINS0_9list_edgeIjNS0_8propertyINS0_13edge_weight_tEiNS0_11no_propertyEEEEEES8_EESaISB_EE3endEv(%"class.__gnu_cxx::__normal_iterator.14"* sret %in_ei_end, %"class.std::vector.3"* %18)
  br label %for.cond12

for.cond12:                                       ; preds = %for.inc23, %for.end
  %call13 = call zeroext i1 @_ZN9__gnu_cxxneIPN5boost6detail16stored_edge_iterIjSt14_List_iteratorINS1_9list_edgeIjNS1_8propertyINS1_13edge_weight_tEiNS1_11no_propertyEEEEEES9_EESt6vectorISC_SaISC_EEEEbRKNS_17__normal_iteratorIT_T0_EESM_(%"class.__gnu_cxx::__normal_iterator.14"* %in_ei, %"class.__gnu_cxx::__normal_iterator.14"* %in_ei_end)
  br i1 %call13, label %for.body14, label %for.end25

for.body14:                                       ; preds = %for.cond12
  %19 = load %"class.boost::adjacency_list"** %g, align 4
  %20 = bitcast %"class.boost::adjacency_list"* %19 to %"class.boost::vec_adj_list_impl"*
  %call15 = call %"class.boost::detail::stored_edge_iter"* @_ZNK9__gnu_cxx17__normal_iteratorIPN5boost6detail16stored_edge_iterIjSt14_List_iteratorINS1_9list_edgeIjNS1_8propertyINS1_13edge_weight_tEiNS1_11no_propertyEEEEEES9_EESt6vectorISC_SaISC_EEEdeEv(%"class.__gnu_cxx::__normal_iterator.14"* %in_ei)
  %21 = bitcast %"class.boost::detail::stored_edge_iter"* %call15 to %"class.boost::detail::stored_edge"*
  %call16 = call i32* @_ZNK5boost6detail11stored_edgeIjE10get_targetEv(%"class.boost::detail::stored_edge"* %21)
  %22 = load i32* %call16
  %call17 = call %"class.std::vector.3"* @_ZN5boost17vec_adj_list_implINS_14adjacency_listINS_4vecSES2_NS_14bidirectionalSENS_8propertyINS_14vertex_color_tENS_18default_color_typeENS4_INS_17vertex_distance_tEiNS4_INS_15vertex_degree_tEiNS4_INS_18vertex_in_degree_tEiNS4_INS_19vertex_out_degree_tEiNS_11no_propertyEEEEEEEEEEENS4_INS_13edge_weight_tEiSB_EESB_NS_5listSEEENS_6detail12adj_list_genISK_S2_S2_S3_SG_SI_SB_SJ_E6configENS_40bidirectional_graph_helper_with_propertyISO_EEE13out_edge_listEj(%"class.boost::vec_adj_list_impl"* %20, i32 %22)
  %23 = load i32* %u.addr, align 4
  call void @_ZN5boost6detail25erase_from_incidence_listISt6vectorINS0_16stored_edge_iterIjSt14_List_iteratorINS_9list_edgeIjNS_8propertyINS_13edge_weight_tEiNS_11no_propertyEEEEEES9_EESaISC_EEjEEvRT_T0_NS_23allow_parallel_edge_tagE(%"class.std::vector.3"* %call17, i32 %23)
  %24 = load %"class.boost::adjacency_list"** %g, align 4
  %25 = bitcast %"class.boost::adjacency_list"* %24 to %"class.boost::vec_adj_list_impl"*
  %m_edges19 = getelementptr inbounds %"class.boost::vec_adj_list_impl"* %25, i32 0, i32 0
  %call21 = call %"class.boost::detail::stored_edge_iter"* @_ZNK9__gnu_cxx17__normal_iteratorIPN5boost6detail16stored_edge_iterIjSt14_List_iteratorINS1_9list_edgeIjNS1_8propertyINS1_13edge_weight_tEiNS1_11no_propertyEEEEEES9_EESt6vectorISC_SaISC_EEEdeEv(%"class.__gnu_cxx::__normal_iterator.14"* %in_ei)
  call void @_ZNK5boost6detail16stored_edge_iterIjSt14_List_iteratorINS_9list_edgeIjNS_8propertyINS_13edge_weight_tEiNS_11no_propertyEEEEEES7_E8get_iterEv(%"struct.std::_List_iterator"* sret %agg.tmp20, %"class.boost::detail::stored_edge_iter"* %call21)
  call void @_ZNSt4listIN5boost9list_edgeIjNS0_8propertyINS0_13edge_weight_tEiNS0_11no_propertyEEEEESaIS6_EE5eraseESt14_List_iteratorIS6_E(%"struct.std::_List_iterator"* sret %tmp22, %"class.std::list"* %m_edges19, %"struct.std::_List_iterator"* byval align 4 %agg.tmp20)
  br label %for.inc23

for.inc23:                                        ; preds = %for.body14
  %call24 = call %"class.__gnu_cxx::__normal_iterator.14"* @_ZN9__gnu_cxx17__normal_iteratorIPN5boost6detail16stored_edge_iterIjSt14_List_iteratorINS1_9list_edgeIjNS1_8propertyINS1_13edge_weight_tEiNS1_11no_propertyEEEEEES9_EESt6vectorISC_SaISC_EEEppEv(%"class.__gnu_cxx::__normal_iterator.14"* %in_ei)
  br label %for.cond12

for.end25:                                        ; preds = %for.cond12
  %26 = load %"class.boost::adjacency_list"** %g, align 4
  %27 = bitcast %"class.boost::adjacency_list"* %26 to %"class.boost::vec_adj_list_impl"*
  %28 = load i32* %u.addr, align 4
  %call26 = call %"class.std::vector.3"* @_ZN5boost17vec_adj_list_implINS_14adjacency_listINS_4vecSES2_NS_14bidirectionalSENS_8propertyINS_14vertex_color_tENS_18default_color_typeENS4_INS_17vertex_distance_tEiNS4_INS_15vertex_degree_tEiNS4_INS_18vertex_in_degree_tEiNS4_INS_19vertex_out_degree_tEiNS_11no_propertyEEEEEEEEEEENS4_INS_13edge_weight_tEiSB_EESB_NS_5listSEEENS_6detail12adj_list_genISK_S2_S2_S3_SG_SI_SB_SJ_E6configENS_40bidirectional_graph_helper_with_propertyISO_EEE13out_edge_listEj(%"class.boost::vec_adj_list_impl"* %27, i32 %28)
  call void @_ZNSt6vectorIN5boost6detail16stored_edge_iterIjSt14_List_iteratorINS0_9list_edgeIjNS0_8propertyINS0_13edge_weight_tEiNS0_11no_propertyEEEEEES8_EESaISB_EE5clearEv(%"class.std::vector.3"* %call26)
  %29 = load %"class.boost::adjacency_list"** %g, align 4
  %30 = bitcast %"class.boost::adjacency_list"* %29 to %"class.boost::vec_adj_list_impl"*
  %31 = load i32* %u.addr, align 4
  %call27 = call %"class.std::vector.3"* @_ZN5boost12in_edge_listINS_14adjacency_listINS_4vecSES2_NS_14bidirectionalSENS_8propertyINS_14vertex_color_tENS_18default_color_typeENS4_INS_17vertex_distance_tEiNS4_INS_15vertex_degree_tEiNS4_INS_18vertex_in_degree_tEiNS4_INS_19vertex_out_degree_tEiNS_11no_propertyEEEEEEEEEEENS4_INS_13edge_weight_tEiSB_EESB_NS_5listSEEENS_6detail12adj_list_genISK_S2_S2_S3_SG_SI_SB_SJ_E6configENS_40bidirectional_graph_helper_with_propertyISO_EEEERNT0_10InEdgeListERNS_17vec_adj_list_implIT_SR_T1_EENSR_17vertex_descriptorE(%"class.boost::vec_adj_list_impl"* %30, i32 %31)
  call void @_ZNSt6vectorIN5boost6detail16stored_edge_iterIjSt14_List_iteratorINS0_9list_edgeIjNS0_8propertyINS0_13edge_weight_tEiNS0_11no_propertyEEEEEES8_EESaISB_EE5clearEv(%"class.std::vector.3"* %call27)
  ret void
}

define linkonce_odr i32 @_ZN5boost10out_degreeINS_6detail12adj_list_genINS_14adjacency_listINS_4vecSES4_NS_14bidirectionalSENS_8propertyINS_14vertex_color_tENS_18default_color_typeENS6_INS_17vertex_distance_tEiNS6_INS_15vertex_degree_tEiNS6_INS_18vertex_in_degree_tEiNS6_INS_19vertex_out_degree_tEiNS_11no_propertyEEEEEEEEEEENS6_INS_13edge_weight_tEiSD_EESD_NS_5listSEEES4_S4_S5_SI_SK_SD_SL_E6configENS_40bidirectional_graph_helper_with_propertyISO_EEEENT_16degree_size_typeENSR_17vertex_descriptorERKNS_15adj_list_helperISR_T0_EE(i32 %u, %"struct.boost::adj_list_helper"* %g_) inlinehint {
entry:
  %u.addr = alloca i32, align 4
  %g_.addr = alloca %"struct.boost::adj_list_helper"*, align 4
  %g = alloca %"class.boost::adjacency_list"*, align 4
  store i32 %u, i32* %u.addr, align 4
  store %"struct.boost::adj_list_helper"* %g_, %"struct.boost::adj_list_helper"** %g_.addr, align 4
  %0 = load %"struct.boost::adj_list_helper"** %g_.addr, align 4
  %1 = bitcast %"struct.boost::adj_list_helper"* %0 to %"class.boost::adjacency_list"*
  store %"class.boost::adjacency_list"* %1, %"class.boost::adjacency_list"** %g, align 4
  %2 = load %"class.boost::adjacency_list"** %g, align 4
  %3 = bitcast %"class.boost::adjacency_list"* %2 to %"class.boost::vec_adj_list_impl"*
  %4 = load i32* %u.addr, align 4
  %call = call %"class.std::vector.3"* @_ZNK5boost17vec_adj_list_implINS_14adjacency_listINS_4vecSES2_NS_14bidirectionalSENS_8propertyINS_14vertex_color_tENS_18default_color_typeENS4_INS_17vertex_distance_tEiNS4_INS_15vertex_degree_tEiNS4_INS_18vertex_in_degree_tEiNS4_INS_19vertex_out_degree_tEiNS_11no_propertyEEEEEEEEEEENS4_INS_13edge_weight_tEiSB_EESB_NS_5listSEEENS_6detail12adj_list_genISK_S2_S2_S3_SG_SI_SB_SJ_E6configENS_40bidirectional_graph_helper_with_propertyISO_EEE13out_edge_listEj(%"class.boost::vec_adj_list_impl"* %3, i32 %4)
  %call1 = call i32 @_ZNKSt6vectorIN5boost6detail16stored_edge_iterIjSt14_List_iteratorINS0_9list_edgeIjNS0_8propertyINS0_13edge_weight_tEiNS0_11no_propertyEEEEEES8_EESaISB_EE4sizeEv(%"class.std::vector.3"* %call)
  ret i32 %call1
}

define linkonce_odr void @_ZN5boost13remove_vertexINS_14adjacency_listINS_4vecSES2_NS_14bidirectionalSENS_8propertyINS_14vertex_color_tENS_18default_color_typeENS4_INS_17vertex_distance_tEiNS4_INS_15vertex_degree_tEiNS4_INS_18vertex_in_degree_tEiNS4_INS_19vertex_out_degree_tEiNS_11no_propertyEEEEEEEEEEENS4_INS_13edge_weight_tEiSB_EESB_NS_5listSEEENS_6detail12adj_list_genISK_S2_S2_S3_SG_SI_SB_SJ_E6configENS_40bidirectional_graph_helper_with_propertyISO_EEEEvNT0_17vertex_descriptorERNS_17vec_adj_list_implIT_SR_T1_EE(i32 %v, %"class.boost::vec_adj_list_impl"* %g_) inlinehint {
entry:
  %v.addr = alloca i32, align 4
  %g_.addr = alloca %"class.boost::vec_adj_list_impl"*, align 4
  %g = alloca %"class.boost::adjacency_list"*, align 4
  %agg.tmp = alloca %"struct.boost::bidirectional_tag", align 1
  store i32 %v, i32* %v.addr, align 4
  store %"class.boost::vec_adj_list_impl"* %g_, %"class.boost::vec_adj_list_impl"** %g_.addr, align 4
  %0 = load %"class.boost::vec_adj_list_impl"** %g_.addr, align 4
  %1 = bitcast %"class.boost::vec_adj_list_impl"* %0 to %"class.boost::adjacency_list"*
  store %"class.boost::adjacency_list"* %1, %"class.boost::adjacency_list"** %g, align 4
  %2 = load %"class.boost::adjacency_list"** %g, align 4
  %3 = bitcast %"class.boost::adjacency_list"* %2 to %"struct.boost::graph::maybe_named_graph"*
  %4 = load i32* %v.addr, align 4
  call void @_ZN5boost5graph17maybe_named_graphINS_14adjacency_listINS_4vecSES3_NS_14bidirectionalSENS_8propertyINS_14vertex_color_tENS_18default_color_typeENS5_INS_17vertex_distance_tEiNS5_INS_15vertex_degree_tEiNS5_INS_18vertex_in_degree_tEiNS5_INS_19vertex_out_degree_tEiNS_11no_propertyEEEEEEEEEEENS5_INS_13edge_weight_tEiSC_EESC_NS_5listSEEEjSH_vE15removing_vertexEj(%"struct.boost::graph::maybe_named_graph"* %3, i32 %4)
  %5 = load %"class.boost::adjacency_list"** %g, align 4
  %6 = load i32* %v.addr, align 4
  call void @_ZN5boost6detail22remove_vertex_dispatchINS_14adjacency_listINS_4vecSES3_NS_14bidirectionalSENS_8propertyINS_14vertex_color_tENS_18default_color_typeENS5_INS_17vertex_distance_tEiNS5_INS_15vertex_degree_tEiNS5_INS_18vertex_in_degree_tEiNS5_INS_19vertex_out_degree_tEiNS_11no_propertyEEEEEEEEEEENS5_INS_13edge_weight_tEiSC_EESC_NS_5listSEEEjEEvRT_T0_NS_17bidirectional_tagE(%"class.boost::adjacency_list"* %5, i32 %6)
  ret void
}

define linkonce_odr void @_ZN5boost14adjacency_listINS_4vecSES1_NS_14bidirectionalSENS_8propertyINS_14vertex_color_tENS_18default_color_typeENS3_INS_17vertex_distance_tEiNS3_INS_15vertex_degree_tEiNS3_INS_18vertex_in_degree_tEiNS3_INS_19vertex_out_degree_tEiNS_11no_propertyEEEEEEEEEEENS3_INS_13edge_weight_tEiSA_EESA_NS_5listSEED1Ev(%"class.boost::adjacency_list"* %this) unnamed_addr inlinehint align 2 {
entry:
  %this.addr = alloca %"class.boost::adjacency_list"*, align 4
  store %"class.boost::adjacency_list"* %this, %"class.boost::adjacency_list"** %this.addr, align 4
  %this1 = load %"class.boost::adjacency_list"** %this.addr
  call void @_ZN5boost14adjacency_listINS_4vecSES1_NS_14bidirectionalSENS_8propertyINS_14vertex_color_tENS_18default_color_typeENS3_INS_17vertex_distance_tEiNS3_INS_15vertex_degree_tEiNS3_INS_18vertex_in_degree_tEiNS3_INS_19vertex_out_degree_tEiNS_11no_propertyEEEEEEEEEEENS3_INS_13edge_weight_tEiSA_EESA_NS_5listSEED2Ev(%"class.boost::adjacency_list"* %this1)
  ret void
}

declare void @_ZSt9terminatev()

define linkonce_odr void @_ZN5boost5graph17maybe_named_graphINS_14adjacency_listINS_4vecSES3_NS_14bidirectionalSENS_8propertyINS_14vertex_color_tENS_18default_color_typeENS5_INS_17vertex_distance_tEiNS5_INS_15vertex_degree_tEiNS5_INS_18vertex_in_degree_tEiNS5_INS_19vertex_out_degree_tEiNS_11no_propertyEEEEEEEEEEENS5_INS_13edge_weight_tEiSC_EESC_NS_5listSEEEjSH_vE15removing_vertexEj(%"struct.boost::graph::maybe_named_graph"* %this, i32) nounwind align 2 {
entry:
  %this.addr = alloca %"struct.boost::graph::maybe_named_graph"*, align 4
  %.addr = alloca i32, align 4
  store %"struct.boost::graph::maybe_named_graph"* %this, %"struct.boost::graph::maybe_named_graph"** %this.addr, align 4
  store i32 %0, i32* %.addr, align 4
  %this1 = load %"struct.boost::graph::maybe_named_graph"** %this.addr
  ret void
}

define linkonce_odr void @_ZN5boost6detail22remove_vertex_dispatchINS_14adjacency_listINS_4vecSES3_NS_14bidirectionalSENS_8propertyINS_14vertex_color_tENS_18default_color_typeENS5_INS_17vertex_distance_tEiNS5_INS_15vertex_degree_tEiNS5_INS_18vertex_in_degree_tEiNS5_INS_19vertex_out_degree_tEiNS_11no_propertyEEEEEEEEEEENS5_INS_13edge_weight_tEiSC_EESC_NS_5listSEEEjEEvRT_T0_NS_17bidirectional_tagE(%"class.boost::adjacency_list"* %g, i32 %u) inlinehint {
entry:
  %g.addr = alloca %"class.boost::adjacency_list"*, align 4
  %u.addr = alloca i32, align 4
  %0 = alloca %"struct.boost::bidirectional_tag", align 1
  %agg.tmp = alloca %"class.__gnu_cxx::__normal_iterator", align 4
  %tmp = alloca %"class.__gnu_cxx::__normal_iterator", align 4
  %ref.tmp = alloca i32, align 4
  %tmp2 = alloca %"class.__gnu_cxx::__normal_iterator", align 4
  %V = alloca i32, align 4
  %v = alloca i32, align 4
  %agg.tmp7 = alloca %"struct.boost::allow_parallel_edge_tag", align 1
  %agg.tmp12 = alloca %"struct.boost::allow_parallel_edge_tag", align 1
  %ei = alloca %"struct.std::_List_iterator", align 4
  %ei_end = alloca %"struct.std::_List_iterator", align 4
  store %"class.boost::adjacency_list"* %g, %"class.boost::adjacency_list"** %g.addr, align 4
  store i32 %u, i32* %u.addr, align 4
  %1 = load %"class.boost::adjacency_list"** %g.addr, align 4
  %2 = bitcast %"class.boost::adjacency_list"* %1 to %"class.boost::vec_adj_list_impl"*
  %m_vertices = getelementptr inbounds %"class.boost::vec_adj_list_impl"* %2, i32 0, i32 1
  %3 = load %"class.boost::adjacency_list"** %g.addr, align 4
  %4 = bitcast %"class.boost::adjacency_list"* %3 to %"class.boost::vec_adj_list_impl"*
  %m_vertices1 = getelementptr inbounds %"class.boost::vec_adj_list_impl"* %4, i32 0, i32 1
  call void @_ZNSt6vectorIN5boost6detail12adj_list_genINS0_14adjacency_listINS0_4vecSES4_NS0_14bidirectionalSENS0_8propertyINS0_14vertex_color_tENS0_18default_color_typeENS6_INS0_17vertex_distance_tEiNS6_INS0_15vertex_degree_tEiNS6_INS0_18vertex_in_degree_tEiNS6_INS0_19vertex_out_degree_tEiNS0_11no_propertyEEEEEEEEEEENS6_INS0_13edge_weight_tEiSD_EESD_NS0_5listSEEES4_S4_S5_SI_SK_SD_SL_E6config13stored_vertexESaISP_EE5beginEv(%"class.__gnu_cxx::__normal_iterator"* sret %tmp, %"class.std::vector"* %m_vertices1)
  %5 = load i32* %u.addr, align 4
  store i32 %5, i32* %ref.tmp, align 4
  call void @_ZNK9__gnu_cxx17__normal_iteratorIPN5boost6detail12adj_list_genINS1_14adjacency_listINS1_4vecSES5_NS1_14bidirectionalSENS1_8propertyINS1_14vertex_color_tENS1_18default_color_typeENS7_INS1_17vertex_distance_tEiNS7_INS1_15vertex_degree_tEiNS7_INS1_18vertex_in_degree_tEiNS7_INS1_19vertex_out_degree_tEiNS1_11no_propertyEEEEEEEEEEENS7_INS1_13edge_weight_tEiSE_EESE_NS1_5listSEEES5_S5_S6_SJ_SL_SE_SM_E6config13stored_vertexESt6vectorISQ_SaISQ_EEEplERKi(%"class.__gnu_cxx::__normal_iterator"* sret %agg.tmp, %"class.__gnu_cxx::__normal_iterator"* %tmp, i32* %ref.tmp)
  call void @_ZNSt6vectorIN5boost6detail12adj_list_genINS0_14adjacency_listINS0_4vecSES4_NS0_14bidirectionalSENS0_8propertyINS0_14vertex_color_tENS0_18default_color_typeENS6_INS0_17vertex_distance_tEiNS6_INS0_15vertex_degree_tEiNS6_INS0_18vertex_in_degree_tEiNS6_INS0_19vertex_out_degree_tEiNS0_11no_propertyEEEEEEEEEEENS6_INS0_13edge_weight_tEiSD_EESD_NS0_5listSEEES4_S4_S5_SI_SK_SD_SL_E6config13stored_vertexESaISP_EE5eraseEN9__gnu_cxx17__normal_iteratorIPSP_SR_EE(%"class.__gnu_cxx::__normal_iterator"* sret %tmp2, %"class.std::vector"* %m_vertices, %"class.__gnu_cxx::__normal_iterator"* byval align 4 %agg.tmp)
  %6 = load %"class.boost::adjacency_list"** %g.addr, align 4
  %7 = bitcast %"class.boost::adjacency_list"* %6 to %"struct.boost::adj_list_helper"*
  %call = call i32 @_ZN5boost12num_verticesINS_6detail12adj_list_genINS_14adjacency_listINS_4vecSES4_NS_14bidirectionalSENS_8propertyINS_14vertex_color_tENS_18default_color_typeENS6_INS_17vertex_distance_tEiNS6_INS_15vertex_degree_tEiNS6_INS_18vertex_in_degree_tEiNS6_INS_19vertex_out_degree_tEiNS_11no_propertyEEEEEEEEEEENS6_INS_13edge_weight_tEiSD_EESD_NS_5listSEEES4_S4_S5_SI_SK_SD_SL_E6configENS_40bidirectional_graph_helper_with_propertyISO_EEEENT_18vertices_size_typeERKNS_15adj_list_helperISR_T0_EE(%"struct.boost::adj_list_helper"* %7)
  store i32 %call, i32* %V, align 4
  %8 = load i32* %u.addr, align 4
  %9 = load i32* %V, align 4
  %cmp = icmp ne i32 %8, %9
  br i1 %cmp, label %if.then, label %if.end37

if.then:                                          ; preds = %entry
  store i32 0, i32* %v, align 4
  br label %for.cond

for.cond:                                         ; preds = %for.inc, %if.then
  %10 = load i32* %v, align 4
  %11 = load i32* %V, align 4
  %cmp5 = icmp ult i32 %10, %11
  br i1 %cmp5, label %for.body, label %for.end

for.body:                                         ; preds = %for.cond
  %12 = load %"class.boost::adjacency_list"** %g.addr, align 4
  %13 = bitcast %"class.boost::adjacency_list"* %12 to %"class.boost::vec_adj_list_impl"*
  %14 = load i32* %v, align 4
  %call6 = call %"class.std::vector.3"* @_ZN5boost17vec_adj_list_implINS_14adjacency_listINS_4vecSES2_NS_14bidirectionalSENS_8propertyINS_14vertex_color_tENS_18default_color_typeENS4_INS_17vertex_distance_tEiNS4_INS_15vertex_degree_tEiNS4_INS_18vertex_in_degree_tEiNS4_INS_19vertex_out_degree_tEiNS_11no_propertyEEEEEEEEEEENS4_INS_13edge_weight_tEiSB_EESB_NS_5listSEEENS_6detail12adj_list_genISK_S2_S2_S3_SG_SI_SB_SJ_E6configENS_40bidirectional_graph_helper_with_propertyISO_EEE13out_edge_listEj(%"class.boost::vec_adj_list_impl"* %13, i32 %14)
  %15 = load i32* %u.addr, align 4
  call void @_ZN5boost6detail17reindex_edge_listISt6vectorINS0_16stored_edge_iterIjSt14_List_iteratorINS_9list_edgeIjNS_8propertyINS_13edge_weight_tEiNS_11no_propertyEEEEEES9_EESaISC_EEjEEvRT_T0_NS_23allow_parallel_edge_tagE(%"class.std::vector.3"* %call6, i32 %15)
  br label %for.inc

for.inc:                                          ; preds = %for.body
  %16 = load i32* %v, align 4
  %inc = add i32 %16, 1
  store i32 %inc, i32* %v, align 4
  br label %for.cond

for.end:                                          ; preds = %for.cond
  store i32 0, i32* %v, align 4
  br label %for.cond8

for.cond8:                                        ; preds = %for.inc13, %for.end
  %17 = load i32* %v, align 4
  %18 = load i32* %V, align 4
  %cmp9 = icmp ult i32 %17, %18
  br i1 %cmp9, label %for.body10, label %for.end15

for.body10:                                       ; preds = %for.cond8
  %19 = load %"class.boost::adjacency_list"** %g.addr, align 4
  %20 = bitcast %"class.boost::adjacency_list"* %19 to %"class.boost::vec_adj_list_impl"*
  %21 = load i32* %v, align 4
  %call11 = call %"class.std::vector.3"* @_ZN5boost12in_edge_listINS_14adjacency_listINS_4vecSES2_NS_14bidirectionalSENS_8propertyINS_14vertex_color_tENS_18default_color_typeENS4_INS_17vertex_distance_tEiNS4_INS_15vertex_degree_tEiNS4_INS_18vertex_in_degree_tEiNS4_INS_19vertex_out_degree_tEiNS_11no_propertyEEEEEEEEEEENS4_INS_13edge_weight_tEiSB_EESB_NS_5listSEEENS_6detail12adj_list_genISK_S2_S2_S3_SG_SI_SB_SJ_E6configENS_40bidirectional_graph_helper_with_propertyISO_EEEERNT0_10InEdgeListERNS_17vec_adj_list_implIT_SR_T1_EENSR_17vertex_descriptorE(%"class.boost::vec_adj_list_impl"* %20, i32 %21)
  %22 = load i32* %u.addr, align 4
  call void @_ZN5boost6detail17reindex_edge_listISt6vectorINS0_16stored_edge_iterIjSt14_List_iteratorINS_9list_edgeIjNS_8propertyINS_13edge_weight_tEiNS_11no_propertyEEEEEES9_EESaISC_EEjEEvRT_T0_NS_23allow_parallel_edge_tagE(%"class.std::vector.3"* %call11, i32 %22)
  br label %for.inc13

for.inc13:                                        ; preds = %for.body10
  %23 = load i32* %v, align 4
  %inc14 = add i32 %23, 1
  store i32 %inc14, i32* %v, align 4
  br label %for.cond8

for.end15:                                        ; preds = %for.cond8
  %24 = load %"class.boost::adjacency_list"** %g.addr, align 4
  %25 = bitcast %"class.boost::adjacency_list"* %24 to %"class.boost::vec_adj_list_impl"*
  %m_edges = getelementptr inbounds %"class.boost::vec_adj_list_impl"* %25, i32 0, i32 0
  call void @_ZNSt4listIN5boost9list_edgeIjNS0_8propertyINS0_13edge_weight_tEiNS0_11no_propertyEEEEESaIS6_EE5beginEv(%"struct.std::_List_iterator"* sret %ei, %"class.std::list"* %m_edges)
  %26 = load %"class.boost::adjacency_list"** %g.addr, align 4
  %27 = bitcast %"class.boost::adjacency_list"* %26 to %"class.boost::vec_adj_list_impl"*
  %m_edges18 = getelementptr inbounds %"class.boost::vec_adj_list_impl"* %27, i32 0, i32 0
  call void @_ZNSt4listIN5boost9list_edgeIjNS0_8propertyINS0_13edge_weight_tEiNS0_11no_propertyEEEEESaIS6_EE3endEv(%"struct.std::_List_iterator"* sret %ei_end, %"class.std::list"* %m_edges18)
  br label %for.cond19

for.cond19:                                       ; preds = %for.inc34, %for.end15
  %call20 = call zeroext i1 @_ZNKSt14_List_iteratorIN5boost9list_edgeIjNS0_8propertyINS0_13edge_weight_tEiNS0_11no_propertyEEEEEEneERKS7_(%"struct.std::_List_iterator"* %ei, %"struct.std::_List_iterator"* %ei_end)
  br i1 %call20, label %for.body21, label %for.end36

for.body21:                                       ; preds = %for.cond19
  %call22 = call %"struct.boost::list_edge"* @_ZNKSt14_List_iteratorIN5boost9list_edgeIjNS0_8propertyINS0_13edge_weight_tEiNS0_11no_propertyEEEEEEptEv(%"struct.std::_List_iterator"* %ei)
  %28 = bitcast %"struct.boost::list_edge"* %call22 to %"struct.boost::detail::edge_base.12"*
  %m_source = getelementptr inbounds %"struct.boost::detail::edge_base.12"* %28, i32 0, i32 0
  %29 = load i32* %m_source, align 4
  %30 = load i32* %u.addr, align 4
  %cmp23 = icmp ugt i32 %29, %30
  br i1 %cmp23, label %if.then24, label %if.end

if.then24:                                        ; preds = %for.body21
  %call25 = call %"struct.boost::list_edge"* @_ZNKSt14_List_iteratorIN5boost9list_edgeIjNS0_8propertyINS0_13edge_weight_tEiNS0_11no_propertyEEEEEEptEv(%"struct.std::_List_iterator"* %ei)
  %31 = bitcast %"struct.boost::list_edge"* %call25 to %"struct.boost::detail::edge_base.12"*
  %m_source26 = getelementptr inbounds %"struct.boost::detail::edge_base.12"* %31, i32 0, i32 0
  %32 = load i32* %m_source26, align 4
  %dec = add i32 %32, -1
  store i32 %dec, i32* %m_source26, align 4
  br label %if.end

if.end:                                           ; preds = %if.then24, %for.body21
  %call27 = call %"struct.boost::list_edge"* @_ZNKSt14_List_iteratorIN5boost9list_edgeIjNS0_8propertyINS0_13edge_weight_tEiNS0_11no_propertyEEEEEEptEv(%"struct.std::_List_iterator"* %ei)
  %33 = bitcast %"struct.boost::list_edge"* %call27 to %"struct.boost::detail::edge_base.12"*
  %m_target = getelementptr inbounds %"struct.boost::detail::edge_base.12"* %33, i32 0, i32 1
  %34 = load i32* %m_target, align 4
  %35 = load i32* %u.addr, align 4
  %cmp28 = icmp ugt i32 %34, %35
  br i1 %cmp28, label %if.then29, label %if.end33

if.then29:                                        ; preds = %if.end
  %call30 = call %"struct.boost::list_edge"* @_ZNKSt14_List_iteratorIN5boost9list_edgeIjNS0_8propertyINS0_13edge_weight_tEiNS0_11no_propertyEEEEEEptEv(%"struct.std::_List_iterator"* %ei)
  %36 = bitcast %"struct.boost::list_edge"* %call30 to %"struct.boost::detail::edge_base.12"*
  %m_target31 = getelementptr inbounds %"struct.boost::detail::edge_base.12"* %36, i32 0, i32 1
  %37 = load i32* %m_target31, align 4
  %dec32 = add i32 %37, -1
  store i32 %dec32, i32* %m_target31, align 4
  br label %if.end33

if.end33:                                         ; preds = %if.then29, %if.end
  br label %for.inc34

for.inc34:                                        ; preds = %if.end33
  %call35 = call %"struct.std::_List_iterator"* @_ZNSt14_List_iteratorIN5boost9list_edgeIjNS0_8propertyINS0_13edge_weight_tEiNS0_11no_propertyEEEEEEppEv(%"struct.std::_List_iterator"* %ei)
  br label %for.cond19

for.end36:                                        ; preds = %for.cond19
  br label %if.end37

if.end37:                                         ; preds = %for.end36, %entry
  ret void
}

define linkonce_odr void @_ZNSt6vectorIN5boost6detail12adj_list_genINS0_14adjacency_listINS0_4vecSES4_NS0_14bidirectionalSENS0_8propertyINS0_14vertex_color_tENS0_18default_color_typeENS6_INS0_17vertex_distance_tEiNS6_INS0_15vertex_degree_tEiNS6_INS0_18vertex_in_degree_tEiNS6_INS0_19vertex_out_degree_tEiNS0_11no_propertyEEEEEEEEEEENS6_INS0_13edge_weight_tEiSD_EESD_NS0_5listSEEES4_S4_S5_SI_SK_SD_SL_E6config13stored_vertexESaISP_EE5eraseEN9__gnu_cxx17__normal_iteratorIPSP_SR_EE(%"class.__gnu_cxx::__normal_iterator"* noalias sret %agg.result, %"class.std::vector"* %this, %"class.__gnu_cxx::__normal_iterator"* byval align 4 %__position) align 2 {
entry:
  %this.addr = alloca %"class.std::vector"*, align 4
  %ref.tmp = alloca %"class.__gnu_cxx::__normal_iterator", align 4
  %ref.tmp2 = alloca i32, align 4
  %ref.tmp3 = alloca %"class.__gnu_cxx::__normal_iterator", align 4
  %agg.tmp = alloca %"class.__gnu_cxx::__normal_iterator", align 4
  %ref.tmp4 = alloca i32, align 4
  %agg.tmp5 = alloca %"class.__gnu_cxx::__normal_iterator", align 4
  %agg.tmp6 = alloca %"class.__gnu_cxx::__normal_iterator", align 4
  %tmp = alloca %"class.__gnu_cxx::__normal_iterator", align 4
  store %"class.std::vector"* %this, %"class.std::vector"** %this.addr, align 4
  %this1 = load %"class.std::vector"** %this.addr
  store i32 1, i32* %ref.tmp2, align 4
  call void @_ZNK9__gnu_cxx17__normal_iteratorIPN5boost6detail12adj_list_genINS1_14adjacency_listINS1_4vecSES5_NS1_14bidirectionalSENS1_8propertyINS1_14vertex_color_tENS1_18default_color_typeENS7_INS1_17vertex_distance_tEiNS7_INS1_15vertex_degree_tEiNS7_INS1_18vertex_in_degree_tEiNS7_INS1_19vertex_out_degree_tEiNS1_11no_propertyEEEEEEEEEEENS7_INS1_13edge_weight_tEiSE_EESE_NS1_5listSEEES5_S5_S6_SJ_SL_SE_SM_E6config13stored_vertexESt6vectorISQ_SaISQ_EEEplERKi(%"class.__gnu_cxx::__normal_iterator"* sret %ref.tmp, %"class.__gnu_cxx::__normal_iterator"* %__position, i32* %ref.tmp2)
  call void @_ZNSt6vectorIN5boost6detail12adj_list_genINS0_14adjacency_listINS0_4vecSES4_NS0_14bidirectionalSENS0_8propertyINS0_14vertex_color_tENS0_18default_color_typeENS6_INS0_17vertex_distance_tEiNS6_INS0_15vertex_degree_tEiNS6_INS0_18vertex_in_degree_tEiNS6_INS0_19vertex_out_degree_tEiNS0_11no_propertyEEEEEEEEEEENS6_INS0_13edge_weight_tEiSD_EESD_NS0_5listSEEES4_S4_S5_SI_SK_SD_SL_E6config13stored_vertexESaISP_EE3endEv(%"class.__gnu_cxx::__normal_iterator"* sret %ref.tmp3, %"class.std::vector"* %this1)
  %call = call zeroext i1 @_ZN9__gnu_cxxneIPN5boost6detail12adj_list_genINS1_14adjacency_listINS1_4vecSES5_NS1_14bidirectionalSENS1_8propertyINS1_14vertex_color_tENS1_18default_color_typeENS7_INS1_17vertex_distance_tEiNS7_INS1_15vertex_degree_tEiNS7_INS1_18vertex_in_degree_tEiNS7_INS1_19vertex_out_degree_tEiNS1_11no_propertyEEEEEEEEEEENS7_INS1_13edge_weight_tEiSE_EESE_NS1_5listSEEES5_S5_S6_SJ_SL_SE_SM_E6config13stored_vertexESt6vectorISQ_SaISQ_EEEEbRKNS_17__normal_iteratorIT_T0_EES10_(%"class.__gnu_cxx::__normal_iterator"* %ref.tmp, %"class.__gnu_cxx::__normal_iterator"* %ref.tmp3)
  br i1 %call, label %if.then, label %if.end

if.then:                                          ; preds = %entry
  store i32 1, i32* %ref.tmp4, align 4
  call void @_ZNK9__gnu_cxx17__normal_iteratorIPN5boost6detail12adj_list_genINS1_14adjacency_listINS1_4vecSES5_NS1_14bidirectionalSENS1_8propertyINS1_14vertex_color_tENS1_18default_color_typeENS7_INS1_17vertex_distance_tEiNS7_INS1_15vertex_degree_tEiNS7_INS1_18vertex_in_degree_tEiNS7_INS1_19vertex_out_degree_tEiNS1_11no_propertyEEEEEEEEEEENS7_INS1_13edge_weight_tEiSE_EESE_NS1_5listSEEES5_S5_S6_SJ_SL_SE_SM_E6config13stored_vertexESt6vectorISQ_SaISQ_EEEplERKi(%"class.__gnu_cxx::__normal_iterator"* sret %agg.tmp, %"class.__gnu_cxx::__normal_iterator"* %__position, i32* %ref.tmp4)
  call void @_ZNSt6vectorIN5boost6detail12adj_list_genINS0_14adjacency_listINS0_4vecSES4_NS0_14bidirectionalSENS0_8propertyINS0_14vertex_color_tENS0_18default_color_typeENS6_INS0_17vertex_distance_tEiNS6_INS0_15vertex_degree_tEiNS6_INS0_18vertex_in_degree_tEiNS6_INS0_19vertex_out_degree_tEiNS0_11no_propertyEEEEEEEEEEENS6_INS0_13edge_weight_tEiSD_EESD_NS0_5listSEEES4_S4_S5_SI_SK_SD_SL_E6config13stored_vertexESaISP_EE3endEv(%"class.__gnu_cxx::__normal_iterator"* sret %agg.tmp5, %"class.std::vector"* %this1)
  %0 = bitcast %"class.__gnu_cxx::__normal_iterator"* %agg.tmp6 to i8*
  %1 = bitcast %"class.__gnu_cxx::__normal_iterator"* %__position to i8*
  call void @llvm.memcpy.p0i8.p0i8.i32(i8* %0, i8* %1, i32 4, i32 4, i1 false)
  call void @_ZSt4copyIN9__gnu_cxx17__normal_iteratorIPN5boost6detail12adj_list_genINS2_14adjacency_listINS2_4vecSES6_NS2_14bidirectionalSENS2_8propertyINS2_14vertex_color_tENS2_18default_color_typeENS8_INS2_17vertex_distance_tEiNS8_INS2_15vertex_degree_tEiNS8_INS2_18vertex_in_degree_tEiNS8_INS2_19vertex_out_degree_tEiNS2_11no_propertyEEEEEEEEEEENS8_INS2_13edge_weight_tEiSF_EESF_NS2_5listSEEES6_S6_S7_SK_SM_SF_SN_E6config13stored_vertexESt6vectorISR_SaISR_EEEESW_ET0_T_SY_SX_(%"class.__gnu_cxx::__normal_iterator"* sret %tmp, %"class.__gnu_cxx::__normal_iterator"* byval align 4 %agg.tmp, %"class.__gnu_cxx::__normal_iterator"* byval align 4 %agg.tmp5, %"class.__gnu_cxx::__normal_iterator"* byval align 4 %agg.tmp6)
  br label %if.end

if.end:                                           ; preds = %if.then, %entry
  %2 = bitcast %"class.std::vector"* %this1 to %"struct.std::_Vector_base"*
  %_M_impl = getelementptr inbounds %"struct.std::_Vector_base"* %2, i32 0, i32 0
  %_M_finish = getelementptr inbounds %"struct.std::_Vector_base<boost::detail::adj_list_gen<boost::adjacency_list<boost::vecS, boost::vecS, boost::bidirectionalS, boost::property<boost::vertex_color_t, boost::default_color_type, boost::property<boost::vertex_distance_t, int, boost::property<boost::vertex_degree_t, int, boost::property<boost::vertex_in_degree_t, int, boost::property<boost::vertex_out_degree_t, int, boost::no_property> > > > >, boost::property<boost::edge_weight_t, int, boost::no_property>, boost::no_property, boost::listS>, boost::vecS, boost::vecS, boost::bidirectionalS, boost::property<boost::vertex_color_t, boost::default_color_type, boost::property<boost::vertex_distance_t, int, boost::property<boost::vertex_degree_t, int, boost::property<boost::vertex_in_degree_t, int, boost::property<boost::vertex_out_degree_t, int, boost::no_property> > > > >, boost::property<boost::edge_weight_t, int, boost::no_property>, boost::no_property, boost::listS>::config::stored_vertex, std::allocator<boost::detail::adj_list_gen<boost::adjacency_list<boost::vecS, boost::vecS, boost::bidirectionalS, boost::property<boost::vertex_color_t, boost::default_color_type, boost::property<boost::vertex_distance_t, int, boost::property<boost::vertex_degree_t, int, boost::property<boost::vertex_in_degree_t, int, boost::property<boost::vertex_out_degree_t, int, boost::no_property> > > > >, boost::property<boost::edge_weight_t, int, boost::no_property>, boost::no_property, boost::listS>, boost::vecS, boost::vecS, boost::bidirectionalS, boost::property<boost::vertex_color_t, boost::default_color_type, boost::property<boost::vertex_distance_t, int, boost::property<boost::vertex_degree_t, int, boost::property<boost::vertex_in_degree_t, int, boost::property<boost::vertex_out_degree_t, int, boost::no_property> > > > >, boost::property<boost::edge_weight_t, int, boost::no_property>, boost::no_property, boost::listS>::config::stored_vertex> >::_Vector_impl"* %_M_impl, i32 0, i32 1
  %3 = load %"struct.boost::detail::adj_list_gen<boost::adjacency_list<boost::vecS, boost::vecS, boost::bidirectionalS, boost::property<boost::vertex_color_t, boost::default_color_type, boost::property<boost::vertex_distance_t, int, boost::property<boost::vertex_degree_t, int, boost::property<boost::vertex_in_degree_t, int, boost::property<boost::vertex_out_degree_t, int, boost::no_property> > > > >, boost::property<boost::edge_weight_t, int, boost::no_property>, boost::no_property, boost::listS>, boost::vecS, boost::vecS, boost::bidirectionalS, boost::property<boost::vertex_color_t, boost::default_color_type, boost::property<boost::vertex_distance_t, int, boost::property<boost::vertex_degree_t, int, boost::property<boost::vertex_in_degree_t, int, boost::property<boost::vertex_out_degree_t, int, boost::no_property> > > > >, boost::property<boost::edge_weight_t, int, boost::no_property>, boost::no_property, boost::listS>::config::stored_vertex"** %_M_finish, align 4
  %incdec.ptr = getelementptr inbounds %"struct.boost::detail::adj_list_gen<boost::adjacency_list<boost::vecS, boost::vecS, boost::bidirectionalS, boost::property<boost::vertex_color_t, boost::default_color_type, boost::property<boost::vertex_distance_t, int, boost::property<boost::vertex_degree_t, int, boost::property<boost::vertex_in_degree_t, int, boost::property<boost::vertex_out_degree_t, int, boost::no_property> > > > >, boost::property<boost::edge_weight_t, int, boost::no_property>, boost::no_property, boost::listS>, boost::vecS, boost::vecS, boost::bidirectionalS, boost::property<boost::vertex_color_t, boost::default_color_type, boost::property<boost::vertex_distance_t, int, boost::property<boost::vertex_degree_t, int, boost::property<boost::vertex_in_degree_t, int, boost::property<boost::vertex_out_degree_t, int, boost::no_property> > > > >, boost::property<boost::edge_weight_t, int, boost::no_property>, boost::no_property, boost::listS>::config::stored_vertex"* %3, i32 -1
  store %"struct.boost::detail::adj_list_gen<boost::adjacency_list<boost::vecS, boost::vecS, boost::bidirectionalS, boost::property<boost::vertex_color_t, boost::default_color_type, boost::property<boost::vertex_distance_t, int, boost::property<boost::vertex_degree_t, int, boost::property<boost::vertex_in_degree_t, int, boost::property<boost::vertex_out_degree_t, int, boost::no_property> > > > >, boost::property<boost::edge_weight_t, int, boost::no_property>, boost::no_property, boost::listS>, boost::vecS, boost::vecS, boost::bidirectionalS, boost::property<boost::vertex_color_t, boost::default_color_type, boost::property<boost::vertex_distance_t, int, boost::property<boost::vertex_degree_t, int, boost::property<boost::vertex_in_degree_t, int, boost::property<boost::vertex_out_degree_t, int, boost::no_property> > > > >, boost::property<boost::edge_weight_t, int, boost::no_property>, boost::no_property, boost::listS>::config::stored_vertex"* %incdec.ptr, %"struct.boost::detail::adj_list_gen<boost::adjacency_list<boost::vecS, boost::vecS, boost::bidirectionalS, boost::property<boost::vertex_color_t, boost::default_color_type, boost::property<boost::vertex_distance_t, int, boost::property<boost::vertex_degree_t, int, boost::property<boost::vertex_in_degree_t, int, boost::property<boost::vertex_out_degree_t, int, boost::no_property> > > > >, boost::property<boost::edge_weight_t, int, boost::no_property>, boost::no_property, boost::listS>, boost::vecS, boost::vecS, boost::bidirectionalS, boost::property<boost::vertex_color_t, boost::default_color_type, boost::property<boost::vertex_distance_t, int, boost::property<boost::vertex_degree_t, int, boost::property<boost::vertex_in_degree_t, int, boost::property<boost::vertex_out_degree_t, int, boost::no_property> > > > >, boost::property<boost::edge_weight_t, int, boost::no_property>, boost::no_property, boost::listS>::config::stored_vertex"** %_M_finish, align 4
  %4 = bitcast %"class.std::vector"* %this1 to %"struct.std::_Vector_base"*
  %_M_impl7 = getelementptr inbounds %"struct.std::_Vector_base"* %4, i32 0, i32 0
  %5 = bitcast %"struct.std::_Vector_base<boost::detail::adj_list_gen<boost::adjacency_list<boost::vecS, boost::vecS, boost::bidirectionalS, boost::property<boost::vertex_color_t, boost::default_color_type, boost::property<boost::vertex_distance_t, int, boost::property<boost::vertex_degree_t, int, boost::property<boost::vertex_in_degree_t, int, boost::property<boost::vertex_out_degree_t, int, boost::no_property> > > > >, boost::property<boost::edge_weight_t, int, boost::no_property>, boost::no_property, boost::listS>, boost::vecS, boost::vecS, boost::bidirectionalS, boost::property<boost::vertex_color_t, boost::default_color_type, boost::property<boost::vertex_distance_t, int, boost::property<boost::vertex_degree_t, int, boost::property<boost::vertex_in_degree_t, int, boost::property<boost::vertex_out_degree_t, int, boost::no_property> > > > >, boost::property<boost::edge_weight_t, int, boost::no_property>, boost::no_property, boost::listS>::config::stored_vertex, std::allocator<boost::detail::adj_list_gen<boost::adjacency_list<boost::vecS, boost::vecS, boost::bidirectionalS, boost::property<boost::vertex_color_t, boost::default_color_type, boost::property<boost::vertex_distance_t, int, boost::property<boost::vertex_degree_t, int, boost::property<boost::vertex_in_degree_t, int, boost::property<boost::vertex_out_degree_t, int, boost::no_property> > > > >, boost::property<boost::edge_weight_t, int, boost::no_property>, boost::no_property, boost::listS>, boost::vecS, boost::vecS, boost::bidirectionalS, boost::property<boost::vertex_color_t, boost::default_color_type, boost::property<boost::vertex_distance_t, int, boost::property<boost::vertex_degree_t, int, boost::property<boost::vertex_in_degree_t, int, boost::property<boost::vertex_out_degree_t, int, boost::no_property> > > > >, boost::property<boost::edge_weight_t, int, boost::no_property>, boost::no_property, boost::listS>::config::stored_vertex> >::_Vector_impl"* %_M_impl7 to %"class.__gnu_cxx::new_allocator.1"*
  %6 = bitcast %"class.std::vector"* %this1 to %"struct.std::_Vector_base"*
  %_M_impl8 = getelementptr inbounds %"struct.std::_Vector_base"* %6, i32 0, i32 0
  %_M_finish9 = getelementptr inbounds %"struct.std::_Vector_base<boost::detail::adj_list_gen<boost::adjacency_list<boost::vecS, boost::vecS, boost::bidirectionalS, boost::property<boost::vertex_color_t, boost::default_color_type, boost::property<boost::vertex_distance_t, int, boost::property<boost::vertex_degree_t, int, boost::property<boost::vertex_in_degree_t, int, boost::property<boost::vertex_out_degree_t, int, boost::no_property> > > > >, boost::property<boost::edge_weight_t, int, boost::no_property>, boost::no_property, boost::listS>, boost::vecS, boost::vecS, boost::bidirectionalS, boost::property<boost::vertex_color_t, boost::default_color_type, boost::property<boost::vertex_distance_t, int, boost::property<boost::vertex_degree_t, int, boost::property<boost::vertex_in_degree_t, int, boost::property<boost::vertex_out_degree_t, int, boost::no_property> > > > >, boost::property<boost::edge_weight_t, int, boost::no_property>, boost::no_property, boost::listS>::config::stored_vertex, std::allocator<boost::detail::adj_list_gen<boost::adjacency_list<boost::vecS, boost::vecS, boost::bidirectionalS, boost::property<boost::vertex_color_t, boost::default_color_type, boost::property<boost::vertex_distance_t, int, boost::property<boost::vertex_degree_t, int, boost::property<boost::vertex_in_degree_t, int, boost::property<boost::vertex_out_degree_t, int, boost::no_property> > > > >, boost::property<boost::edge_weight_t, int, boost::no_property>, boost::no_property, boost::listS>, boost::vecS, boost::vecS, boost::bidirectionalS, boost::property<boost::vertex_color_t, boost::default_color_type, boost::property<boost::vertex_distance_t, int, boost::property<boost::vertex_degree_t, int, boost::property<boost::vertex_in_degree_t, int, boost::property<boost::vertex_out_degree_t, int, boost::no_property> > > > >, boost::property<boost::edge_weight_t, int, boost::no_property>, boost::no_property, boost::listS>::config::stored_vertex> >::_Vector_impl"* %_M_impl8, i32 0, i32 1
  %7 = load %"struct.boost::detail::adj_list_gen<boost::adjacency_list<boost::vecS, boost::vecS, boost::bidirectionalS, boost::property<boost::vertex_color_t, boost::default_color_type, boost::property<boost::vertex_distance_t, int, boost::property<boost::vertex_degree_t, int, boost::property<boost::vertex_in_degree_t, int, boost::property<boost::vertex_out_degree_t, int, boost::no_property> > > > >, boost::property<boost::edge_weight_t, int, boost::no_property>, boost::no_property, boost::listS>, boost::vecS, boost::vecS, boost::bidirectionalS, boost::property<boost::vertex_color_t, boost::default_color_type, boost::property<boost::vertex_distance_t, int, boost::property<boost::vertex_degree_t, int, boost::property<boost::vertex_in_degree_t, int, boost::property<boost::vertex_out_degree_t, int, boost::no_property> > > > >, boost::property<boost::edge_weight_t, int, boost::no_property>, boost::no_property, boost::listS>::config::stored_vertex"** %_M_finish9, align 4
  call void @_ZN9__gnu_cxx13new_allocatorIN5boost6detail12adj_list_genINS1_14adjacency_listINS1_4vecSES5_NS1_14bidirectionalSENS1_8propertyINS1_14vertex_color_tENS1_18default_color_typeENS7_INS1_17vertex_distance_tEiNS7_INS1_15vertex_degree_tEiNS7_INS1_18vertex_in_degree_tEiNS7_INS1_19vertex_out_degree_tEiNS1_11no_propertyEEEEEEEEEEENS7_INS1_13edge_weight_tEiSE_EESE_NS1_5listSEEES5_S5_S6_SJ_SL_SE_SM_E6config13stored_vertexEE7destroyEPSQ_(%"class.__gnu_cxx::new_allocator.1"* %5, %"struct.boost::detail::adj_list_gen<boost::adjacency_list<boost::vecS, boost::vecS, boost::bidirectionalS, boost::property<boost::vertex_color_t, boost::default_color_type, boost::property<boost::vertex_distance_t, int, boost::property<boost::vertex_degree_t, int, boost::property<boost::vertex_in_degree_t, int, boost::property<boost::vertex_out_degree_t, int, boost::no_property> > > > >, boost::property<boost::edge_weight_t, int, boost::no_property>, boost::no_property, boost::listS>, boost::vecS, boost::vecS, boost::bidirectionalS, boost::property<boost::vertex_color_t, boost::default_color_type, boost::property<boost::vertex_distance_t, int, boost::property<boost::vertex_degree_t, int, boost::property<boost::vertex_in_degree_t, int, boost::property<boost::vertex_out_degree_t, int, boost::no_property> > > > >, boost::property<boost::edge_weight_t, int, boost::no_property>, boost::no_property, boost::listS>::config::stored_vertex"* %7)
  %8 = bitcast %"class.__gnu_cxx::__normal_iterator"* %agg.result to i8*
  %9 = bitcast %"class.__gnu_cxx::__normal_iterator"* %__position to i8*
  call void @llvm.memcpy.p0i8.p0i8.i32(i8* %8, i8* %9, i32 4, i32 4, i1 false)
  ret void
}

define linkonce_odr void @_ZNSt6vectorIN5boost6detail12adj_list_genINS0_14adjacency_listINS0_4vecSES4_NS0_14bidirectionalSENS0_8propertyINS0_14vertex_color_tENS0_18default_color_typeENS6_INS0_17vertex_distance_tEiNS6_INS0_15vertex_degree_tEiNS6_INS0_18vertex_in_degree_tEiNS6_INS0_19vertex_out_degree_tEiNS0_11no_propertyEEEEEEEEEEENS6_INS0_13edge_weight_tEiSD_EESD_NS0_5listSEEES4_S4_S5_SI_SK_SD_SL_E6config13stored_vertexESaISP_EE5beginEv(%"class.__gnu_cxx::__normal_iterator"* noalias sret %agg.result, %"class.std::vector"* %this) align 2 {
entry:
  %this.addr = alloca %"class.std::vector"*, align 4
  store %"class.std::vector"* %this, %"class.std::vector"** %this.addr, align 4
  %this1 = load %"class.std::vector"** %this.addr
  %0 = bitcast %"class.std::vector"* %this1 to %"struct.std::_Vector_base"*
  %_M_impl = getelementptr inbounds %"struct.std::_Vector_base"* %0, i32 0, i32 0
  %_M_start = getelementptr inbounds %"struct.std::_Vector_base<boost::detail::adj_list_gen<boost::adjacency_list<boost::vecS, boost::vecS, boost::bidirectionalS, boost::property<boost::vertex_color_t, boost::default_color_type, boost::property<boost::vertex_distance_t, int, boost::property<boost::vertex_degree_t, int, boost::property<boost::vertex_in_degree_t, int, boost::property<boost::vertex_out_degree_t, int, boost::no_property> > > > >, boost::property<boost::edge_weight_t, int, boost::no_property>, boost::no_property, boost::listS>, boost::vecS, boost::vecS, boost::bidirectionalS, boost::property<boost::vertex_color_t, boost::default_color_type, boost::property<boost::vertex_distance_t, int, boost::property<boost::vertex_degree_t, int, boost::property<boost::vertex_in_degree_t, int, boost::property<boost::vertex_out_degree_t, int, boost::no_property> > > > >, boost::property<boost::edge_weight_t, int, boost::no_property>, boost::no_property, boost::listS>::config::stored_vertex, std::allocator<boost::detail::adj_list_gen<boost::adjacency_list<boost::vecS, boost::vecS, boost::bidirectionalS, boost::property<boost::vertex_color_t, boost::default_color_type, boost::property<boost::vertex_distance_t, int, boost::property<boost::vertex_degree_t, int, boost::property<boost::vertex_in_degree_t, int, boost::property<boost::vertex_out_degree_t, int, boost::no_property> > > > >, boost::property<boost::edge_weight_t, int, boost::no_property>, boost::no_property, boost::listS>, boost::vecS, boost::vecS, boost::bidirectionalS, boost::property<boost::vertex_color_t, boost::default_color_type, boost::property<boost::vertex_distance_t, int, boost::property<boost::vertex_degree_t, int, boost::property<boost::vertex_in_degree_t, int, boost::property<boost::vertex_out_degree_t, int, boost::no_property> > > > >, boost::property<boost::edge_weight_t, int, boost::no_property>, boost::no_property, boost::listS>::config::stored_vertex> >::_Vector_impl"* %_M_impl, i32 0, i32 0
  call void @_ZN9__gnu_cxx17__normal_iteratorIPN5boost6detail12adj_list_genINS1_14adjacency_listINS1_4vecSES5_NS1_14bidirectionalSENS1_8propertyINS1_14vertex_color_tENS1_18default_color_typeENS7_INS1_17vertex_distance_tEiNS7_INS1_15vertex_degree_tEiNS7_INS1_18vertex_in_degree_tEiNS7_INS1_19vertex_out_degree_tEiNS1_11no_propertyEEEEEEEEEEENS7_INS1_13edge_weight_tEiSE_EESE_NS1_5listSEEES5_S5_S6_SJ_SL_SE_SM_E6config13stored_vertexESt6vectorISQ_SaISQ_EEEC1ERKSR_(%"class.__gnu_cxx::__normal_iterator"* %agg.result, %"struct.boost::detail::adj_list_gen<boost::adjacency_list<boost::vecS, boost::vecS, boost::bidirectionalS, boost::property<boost::vertex_color_t, boost::default_color_type, boost::property<boost::vertex_distance_t, int, boost::property<boost::vertex_degree_t, int, boost::property<boost::vertex_in_degree_t, int, boost::property<boost::vertex_out_degree_t, int, boost::no_property> > > > >, boost::property<boost::edge_weight_t, int, boost::no_property>, boost::no_property, boost::listS>, boost::vecS, boost::vecS, boost::bidirectionalS, boost::property<boost::vertex_color_t, boost::default_color_type, boost::property<boost::vertex_distance_t, int, boost::property<boost::vertex_degree_t, int, boost::property<boost::vertex_in_degree_t, int, boost::property<boost::vertex_out_degree_t, int, boost::no_property> > > > >, boost::property<boost::edge_weight_t, int, boost::no_property>, boost::no_property, boost::listS>::config::stored_vertex"** %_M_start)
  ret void
}

define linkonce_odr void @_ZNK9__gnu_cxx17__normal_iteratorIPN5boost6detail12adj_list_genINS1_14adjacency_listINS1_4vecSES5_NS1_14bidirectionalSENS1_8propertyINS1_14vertex_color_tENS1_18default_color_typeENS7_INS1_17vertex_distance_tEiNS7_INS1_15vertex_degree_tEiNS7_INS1_18vertex_in_degree_tEiNS7_INS1_19vertex_out_degree_tEiNS1_11no_propertyEEEEEEEEEEENS7_INS1_13edge_weight_tEiSE_EESE_NS1_5listSEEES5_S5_S6_SJ_SL_SE_SM_E6config13stored_vertexESt6vectorISQ_SaISQ_EEEplERKi(%"class.__gnu_cxx::__normal_iterator"* noalias sret %agg.result, %"class.__gnu_cxx::__normal_iterator"* %this, i32* %__n) align 2 {
entry:
  %this.addr = alloca %"class.__gnu_cxx::__normal_iterator"*, align 4
  %__n.addr = alloca i32*, align 4
  %ref.tmp = alloca %"struct.boost::detail::adj_list_gen<boost::adjacency_list<boost::vecS, boost::vecS, boost::bidirectionalS, boost::property<boost::vertex_color_t, boost::default_color_type, boost::property<boost::vertex_distance_t, int, boost::property<boost::vertex_degree_t, int, boost::property<boost::vertex_in_degree_t, int, boost::property<boost::vertex_out_degree_t, int, boost::no_property> > > > >, boost::property<boost::edge_weight_t, int, boost::no_property>, boost::no_property, boost::listS>, boost::vecS, boost::vecS, boost::bidirectionalS, boost::property<boost::vertex_color_t, boost::default_color_type, boost::property<boost::vertex_distance_t, int, boost::property<boost::vertex_degree_t, int, boost::property<boost::vertex_in_degree_t, int, boost::property<boost::vertex_out_degree_t, int, boost::no_property> > > > >, boost::property<boost::edge_weight_t, int, boost::no_property>, boost::no_property, boost::listS>::config::stored_vertex"*, align 4
  store %"class.__gnu_cxx::__normal_iterator"* %this, %"class.__gnu_cxx::__normal_iterator"** %this.addr, align 4
  store i32* %__n, i32** %__n.addr, align 4
  %this1 = load %"class.__gnu_cxx::__normal_iterator"** %this.addr
  %_M_current = getelementptr inbounds %"class.__gnu_cxx::__normal_iterator"* %this1, i32 0, i32 0
  %0 = load %"struct.boost::detail::adj_list_gen<boost::adjacency_list<boost::vecS, boost::vecS, boost::bidirectionalS, boost::property<boost::vertex_color_t, boost::default_color_type, boost::property<boost::vertex_distance_t, int, boost::property<boost::vertex_degree_t, int, boost::property<boost::vertex_in_degree_t, int, boost::property<boost::vertex_out_degree_t, int, boost::no_property> > > > >, boost::property<boost::edge_weight_t, int, boost::no_property>, boost::no_property, boost::listS>, boost::vecS, boost::vecS, boost::bidirectionalS, boost::property<boost::vertex_color_t, boost::default_color_type, boost::property<boost::vertex_distance_t, int, boost::property<boost::vertex_degree_t, int, boost::property<boost::vertex_in_degree_t, int, boost::property<boost::vertex_out_degree_t, int, boost::no_property> > > > >, boost::property<boost::edge_weight_t, int, boost::no_property>, boost::no_property, boost::listS>::config::stored_vertex"** %_M_current, align 4
  %1 = load i32** %__n.addr, align 4
  %2 = load i32* %1, align 4
  %add.ptr = getelementptr inbounds %"struct.boost::detail::adj_list_gen<boost::adjacency_list<boost::vecS, boost::vecS, boost::bidirectionalS, boost::property<boost::vertex_color_t, boost::default_color_type, boost::property<boost::vertex_distance_t, int, boost::property<boost::vertex_degree_t, int, boost::property<boost::vertex_in_degree_t, int, boost::property<boost::vertex_out_degree_t, int, boost::no_property> > > > >, boost::property<boost::edge_weight_t, int, boost::no_property>, boost::no_property, boost::listS>, boost::vecS, boost::vecS, boost::bidirectionalS, boost::property<boost::vertex_color_t, boost::default_color_type, boost::property<boost::vertex_distance_t, int, boost::property<boost::vertex_degree_t, int, boost::property<boost::vertex_in_degree_t, int, boost::property<boost::vertex_out_degree_t, int, boost::no_property> > > > >, boost::property<boost::edge_weight_t, int, boost::no_property>, boost::no_property, boost::listS>::config::stored_vertex"* %0, i32 %2
  store %"struct.boost::detail::adj_list_gen<boost::adjacency_list<boost::vecS, boost::vecS, boost::bidirectionalS, boost::property<boost::vertex_color_t, boost::default_color_type, boost::property<boost::vertex_distance_t, int, boost::property<boost::vertex_degree_t, int, boost::property<boost::vertex_in_degree_t, int, boost::property<boost::vertex_out_degree_t, int, boost::no_property> > > > >, boost::property<boost::edge_weight_t, int, boost::no_property>, boost::no_property, boost::listS>, boost::vecS, boost::vecS, boost::bidirectionalS, boost::property<boost::vertex_color_t, boost::default_color_type, boost::property<boost::vertex_distance_t, int, boost::property<boost::vertex_degree_t, int, boost::property<boost::vertex_in_degree_t, int, boost::property<boost::vertex_out_degree_t, int, boost::no_property> > > > >, boost::property<boost::edge_weight_t, int, boost::no_property>, boost::no_property, boost::listS>::config::stored_vertex"* %add.ptr, %"struct.boost::detail::adj_list_gen<boost::adjacency_list<boost::vecS, boost::vecS, boost::bidirectionalS, boost::property<boost::vertex_color_t, boost::default_color_type, boost::property<boost::vertex_distance_t, int, boost::property<boost::vertex_degree_t, int, boost::property<boost::vertex_in_degree_t, int, boost::property<boost::vertex_out_degree_t, int, boost::no_property> > > > >, boost::property<boost::edge_weight_t, int, boost::no_property>, boost::no_property, boost::listS>, boost::vecS, boost::vecS, boost::bidirectionalS, boost::property<boost::vertex_color_t, boost::default_color_type, boost::property<boost::vertex_distance_t, int, boost::property<boost::vertex_degree_t, int, boost::property<boost::vertex_in_degree_t, int, boost::property<boost::vertex_out_degree_t, int, boost::no_property> > > > >, boost::property<boost::edge_weight_t, int, boost::no_property>, boost::no_property, boost::listS>::config::stored_vertex"** %ref.tmp, align 4
  call void @_ZN9__gnu_cxx17__normal_iteratorIPN5boost6detail12adj_list_genINS1_14adjacency_listINS1_4vecSES5_NS1_14bidirectionalSENS1_8propertyINS1_14vertex_color_tENS1_18default_color_typeENS7_INS1_17vertex_distance_tEiNS7_INS1_15vertex_degree_tEiNS7_INS1_18vertex_in_degree_tEiNS7_INS1_19vertex_out_degree_tEiNS1_11no_propertyEEEEEEEEEEENS7_INS1_13edge_weight_tEiSE_EESE_NS1_5listSEEES5_S5_S6_SJ_SL_SE_SM_E6config13stored_vertexESt6vectorISQ_SaISQ_EEEC1ERKSR_(%"class.__gnu_cxx::__normal_iterator"* %agg.result, %"struct.boost::detail::adj_list_gen<boost::adjacency_list<boost::vecS, boost::vecS, boost::bidirectionalS, boost::property<boost::vertex_color_t, boost::default_color_type, boost::property<boost::vertex_distance_t, int, boost::property<boost::vertex_degree_t, int, boost::property<boost::vertex_in_degree_t, int, boost::property<boost::vertex_out_degree_t, int, boost::no_property> > > > >, boost::property<boost::edge_weight_t, int, boost::no_property>, boost::no_property, boost::listS>, boost::vecS, boost::vecS, boost::bidirectionalS, boost::property<boost::vertex_color_t, boost::default_color_type, boost::property<boost::vertex_distance_t, int, boost::property<boost::vertex_degree_t, int, boost::property<boost::vertex_in_degree_t, int, boost::property<boost::vertex_out_degree_t, int, boost::no_property> > > > >, boost::property<boost::edge_weight_t, int, boost::no_property>, boost::no_property, boost::listS>::config::stored_vertex"** %ref.tmp)
  ret void
}

define linkonce_odr void @_ZN5boost6detail17reindex_edge_listISt6vectorINS0_16stored_edge_iterIjSt14_List_iteratorINS_9list_edgeIjNS_8propertyINS_13edge_weight_tEiNS_11no_propertyEEEEEES9_EESaISC_EEjEEvRT_T0_NS_23allow_parallel_edge_tagE(%"class.std::vector.3"* %el, i32 %u) inlinehint {
entry:
  %el.addr = alloca %"class.std::vector.3"*, align 4
  %u.addr = alloca i32, align 4
  %0 = alloca %"struct.boost::allow_parallel_edge_tag", align 1
  %ei = alloca %"class.__gnu_cxx::__normal_iterator.14", align 4
  %e_end = alloca %"class.__gnu_cxx::__normal_iterator.14", align 4
  store %"class.std::vector.3"* %el, %"class.std::vector.3"** %el.addr, align 4
  store i32 %u, i32* %u.addr, align 4
  %1 = load %"class.std::vector.3"** %el.addr, align 4
  call void @_ZNSt6vectorIN5boost6detail16stored_edge_iterIjSt14_List_iteratorINS0_9list_edgeIjNS0_8propertyINS0_13edge_weight_tEiNS0_11no_propertyEEEEEES8_EESaISB_EE5beginEv(%"class.__gnu_cxx::__normal_iterator.14"* sret %ei, %"class.std::vector.3"* %1)
  %2 = load %"class.std::vector.3"** %el.addr, align 4
  call void @_ZNSt6vectorIN5boost6detail16stored_edge_iterIjSt14_List_iteratorINS0_9list_edgeIjNS0_8propertyINS0_13edge_weight_tEiNS0_11no_propertyEEEEEES8_EESaISB_EE3endEv(%"class.__gnu_cxx::__normal_iterator.14"* sret %e_end, %"class.std::vector.3"* %2)
  br label %for.cond

for.cond:                                         ; preds = %for.inc, %entry
  %call = call zeroext i1 @_ZN9__gnu_cxxneIPN5boost6detail16stored_edge_iterIjSt14_List_iteratorINS1_9list_edgeIjNS1_8propertyINS1_13edge_weight_tEiNS1_11no_propertyEEEEEES9_EESt6vectorISC_SaISC_EEEEbRKNS_17__normal_iteratorIT_T0_EESM_(%"class.__gnu_cxx::__normal_iterator.14"* %ei, %"class.__gnu_cxx::__normal_iterator.14"* %e_end)
  br i1 %call, label %for.body, label %for.end

for.body:                                         ; preds = %for.cond
  %call1 = call %"class.boost::detail::stored_edge_iter"* @_ZNK9__gnu_cxx17__normal_iteratorIPN5boost6detail16stored_edge_iterIjSt14_List_iteratorINS1_9list_edgeIjNS1_8propertyINS1_13edge_weight_tEiNS1_11no_propertyEEEEEES9_EESt6vectorISC_SaISC_EEEdeEv(%"class.__gnu_cxx::__normal_iterator.14"* %ei)
  %3 = bitcast %"class.boost::detail::stored_edge_iter"* %call1 to %"class.boost::detail::stored_edge"*
  %call2 = call i32* @_ZNK5boost6detail11stored_edgeIjE10get_targetEv(%"class.boost::detail::stored_edge"* %3)
  %4 = load i32* %call2
  %5 = load i32* %u.addr, align 4
  %cmp = icmp ugt i32 %4, %5
  br i1 %cmp, label %if.then, label %if.end

if.then:                                          ; preds = %for.body
  %call3 = call %"class.boost::detail::stored_edge_iter"* @_ZNK9__gnu_cxx17__normal_iteratorIPN5boost6detail16stored_edge_iterIjSt14_List_iteratorINS1_9list_edgeIjNS1_8propertyINS1_13edge_weight_tEiNS1_11no_propertyEEEEEES9_EESt6vectorISC_SaISC_EEEdeEv(%"class.__gnu_cxx::__normal_iterator.14"* %ei)
  %6 = bitcast %"class.boost::detail::stored_edge_iter"* %call3 to %"class.boost::detail::stored_edge"*
  %call4 = call i32* @_ZNK5boost6detail11stored_edgeIjE10get_targetEv(%"class.boost::detail::stored_edge"* %6)
  %7 = load i32* %call4
  %dec = add i32 %7, -1
  store i32 %dec, i32* %call4
  br label %if.end

if.end:                                           ; preds = %if.then, %for.body
  br label %for.inc

for.inc:                                          ; preds = %if.end
  %call5 = call %"class.__gnu_cxx::__normal_iterator.14"* @_ZN9__gnu_cxx17__normal_iteratorIPN5boost6detail16stored_edge_iterIjSt14_List_iteratorINS1_9list_edgeIjNS1_8propertyINS1_13edge_weight_tEiNS1_11no_propertyEEEEEES9_EESt6vectorISC_SaISC_EEEppEv(%"class.__gnu_cxx::__normal_iterator.14"* %ei)
  br label %for.cond

for.end:                                          ; preds = %for.cond
  ret void
}

define linkonce_odr %"class.std::vector.3"* @_ZN5boost17vec_adj_list_implINS_14adjacency_listINS_4vecSES2_NS_14bidirectionalSENS_8propertyINS_14vertex_color_tENS_18default_color_typeENS4_INS_17vertex_distance_tEiNS4_INS_15vertex_degree_tEiNS4_INS_18vertex_in_degree_tEiNS4_INS_19vertex_out_degree_tEiNS_11no_propertyEEEEEEEEEEENS4_INS_13edge_weight_tEiSB_EESB_NS_5listSEEENS_6detail12adj_list_genISK_S2_S2_S3_SG_SI_SB_SJ_E6configENS_40bidirectional_graph_helper_with_propertyISO_EEE13out_edge_listEj(%"class.boost::vec_adj_list_impl"* %this, i32 %v) nounwind inlinehint align 2 {
entry:
  %this.addr = alloca %"class.boost::vec_adj_list_impl"*, align 4
  %v.addr = alloca i32, align 4
  store %"class.boost::vec_adj_list_impl"* %this, %"class.boost::vec_adj_list_impl"** %this.addr, align 4
  store i32 %v, i32* %v.addr, align 4
  %this1 = load %"class.boost::vec_adj_list_impl"** %this.addr
  %m_vertices = getelementptr inbounds %"class.boost::vec_adj_list_impl"* %this1, i32 0, i32 1
  %0 = load i32* %v.addr, align 4
  %call = call %"struct.boost::detail::adj_list_gen<boost::adjacency_list<boost::vecS, boost::vecS, boost::bidirectionalS, boost::property<boost::vertex_color_t, boost::default_color_type, boost::property<boost::vertex_distance_t, int, boost::property<boost::vertex_degree_t, int, boost::property<boost::vertex_in_degree_t, int, boost::property<boost::vertex_out_degree_t, int, boost::no_property> > > > >, boost::property<boost::edge_weight_t, int, boost::no_property>, boost::no_property, boost::listS>, boost::vecS, boost::vecS, boost::bidirectionalS, boost::property<boost::vertex_color_t, boost::default_color_type, boost::property<boost::vertex_distance_t, int, boost::property<boost::vertex_degree_t, int, boost::property<boost::vertex_in_degree_t, int, boost::property<boost::vertex_out_degree_t, int, boost::no_property> > > > >, boost::property<boost::edge_weight_t, int, boost::no_property>, boost::no_property, boost::listS>::config::stored_vertex"* @_ZNSt6vectorIN5boost6detail12adj_list_genINS0_14adjacency_listINS0_4vecSES4_NS0_14bidirectionalSENS0_8propertyINS0_14vertex_color_tENS0_18default_color_typeENS6_INS0_17vertex_distance_tEiNS6_INS0_15vertex_degree_tEiNS6_INS0_18vertex_in_degree_tEiNS6_INS0_19vertex_out_degree_tEiNS0_11no_propertyEEEEEEEEEEENS6_INS0_13edge_weight_tEiSD_EESD_NS0_5listSEEES4_S4_S5_SI_SK_SD_SL_E6config13stored_vertexESaISP_EEixEj(%"class.std::vector"* %m_vertices, i32 %0)
  %1 = bitcast %"struct.boost::detail::adj_list_gen<boost::adjacency_list<boost::vecS, boost::vecS, boost::bidirectionalS, boost::property<boost::vertex_color_t, boost::default_color_type, boost::property<boost::vertex_distance_t, int, boost::property<boost::vertex_degree_t, int, boost::property<boost::vertex_in_degree_t, int, boost::property<boost::vertex_out_degree_t, int, boost::no_property> > > > >, boost::property<boost::edge_weight_t, int, boost::no_property>, boost::no_property, boost::listS>, boost::vecS, boost::vecS, boost::bidirectionalS, boost::property<boost::vertex_color_t, boost::default_color_type, boost::property<boost::vertex_distance_t, int, boost::property<boost::vertex_degree_t, int, boost::property<boost::vertex_in_degree_t, int, boost::property<boost::vertex_out_degree_t, int, boost::no_property> > > > >, boost::property<boost::edge_weight_t, int, boost::no_property>, boost::no_property, boost::listS>::config::stored_vertex"* %call to %"struct.boost::detail::adj_list_gen<boost::adjacency_list<boost::vecS, boost::vecS, boost::bidirectionalS, boost::property<boost::vertex_color_t, boost::default_color_type, boost::property<boost::vertex_distance_t, int, boost::property<boost::vertex_degree_t, int, boost::property<boost::vertex_in_degree_t, int, boost::property<boost::vertex_out_degree_t, int, boost::no_property> > > > >, boost::property<boost::edge_weight_t, int, boost::no_property>, boost::no_property, boost::listS>, boost::vecS, boost::vecS, boost::bidirectionalS, boost::property<boost::vertex_color_t, boost::default_color_type, boost::property<boost::vertex_distance_t, int, boost::property<boost::vertex_degree_t, int, boost::property<boost::vertex_in_degree_t, int, boost::property<boost::vertex_out_degree_t, int, boost::no_property> > > > >, boost::property<boost::edge_weight_t, int, boost::no_property>, boost::no_property, boost::listS>::config::bidir_rand_stored_vertex"*
  %m_out_edges = getelementptr inbounds %"struct.boost::detail::adj_list_gen<boost::adjacency_list<boost::vecS, boost::vecS, boost::bidirectionalS, boost::property<boost::vertex_color_t, boost::default_color_type, boost::property<boost::vertex_distance_t, int, boost::property<boost::vertex_degree_t, int, boost::property<boost::vertex_in_degree_t, int, boost::property<boost::vertex_out_degree_t, int, boost::no_property> > > > >, boost::property<boost::edge_weight_t, int, boost::no_property>, boost::no_property, boost::listS>, boost::vecS, boost::vecS, boost::bidirectionalS, boost::property<boost::vertex_color_t, boost::default_color_type, boost::property<boost::vertex_distance_t, int, boost::property<boost::vertex_degree_t, int, boost::property<boost::vertex_in_degree_t, int, boost::property<boost::vertex_out_degree_t, int, boost::no_property> > > > >, boost::property<boost::edge_weight_t, int, boost::no_property>, boost::no_property, boost::listS>::config::bidir_rand_stored_vertex"* %1, i32 0, i32 0
  ret %"class.std::vector.3"* %m_out_edges
}

define linkonce_odr %"class.std::vector.3"* @_ZN5boost12in_edge_listINS_14adjacency_listINS_4vecSES2_NS_14bidirectionalSENS_8propertyINS_14vertex_color_tENS_18default_color_typeENS4_INS_17vertex_distance_tEiNS4_INS_15vertex_degree_tEiNS4_INS_18vertex_in_degree_tEiNS4_INS_19vertex_out_degree_tEiNS_11no_propertyEEEEEEEEEEENS4_INS_13edge_weight_tEiSB_EESB_NS_5listSEEENS_6detail12adj_list_genISK_S2_S2_S3_SG_SI_SB_SJ_E6configENS_40bidirectional_graph_helper_with_propertyISO_EEEERNT0_10InEdgeListERNS_17vec_adj_list_implIT_SR_T1_EENSR_17vertex_descriptorE(%"class.boost::vec_adj_list_impl"* %g, i32 %v) inlinehint {
entry:
  %g.addr = alloca %"class.boost::vec_adj_list_impl"*, align 4
  %v.addr = alloca i32, align 4
  store %"class.boost::vec_adj_list_impl"* %g, %"class.boost::vec_adj_list_impl"** %g.addr, align 4
  store i32 %v, i32* %v.addr, align 4
  %0 = load %"class.boost::vec_adj_list_impl"** %g.addr, align 4
  %m_vertices = getelementptr inbounds %"class.boost::vec_adj_list_impl"* %0, i32 0, i32 1
  %1 = load i32* %v.addr, align 4
  %call = call %"struct.boost::detail::adj_list_gen<boost::adjacency_list<boost::vecS, boost::vecS, boost::bidirectionalS, boost::property<boost::vertex_color_t, boost::default_color_type, boost::property<boost::vertex_distance_t, int, boost::property<boost::vertex_degree_t, int, boost::property<boost::vertex_in_degree_t, int, boost::property<boost::vertex_out_degree_t, int, boost::no_property> > > > >, boost::property<boost::edge_weight_t, int, boost::no_property>, boost::no_property, boost::listS>, boost::vecS, boost::vecS, boost::bidirectionalS, boost::property<boost::vertex_color_t, boost::default_color_type, boost::property<boost::vertex_distance_t, int, boost::property<boost::vertex_degree_t, int, boost::property<boost::vertex_in_degree_t, int, boost::property<boost::vertex_out_degree_t, int, boost::no_property> > > > >, boost::property<boost::edge_weight_t, int, boost::no_property>, boost::no_property, boost::listS>::config::stored_vertex"* @_ZNSt6vectorIN5boost6detail12adj_list_genINS0_14adjacency_listINS0_4vecSES4_NS0_14bidirectionalSENS0_8propertyINS0_14vertex_color_tENS0_18default_color_typeENS6_INS0_17vertex_distance_tEiNS6_INS0_15vertex_degree_tEiNS6_INS0_18vertex_in_degree_tEiNS6_INS0_19vertex_out_degree_tEiNS0_11no_propertyEEEEEEEEEEENS6_INS0_13edge_weight_tEiSD_EESD_NS0_5listSEEES4_S4_S5_SI_SK_SD_SL_E6config13stored_vertexESaISP_EEixEj(%"class.std::vector"* %m_vertices, i32 %1)
  %2 = bitcast %"struct.boost::detail::adj_list_gen<boost::adjacency_list<boost::vecS, boost::vecS, boost::bidirectionalS, boost::property<boost::vertex_color_t, boost::default_color_type, boost::property<boost::vertex_distance_t, int, boost::property<boost::vertex_degree_t, int, boost::property<boost::vertex_in_degree_t, int, boost::property<boost::vertex_out_degree_t, int, boost::no_property> > > > >, boost::property<boost::edge_weight_t, int, boost::no_property>, boost::no_property, boost::listS>, boost::vecS, boost::vecS, boost::bidirectionalS, boost::property<boost::vertex_color_t, boost::default_color_type, boost::property<boost::vertex_distance_t, int, boost::property<boost::vertex_degree_t, int, boost::property<boost::vertex_in_degree_t, int, boost::property<boost::vertex_out_degree_t, int, boost::no_property> > > > >, boost::property<boost::edge_weight_t, int, boost::no_property>, boost::no_property, boost::listS>::config::stored_vertex"* %call to %"struct.boost::detail::adj_list_gen<boost::adjacency_list<boost::vecS, boost::vecS, boost::bidirectionalS, boost::property<boost::vertex_color_t, boost::default_color_type, boost::property<boost::vertex_distance_t, int, boost::property<boost::vertex_degree_t, int, boost::property<boost::vertex_in_degree_t, int, boost::property<boost::vertex_out_degree_t, int, boost::no_property> > > > >, boost::property<boost::edge_weight_t, int, boost::no_property>, boost::no_property, boost::listS>, boost::vecS, boost::vecS, boost::bidirectionalS, boost::property<boost::vertex_color_t, boost::default_color_type, boost::property<boost::vertex_distance_t, int, boost::property<boost::vertex_degree_t, int, boost::property<boost::vertex_in_degree_t, int, boost::property<boost::vertex_out_degree_t, int, boost::no_property> > > > >, boost::property<boost::edge_weight_t, int, boost::no_property>, boost::no_property, boost::listS>::config::bidir_rand_stored_vertex"*
  %m_in_edges = getelementptr inbounds %"struct.boost::detail::adj_list_gen<boost::adjacency_list<boost::vecS, boost::vecS, boost::bidirectionalS, boost::property<boost::vertex_color_t, boost::default_color_type, boost::property<boost::vertex_distance_t, int, boost::property<boost::vertex_degree_t, int, boost::property<boost::vertex_in_degree_t, int, boost::property<boost::vertex_out_degree_t, int, boost::no_property> > > > >, boost::property<boost::edge_weight_t, int, boost::no_property>, boost::no_property, boost::listS>, boost::vecS, boost::vecS, boost::bidirectionalS, boost::property<boost::vertex_color_t, boost::default_color_type, boost::property<boost::vertex_distance_t, int, boost::property<boost::vertex_degree_t, int, boost::property<boost::vertex_in_degree_t, int, boost::property<boost::vertex_out_degree_t, int, boost::no_property> > > > >, boost::property<boost::edge_weight_t, int, boost::no_property>, boost::no_property, boost::listS>::config::bidir_rand_stored_vertex"* %2, i32 0, i32 1
  ret %"class.std::vector.3"* %m_in_edges
}

define linkonce_odr void @_ZNSt4listIN5boost9list_edgeIjNS0_8propertyINS0_13edge_weight_tEiNS0_11no_propertyEEEEESaIS6_EE5beginEv(%"struct.std::_List_iterator"* noalias sret %agg.result, %"class.std::list"* %this) align 2 {
entry:
  %this.addr = alloca %"class.std::list"*, align 4
  store %"class.std::list"* %this, %"class.std::list"** %this.addr, align 4
  %this1 = load %"class.std::list"** %this.addr
  %0 = bitcast %"class.std::list"* %this1 to %"class.std::_List_base"*
  %_M_impl = getelementptr inbounds %"class.std::_List_base"* %0, i32 0, i32 0
  %_M_node = getelementptr inbounds %"struct.std::_List_base<boost::list_edge<unsigned int, boost::property<boost::edge_weight_t, int, boost::no_property> >, std::allocator<boost::list_edge<unsigned int, boost::property<boost::edge_weight_t, int, boost::no_property> > > >::_List_impl"* %_M_impl, i32 0, i32 0
  %_M_next = getelementptr inbounds %"struct.std::__detail::_List_node_base"* %_M_node, i32 0, i32 0
  %1 = load %"struct.std::__detail::_List_node_base"** %_M_next, align 4
  call void @_ZNSt14_List_iteratorIN5boost9list_edgeIjNS0_8propertyINS0_13edge_weight_tEiNS0_11no_propertyEEEEEEC1EPNSt8__detail15_List_node_baseE(%"struct.std::_List_iterator"* %agg.result, %"struct.std::__detail::_List_node_base"* %1)
  ret void
}

define linkonce_odr void @_ZNSt4listIN5boost9list_edgeIjNS0_8propertyINS0_13edge_weight_tEiNS0_11no_propertyEEEEESaIS6_EE3endEv(%"struct.std::_List_iterator"* noalias sret %agg.result, %"class.std::list"* %this) align 2 {
entry:
  %this.addr = alloca %"class.std::list"*, align 4
  store %"class.std::list"* %this, %"class.std::list"** %this.addr, align 4
  %this1 = load %"class.std::list"** %this.addr
  %0 = bitcast %"class.std::list"* %this1 to %"class.std::_List_base"*
  %_M_impl = getelementptr inbounds %"class.std::_List_base"* %0, i32 0, i32 0
  %_M_node = getelementptr inbounds %"struct.std::_List_base<boost::list_edge<unsigned int, boost::property<boost::edge_weight_t, int, boost::no_property> >, std::allocator<boost::list_edge<unsigned int, boost::property<boost::edge_weight_t, int, boost::no_property> > > >::_List_impl"* %_M_impl, i32 0, i32 0
  call void @_ZNSt14_List_iteratorIN5boost9list_edgeIjNS0_8propertyINS0_13edge_weight_tEiNS0_11no_propertyEEEEEEC1EPNSt8__detail15_List_node_baseE(%"struct.std::_List_iterator"* %agg.result, %"struct.std::__detail::_List_node_base"* %_M_node)
  ret void
}

define linkonce_odr zeroext i1 @_ZNKSt14_List_iteratorIN5boost9list_edgeIjNS0_8propertyINS0_13edge_weight_tEiNS0_11no_propertyEEEEEEneERKS7_(%"struct.std::_List_iterator"* %this, %"struct.std::_List_iterator"* %__x) nounwind align 2 {
entry:
  %this.addr = alloca %"struct.std::_List_iterator"*, align 4
  %__x.addr = alloca %"struct.std::_List_iterator"*, align 4
  store %"struct.std::_List_iterator"* %this, %"struct.std::_List_iterator"** %this.addr, align 4
  store %"struct.std::_List_iterator"* %__x, %"struct.std::_List_iterator"** %__x.addr, align 4
  %this1 = load %"struct.std::_List_iterator"** %this.addr
  %_M_node = getelementptr inbounds %"struct.std::_List_iterator"* %this1, i32 0, i32 0
  %0 = load %"struct.std::__detail::_List_node_base"** %_M_node, align 4
  %1 = load %"struct.std::_List_iterator"** %__x.addr, align 4
  %_M_node2 = getelementptr inbounds %"struct.std::_List_iterator"* %1, i32 0, i32 0
  %2 = load %"struct.std::__detail::_List_node_base"** %_M_node2, align 4
  %cmp = icmp ne %"struct.std::__detail::_List_node_base"* %0, %2
  ret i1 %cmp
}

define linkonce_odr %"struct.boost::list_edge"* @_ZNKSt14_List_iteratorIN5boost9list_edgeIjNS0_8propertyINS0_13edge_weight_tEiNS0_11no_propertyEEEEEEptEv(%"struct.std::_List_iterator"* %this) align 2 {
entry:
  %this.addr = alloca %"struct.std::_List_iterator"*, align 4
  store %"struct.std::_List_iterator"* %this, %"struct.std::_List_iterator"** %this.addr, align 4
  %this1 = load %"struct.std::_List_iterator"** %this.addr
  %_M_node = getelementptr inbounds %"struct.std::_List_iterator"* %this1, i32 0, i32 0
  %0 = load %"struct.std::__detail::_List_node_base"** %_M_node, align 4
  %1 = bitcast %"struct.std::__detail::_List_node_base"* %0 to %"struct.std::_List_node"*
  %_M_data = getelementptr inbounds %"struct.std::_List_node"* %1, i32 0, i32 1
  %call = call %"struct.boost::list_edge"* @_ZSt11__addressofIN5boost9list_edgeIjNS0_8propertyINS0_13edge_weight_tEiNS0_11no_propertyEEEEEEPT_RS7_(%"struct.boost::list_edge"* %_M_data)
  ret %"struct.boost::list_edge"* %call
}

define linkonce_odr %"struct.std::_List_iterator"* @_ZNSt14_List_iteratorIN5boost9list_edgeIjNS0_8propertyINS0_13edge_weight_tEiNS0_11no_propertyEEEEEEppEv(%"struct.std::_List_iterator"* %this) nounwind align 2 {
entry:
  %this.addr = alloca %"struct.std::_List_iterator"*, align 4
  store %"struct.std::_List_iterator"* %this, %"struct.std::_List_iterator"** %this.addr, align 4
  %this1 = load %"struct.std::_List_iterator"** %this.addr
  %_M_node = getelementptr inbounds %"struct.std::_List_iterator"* %this1, i32 0, i32 0
  %0 = load %"struct.std::__detail::_List_node_base"** %_M_node, align 4
  %_M_next = getelementptr inbounds %"struct.std::__detail::_List_node_base"* %0, i32 0, i32 0
  %1 = load %"struct.std::__detail::_List_node_base"** %_M_next, align 4
  %_M_node2 = getelementptr inbounds %"struct.std::_List_iterator"* %this1, i32 0, i32 0
  store %"struct.std::__detail::_List_node_base"* %1, %"struct.std::__detail::_List_node_base"** %_M_node2, align 4
  ret %"struct.std::_List_iterator"* %this1
}

define linkonce_odr %"struct.boost::list_edge"* @_ZSt11__addressofIN5boost9list_edgeIjNS0_8propertyINS0_13edge_weight_tEiNS0_11no_propertyEEEEEEPT_RS7_(%"struct.boost::list_edge"* %__r) nounwind inlinehint {
entry:
  %__r.addr = alloca %"struct.boost::list_edge"*, align 4
  store %"struct.boost::list_edge"* %__r, %"struct.boost::list_edge"** %__r.addr, align 4
  %0 = load %"struct.boost::list_edge"** %__r.addr, align 4
  %1 = bitcast %"struct.boost::list_edge"* %0 to i8*
  %2 = bitcast i8* %1 to %"struct.boost::list_edge"*
  ret %"struct.boost::list_edge"* %2
}

define linkonce_odr void @_ZNSt14_List_iteratorIN5boost9list_edgeIjNS0_8propertyINS0_13edge_weight_tEiNS0_11no_propertyEEEEEEC1EPNSt8__detail15_List_node_baseE(%"struct.std::_List_iterator"* %this, %"struct.std::__detail::_List_node_base"* %__x) unnamed_addr align 2 {
entry:
  %this.addr = alloca %"struct.std::_List_iterator"*, align 4
  %__x.addr = alloca %"struct.std::__detail::_List_node_base"*, align 4
  store %"struct.std::_List_iterator"* %this, %"struct.std::_List_iterator"** %this.addr, align 4
  store %"struct.std::__detail::_List_node_base"* %__x, %"struct.std::__detail::_List_node_base"** %__x.addr, align 4
  %this1 = load %"struct.std::_List_iterator"** %this.addr
  %0 = load %"struct.std::__detail::_List_node_base"** %__x.addr, align 4
  call void @_ZNSt14_List_iteratorIN5boost9list_edgeIjNS0_8propertyINS0_13edge_weight_tEiNS0_11no_propertyEEEEEEC2EPNSt8__detail15_List_node_baseE(%"struct.std::_List_iterator"* %this1, %"struct.std::__detail::_List_node_base"* %0)
  ret void
}

define linkonce_odr void @_ZNSt14_List_iteratorIN5boost9list_edgeIjNS0_8propertyINS0_13edge_weight_tEiNS0_11no_propertyEEEEEEC2EPNSt8__detail15_List_node_baseE(%"struct.std::_List_iterator"* %this, %"struct.std::__detail::_List_node_base"* %__x) unnamed_addr nounwind align 2 {
entry:
  %this.addr = alloca %"struct.std::_List_iterator"*, align 4
  %__x.addr = alloca %"struct.std::__detail::_List_node_base"*, align 4
  store %"struct.std::_List_iterator"* %this, %"struct.std::_List_iterator"** %this.addr, align 4
  store %"struct.std::__detail::_List_node_base"* %__x, %"struct.std::__detail::_List_node_base"** %__x.addr, align 4
  %this1 = load %"struct.std::_List_iterator"** %this.addr
  %_M_node = getelementptr inbounds %"struct.std::_List_iterator"* %this1, i32 0, i32 0
  %0 = load %"struct.std::__detail::_List_node_base"** %__x.addr, align 4
  store %"struct.std::__detail::_List_node_base"* %0, %"struct.std::__detail::_List_node_base"** %_M_node, align 4
  ret void
}

define linkonce_odr %"struct.boost::detail::adj_list_gen<boost::adjacency_list<boost::vecS, boost::vecS, boost::bidirectionalS, boost::property<boost::vertex_color_t, boost::default_color_type, boost::property<boost::vertex_distance_t, int, boost::property<boost::vertex_degree_t, int, boost::property<boost::vertex_in_degree_t, int, boost::property<boost::vertex_out_degree_t, int, boost::no_property> > > > >, boost::property<boost::edge_weight_t, int, boost::no_property>, boost::no_property, boost::listS>, boost::vecS, boost::vecS, boost::bidirectionalS, boost::property<boost::vertex_color_t, boost::default_color_type, boost::property<boost::vertex_distance_t, int, boost::property<boost::vertex_degree_t, int, boost::property<boost::vertex_in_degree_t, int, boost::property<boost::vertex_out_degree_t, int, boost::no_property> > > > >, boost::property<boost::edge_weight_t, int, boost::no_property>, boost::no_property, boost::listS>::config::stored_vertex"* @_ZNSt6vectorIN5boost6detail12adj_list_genINS0_14adjacency_listINS0_4vecSES4_NS0_14bidirectionalSENS0_8propertyINS0_14vertex_color_tENS0_18default_color_typeENS6_INS0_17vertex_distance_tEiNS6_INS0_15vertex_degree_tEiNS6_INS0_18vertex_in_degree_tEiNS6_INS0_19vertex_out_degree_tEiNS0_11no_propertyEEEEEEEEEEENS6_INS0_13edge_weight_tEiSD_EESD_NS0_5listSEEES4_S4_S5_SI_SK_SD_SL_E6config13stored_vertexESaISP_EEixEj(%"class.std::vector"* %this, i32 %__n) nounwind align 2 {
entry:
  %this.addr = alloca %"class.std::vector"*, align 4
  %__n.addr = alloca i32, align 4
  store %"class.std::vector"* %this, %"class.std::vector"** %this.addr, align 4
  store i32 %__n, i32* %__n.addr, align 4
  %this1 = load %"class.std::vector"** %this.addr
  %0 = bitcast %"class.std::vector"* %this1 to %"struct.std::_Vector_base"*
  %_M_impl = getelementptr inbounds %"struct.std::_Vector_base"* %0, i32 0, i32 0
  %_M_start = getelementptr inbounds %"struct.std::_Vector_base<boost::detail::adj_list_gen<boost::adjacency_list<boost::vecS, boost::vecS, boost::bidirectionalS, boost::property<boost::vertex_color_t, boost::default_color_type, boost::property<boost::vertex_distance_t, int, boost::property<boost::vertex_degree_t, int, boost::property<boost::vertex_in_degree_t, int, boost::property<boost::vertex_out_degree_t, int, boost::no_property> > > > >, boost::property<boost::edge_weight_t, int, boost::no_property>, boost::no_property, boost::listS>, boost::vecS, boost::vecS, boost::bidirectionalS, boost::property<boost::vertex_color_t, boost::default_color_type, boost::property<boost::vertex_distance_t, int, boost::property<boost::vertex_degree_t, int, boost::property<boost::vertex_in_degree_t, int, boost::property<boost::vertex_out_degree_t, int, boost::no_property> > > > >, boost::property<boost::edge_weight_t, int, boost::no_property>, boost::no_property, boost::listS>::config::stored_vertex, std::allocator<boost::detail::adj_list_gen<boost::adjacency_list<boost::vecS, boost::vecS, boost::bidirectionalS, boost::property<boost::vertex_color_t, boost::default_color_type, boost::property<boost::vertex_distance_t, int, boost::property<boost::vertex_degree_t, int, boost::property<boost::vertex_in_degree_t, int, boost::property<boost::vertex_out_degree_t, int, boost::no_property> > > > >, boost::property<boost::edge_weight_t, int, boost::no_property>, boost::no_property, boost::listS>, boost::vecS, boost::vecS, boost::bidirectionalS, boost::property<boost::vertex_color_t, boost::default_color_type, boost::property<boost::vertex_distance_t, int, boost::property<boost::vertex_degree_t, int, boost::property<boost::vertex_in_degree_t, int, boost::property<boost::vertex_out_degree_t, int, boost::no_property> > > > >, boost::property<boost::edge_weight_t, int, boost::no_property>, boost::no_property, boost::listS>::config::stored_vertex> >::_Vector_impl"* %_M_impl, i32 0, i32 0
  %1 = load %"struct.boost::detail::adj_list_gen<boost::adjacency_list<boost::vecS, boost::vecS, boost::bidirectionalS, boost::property<boost::vertex_color_t, boost::default_color_type, boost::property<boost::vertex_distance_t, int, boost::property<boost::vertex_degree_t, int, boost::property<boost::vertex_in_degree_t, int, boost::property<boost::vertex_out_degree_t, int, boost::no_property> > > > >, boost::property<boost::edge_weight_t, int, boost::no_property>, boost::no_property, boost::listS>, boost::vecS, boost::vecS, boost::bidirectionalS, boost::property<boost::vertex_color_t, boost::default_color_type, boost::property<boost::vertex_distance_t, int, boost::property<boost::vertex_degree_t, int, boost::property<boost::vertex_in_degree_t, int, boost::property<boost::vertex_out_degree_t, int, boost::no_property> > > > >, boost::property<boost::edge_weight_t, int, boost::no_property>, boost::no_property, boost::listS>::config::stored_vertex"** %_M_start, align 4
  %2 = load i32* %__n.addr, align 4
  %add.ptr = getelementptr inbounds %"struct.boost::detail::adj_list_gen<boost::adjacency_list<boost::vecS, boost::vecS, boost::bidirectionalS, boost::property<boost::vertex_color_t, boost::default_color_type, boost::property<boost::vertex_distance_t, int, boost::property<boost::vertex_degree_t, int, boost::property<boost::vertex_in_degree_t, int, boost::property<boost::vertex_out_degree_t, int, boost::no_property> > > > >, boost::property<boost::edge_weight_t, int, boost::no_property>, boost::no_property, boost::listS>, boost::vecS, boost::vecS, boost::bidirectionalS, boost::property<boost::vertex_color_t, boost::default_color_type, boost::property<boost::vertex_distance_t, int, boost::property<boost::vertex_degree_t, int, boost::property<boost::vertex_in_degree_t, int, boost::property<boost::vertex_out_degree_t, int, boost::no_property> > > > >, boost::property<boost::edge_weight_t, int, boost::no_property>, boost::no_property, boost::listS>::config::stored_vertex"* %1, i32 %2
  ret %"struct.boost::detail::adj_list_gen<boost::adjacency_list<boost::vecS, boost::vecS, boost::bidirectionalS, boost::property<boost::vertex_color_t, boost::default_color_type, boost::property<boost::vertex_distance_t, int, boost::property<boost::vertex_degree_t, int, boost::property<boost::vertex_in_degree_t, int, boost::property<boost::vertex_out_degree_t, int, boost::no_property> > > > >, boost::property<boost::edge_weight_t, int, boost::no_property>, boost::no_property, boost::listS>, boost::vecS, boost::vecS, boost::bidirectionalS, boost::property<boost::vertex_color_t, boost::default_color_type, boost::property<boost::vertex_distance_t, int, boost::property<boost::vertex_degree_t, int, boost::property<boost::vertex_in_degree_t, int, boost::property<boost::vertex_out_degree_t, int, boost::no_property> > > > >, boost::property<boost::edge_weight_t, int, boost::no_property>, boost::no_property, boost::listS>::config::stored_vertex"* %add.ptr
}

define linkonce_odr void @_ZNSt6vectorIN5boost6detail16stored_edge_iterIjSt14_List_iteratorINS0_9list_edgeIjNS0_8propertyINS0_13edge_weight_tEiNS0_11no_propertyEEEEEES8_EESaISB_EE5beginEv(%"class.__gnu_cxx::__normal_iterator.14"* noalias sret %agg.result, %"class.std::vector.3"* %this) align 2 {
entry:
  %this.addr = alloca %"class.std::vector.3"*, align 4
  store %"class.std::vector.3"* %this, %"class.std::vector.3"** %this.addr, align 4
  %this1 = load %"class.std::vector.3"** %this.addr
  %0 = bitcast %"class.std::vector.3"* %this1 to %"struct.std::_Vector_base.4"*
  %_M_impl = getelementptr inbounds %"struct.std::_Vector_base.4"* %0, i32 0, i32 0
  %_M_start = getelementptr inbounds %"struct.std::_Vector_base<boost::detail::stored_edge_iter<unsigned int, std::_List_iterator<boost::list_edge<unsigned int, boost::property<boost::edge_weight_t, int, boost::no_property> > >, boost::property<boost::edge_weight_t, int, boost::no_property> >, std::allocator<boost::detail::stored_edge_iter<unsigned int, std::_List_iterator<boost::list_edge<unsigned int, boost::property<boost::edge_weight_t, int, boost::no_property> > >, boost::property<boost::edge_weight_t, int, boost::no_property> > > >::_Vector_impl"* %_M_impl, i32 0, i32 0
  call void @_ZN9__gnu_cxx17__normal_iteratorIPN5boost6detail16stored_edge_iterIjSt14_List_iteratorINS1_9list_edgeIjNS1_8propertyINS1_13edge_weight_tEiNS1_11no_propertyEEEEEES9_EESt6vectorISC_SaISC_EEEC1ERKSD_(%"class.__gnu_cxx::__normal_iterator.14"* %agg.result, %"class.boost::detail::stored_edge_iter"** %_M_start)
  ret void
}

define linkonce_odr void @_ZNSt6vectorIN5boost6detail16stored_edge_iterIjSt14_List_iteratorINS0_9list_edgeIjNS0_8propertyINS0_13edge_weight_tEiNS0_11no_propertyEEEEEES8_EESaISB_EE3endEv(%"class.__gnu_cxx::__normal_iterator.14"* noalias sret %agg.result, %"class.std::vector.3"* %this) align 2 {
entry:
  %this.addr = alloca %"class.std::vector.3"*, align 4
  store %"class.std::vector.3"* %this, %"class.std::vector.3"** %this.addr, align 4
  %this1 = load %"class.std::vector.3"** %this.addr
  %0 = bitcast %"class.std::vector.3"* %this1 to %"struct.std::_Vector_base.4"*
  %_M_impl = getelementptr inbounds %"struct.std::_Vector_base.4"* %0, i32 0, i32 0
  %_M_finish = getelementptr inbounds %"struct.std::_Vector_base<boost::detail::stored_edge_iter<unsigned int, std::_List_iterator<boost::list_edge<unsigned int, boost::property<boost::edge_weight_t, int, boost::no_property> > >, boost::property<boost::edge_weight_t, int, boost::no_property> >, std::allocator<boost::detail::stored_edge_iter<unsigned int, std::_List_iterator<boost::list_edge<unsigned int, boost::property<boost::edge_weight_t, int, boost::no_property> > >, boost::property<boost::edge_weight_t, int, boost::no_property> > > >::_Vector_impl"* %_M_impl, i32 0, i32 1
  call void @_ZN9__gnu_cxx17__normal_iteratorIPN5boost6detail16stored_edge_iterIjSt14_List_iteratorINS1_9list_edgeIjNS1_8propertyINS1_13edge_weight_tEiNS1_11no_propertyEEEEEES9_EESt6vectorISC_SaISC_EEEC1ERKSD_(%"class.__gnu_cxx::__normal_iterator.14"* %agg.result, %"class.boost::detail::stored_edge_iter"** %_M_finish)
  ret void
}

define linkonce_odr zeroext i1 @_ZN9__gnu_cxxneIPN5boost6detail16stored_edge_iterIjSt14_List_iteratorINS1_9list_edgeIjNS1_8propertyINS1_13edge_weight_tEiNS1_11no_propertyEEEEEES9_EESt6vectorISC_SaISC_EEEEbRKNS_17__normal_iteratorIT_T0_EESM_(%"class.__gnu_cxx::__normal_iterator.14"* %__lhs, %"class.__gnu_cxx::__normal_iterator.14"* %__rhs) inlinehint {
entry:
  %__lhs.addr = alloca %"class.__gnu_cxx::__normal_iterator.14"*, align 4
  %__rhs.addr = alloca %"class.__gnu_cxx::__normal_iterator.14"*, align 4
  store %"class.__gnu_cxx::__normal_iterator.14"* %__lhs, %"class.__gnu_cxx::__normal_iterator.14"** %__lhs.addr, align 4
  store %"class.__gnu_cxx::__normal_iterator.14"* %__rhs, %"class.__gnu_cxx::__normal_iterator.14"** %__rhs.addr, align 4
  %0 = load %"class.__gnu_cxx::__normal_iterator.14"** %__lhs.addr, align 4
  %call = call %"class.boost::detail::stored_edge_iter"** @_ZNK9__gnu_cxx17__normal_iteratorIPN5boost6detail16stored_edge_iterIjSt14_List_iteratorINS1_9list_edgeIjNS1_8propertyINS1_13edge_weight_tEiNS1_11no_propertyEEEEEES9_EESt6vectorISC_SaISC_EEE4baseEv(%"class.__gnu_cxx::__normal_iterator.14"* %0)
  %1 = load %"class.boost::detail::stored_edge_iter"** %call
  %2 = load %"class.__gnu_cxx::__normal_iterator.14"** %__rhs.addr, align 4
  %call1 = call %"class.boost::detail::stored_edge_iter"** @_ZNK9__gnu_cxx17__normal_iteratorIPN5boost6detail16stored_edge_iterIjSt14_List_iteratorINS1_9list_edgeIjNS1_8propertyINS1_13edge_weight_tEiNS1_11no_propertyEEEEEES9_EESt6vectorISC_SaISC_EEE4baseEv(%"class.__gnu_cxx::__normal_iterator.14"* %2)
  %3 = load %"class.boost::detail::stored_edge_iter"** %call1
  %cmp = icmp ne %"class.boost::detail::stored_edge_iter"* %1, %3
  ret i1 %cmp
}

define linkonce_odr %"class.boost::detail::stored_edge_iter"* @_ZNK9__gnu_cxx17__normal_iteratorIPN5boost6detail16stored_edge_iterIjSt14_List_iteratorINS1_9list_edgeIjNS1_8propertyINS1_13edge_weight_tEiNS1_11no_propertyEEEEEES9_EESt6vectorISC_SaISC_EEEdeEv(%"class.__gnu_cxx::__normal_iterator.14"* %this) nounwind align 2 {
entry:
  %this.addr = alloca %"class.__gnu_cxx::__normal_iterator.14"*, align 4
  store %"class.__gnu_cxx::__normal_iterator.14"* %this, %"class.__gnu_cxx::__normal_iterator.14"** %this.addr, align 4
  %this1 = load %"class.__gnu_cxx::__normal_iterator.14"** %this.addr
  %_M_current = getelementptr inbounds %"class.__gnu_cxx::__normal_iterator.14"* %this1, i32 0, i32 0
  %0 = load %"class.boost::detail::stored_edge_iter"** %_M_current, align 4
  ret %"class.boost::detail::stored_edge_iter"* %0
}

define linkonce_odr i32* @_ZNK5boost6detail11stored_edgeIjE10get_targetEv(%"class.boost::detail::stored_edge"* %this) nounwind inlinehint align 2 {
entry:
  %this.addr = alloca %"class.boost::detail::stored_edge"*, align 4
  store %"class.boost::detail::stored_edge"* %this, %"class.boost::detail::stored_edge"** %this.addr, align 4
  %this1 = load %"class.boost::detail::stored_edge"** %this.addr
  %m_target = getelementptr inbounds %"class.boost::detail::stored_edge"* %this1, i32 0, i32 0
  ret i32* %m_target
}

define linkonce_odr %"class.__gnu_cxx::__normal_iterator.14"* @_ZN9__gnu_cxx17__normal_iteratorIPN5boost6detail16stored_edge_iterIjSt14_List_iteratorINS1_9list_edgeIjNS1_8propertyINS1_13edge_weight_tEiNS1_11no_propertyEEEEEES9_EESt6vectorISC_SaISC_EEEppEv(%"class.__gnu_cxx::__normal_iterator.14"* %this) nounwind align 2 {
entry:
  %this.addr = alloca %"class.__gnu_cxx::__normal_iterator.14"*, align 4
  store %"class.__gnu_cxx::__normal_iterator.14"* %this, %"class.__gnu_cxx::__normal_iterator.14"** %this.addr, align 4
  %this1 = load %"class.__gnu_cxx::__normal_iterator.14"** %this.addr
  %_M_current = getelementptr inbounds %"class.__gnu_cxx::__normal_iterator.14"* %this1, i32 0, i32 0
  %0 = load %"class.boost::detail::stored_edge_iter"** %_M_current, align 4
  %incdec.ptr = getelementptr inbounds %"class.boost::detail::stored_edge_iter"* %0, i32 1
  store %"class.boost::detail::stored_edge_iter"* %incdec.ptr, %"class.boost::detail::stored_edge_iter"** %_M_current, align 4
  ret %"class.__gnu_cxx::__normal_iterator.14"* %this1
}

define linkonce_odr %"class.boost::detail::stored_edge_iter"** @_ZNK9__gnu_cxx17__normal_iteratorIPN5boost6detail16stored_edge_iterIjSt14_List_iteratorINS1_9list_edgeIjNS1_8propertyINS1_13edge_weight_tEiNS1_11no_propertyEEEEEES9_EESt6vectorISC_SaISC_EEE4baseEv(%"class.__gnu_cxx::__normal_iterator.14"* %this) nounwind align 2 {
entry:
  %this.addr = alloca %"class.__gnu_cxx::__normal_iterator.14"*, align 4
  store %"class.__gnu_cxx::__normal_iterator.14"* %this, %"class.__gnu_cxx::__normal_iterator.14"** %this.addr, align 4
  %this1 = load %"class.__gnu_cxx::__normal_iterator.14"** %this.addr
  %_M_current = getelementptr inbounds %"class.__gnu_cxx::__normal_iterator.14"* %this1, i32 0, i32 0
  ret %"class.boost::detail::stored_edge_iter"** %_M_current
}

define linkonce_odr void @_ZN9__gnu_cxx17__normal_iteratorIPN5boost6detail16stored_edge_iterIjSt14_List_iteratorINS1_9list_edgeIjNS1_8propertyINS1_13edge_weight_tEiNS1_11no_propertyEEEEEES9_EESt6vectorISC_SaISC_EEEC1ERKSD_(%"class.__gnu_cxx::__normal_iterator.14"* %this, %"class.boost::detail::stored_edge_iter"** %__i) unnamed_addr align 2 {
entry:
  %this.addr = alloca %"class.__gnu_cxx::__normal_iterator.14"*, align 4
  %__i.addr = alloca %"class.boost::detail::stored_edge_iter"**, align 4
  store %"class.__gnu_cxx::__normal_iterator.14"* %this, %"class.__gnu_cxx::__normal_iterator.14"** %this.addr, align 4
  store %"class.boost::detail::stored_edge_iter"** %__i, %"class.boost::detail::stored_edge_iter"*** %__i.addr, align 4
  %this1 = load %"class.__gnu_cxx::__normal_iterator.14"** %this.addr
  %0 = load %"class.boost::detail::stored_edge_iter"*** %__i.addr
  call void @_ZN9__gnu_cxx17__normal_iteratorIPN5boost6detail16stored_edge_iterIjSt14_List_iteratorINS1_9list_edgeIjNS1_8propertyINS1_13edge_weight_tEiNS1_11no_propertyEEEEEES9_EESt6vectorISC_SaISC_EEEC2ERKSD_(%"class.__gnu_cxx::__normal_iterator.14"* %this1, %"class.boost::detail::stored_edge_iter"** %0)
  ret void
}

define linkonce_odr void @_ZN9__gnu_cxx17__normal_iteratorIPN5boost6detail16stored_edge_iterIjSt14_List_iteratorINS1_9list_edgeIjNS1_8propertyINS1_13edge_weight_tEiNS1_11no_propertyEEEEEES9_EESt6vectorISC_SaISC_EEEC2ERKSD_(%"class.__gnu_cxx::__normal_iterator.14"* %this, %"class.boost::detail::stored_edge_iter"** %__i) unnamed_addr nounwind align 2 {
entry:
  %this.addr = alloca %"class.__gnu_cxx::__normal_iterator.14"*, align 4
  %__i.addr = alloca %"class.boost::detail::stored_edge_iter"**, align 4
  store %"class.__gnu_cxx::__normal_iterator.14"* %this, %"class.__gnu_cxx::__normal_iterator.14"** %this.addr, align 4
  store %"class.boost::detail::stored_edge_iter"** %__i, %"class.boost::detail::stored_edge_iter"*** %__i.addr, align 4
  %this1 = load %"class.__gnu_cxx::__normal_iterator.14"** %this.addr
  %_M_current = getelementptr inbounds %"class.__gnu_cxx::__normal_iterator.14"* %this1, i32 0, i32 0
  %0 = load %"class.boost::detail::stored_edge_iter"*** %__i.addr, align 4
  %1 = load %"class.boost::detail::stored_edge_iter"** %0, align 4
  store %"class.boost::detail::stored_edge_iter"* %1, %"class.boost::detail::stored_edge_iter"** %_M_current, align 4
  ret void
}

define linkonce_odr void @_ZN9__gnu_cxx17__normal_iteratorIPN5boost6detail12adj_list_genINS1_14adjacency_listINS1_4vecSES5_NS1_14bidirectionalSENS1_8propertyINS1_14vertex_color_tENS1_18default_color_typeENS7_INS1_17vertex_distance_tEiNS7_INS1_15vertex_degree_tEiNS7_INS1_18vertex_in_degree_tEiNS7_INS1_19vertex_out_degree_tEiNS1_11no_propertyEEEEEEEEEEENS7_INS1_13edge_weight_tEiSE_EESE_NS1_5listSEEES5_S5_S6_SJ_SL_SE_SM_E6config13stored_vertexESt6vectorISQ_SaISQ_EEEC1ERKSR_(%"class.__gnu_cxx::__normal_iterator"* %this, %"struct.boost::detail::adj_list_gen<boost::adjacency_list<boost::vecS, boost::vecS, boost::bidirectionalS, boost::property<boost::vertex_color_t, boost::default_color_type, boost::property<boost::vertex_distance_t, int, boost::property<boost::vertex_degree_t, int, boost::property<boost::vertex_in_degree_t, int, boost::property<boost::vertex_out_degree_t, int, boost::no_property> > > > >, boost::property<boost::edge_weight_t, int, boost::no_property>, boost::no_property, boost::listS>, boost::vecS, boost::vecS, boost::bidirectionalS, boost::property<boost::vertex_color_t, boost::default_color_type, boost::property<boost::vertex_distance_t, int, boost::property<boost::vertex_degree_t, int, boost::property<boost::vertex_in_degree_t, int, boost::property<boost::vertex_out_degree_t, int, boost::no_property> > > > >, boost::property<boost::edge_weight_t, int, boost::no_property>, boost::no_property, boost::listS>::config::stored_vertex"** %__i) unnamed_addr align 2 {
entry:
  %this.addr = alloca %"class.__gnu_cxx::__normal_iterator"*, align 4
  %__i.addr = alloca %"struct.boost::detail::adj_list_gen<boost::adjacency_list<boost::vecS, boost::vecS, boost::bidirectionalS, boost::property<boost::vertex_color_t, boost::default_color_type, boost::property<boost::vertex_distance_t, int, boost::property<boost::vertex_degree_t, int, boost::property<boost::vertex_in_degree_t, int, boost::property<boost::vertex_out_degree_t, int, boost::no_property> > > > >, boost::property<boost::edge_weight_t, int, boost::no_property>, boost::no_property, boost::listS>, boost::vecS, boost::vecS, boost::bidirectionalS, boost::property<boost::vertex_color_t, boost::default_color_type, boost::property<boost::vertex_distance_t, int, boost::property<boost::vertex_degree_t, int, boost::property<boost::vertex_in_degree_t, int, boost::property<boost::vertex_out_degree_t, int, boost::no_property> > > > >, boost::property<boost::edge_weight_t, int, boost::no_property>, boost::no_property, boost::listS>::config::stored_vertex"**, align 4
  store %"class.__gnu_cxx::__normal_iterator"* %this, %"class.__gnu_cxx::__normal_iterator"** %this.addr, align 4
  store %"struct.boost::detail::adj_list_gen<boost::adjacency_list<boost::vecS, boost::vecS, boost::bidirectionalS, boost::property<boost::vertex_color_t, boost::default_color_type, boost::property<boost::vertex_distance_t, int, boost::property<boost::vertex_degree_t, int, boost::property<boost::vertex_in_degree_t, int, boost::property<boost::vertex_out_degree_t, int, boost::no_property> > > > >, boost::property<boost::edge_weight_t, int, boost::no_property>, boost::no_property, boost::listS>, boost::vecS, boost::vecS, boost::bidirectionalS, boost::property<boost::vertex_color_t, boost::default_color_type, boost::property<boost::vertex_distance_t, int, boost::property<boost::vertex_degree_t, int, boost::property<boost::vertex_in_degree_t, int, boost::property<boost::vertex_out_degree_t, int, boost::no_property> > > > >, boost::property<boost::edge_weight_t, int, boost::no_property>, boost::no_property, boost::listS>::config::stored_vertex"** %__i, %"struct.boost::detail::adj_list_gen<boost::adjacency_list<boost::vecS, boost::vecS, boost::bidirectionalS, boost::property<boost::vertex_color_t, boost::default_color_type, boost::property<boost::vertex_distance_t, int, boost::property<boost::vertex_degree_t, int, boost::property<boost::vertex_in_degree_t, int, boost::property<boost::vertex_out_degree_t, int, boost::no_property> > > > >, boost::property<boost::edge_weight_t, int, boost::no_property>, boost::no_property, boost::listS>, boost::vecS, boost::vecS, boost::bidirectionalS, boost::property<boost::vertex_color_t, boost::default_color_type, boost::property<boost::vertex_distance_t, int, boost::property<boost::vertex_degree_t, int, boost::property<boost::vertex_in_degree_t, int, boost::property<boost::vertex_out_degree_t, int, boost::no_property> > > > >, boost::property<boost::edge_weight_t, int, boost::no_property>, boost::no_property, boost::listS>::config::stored_vertex"*** %__i.addr, align 4
  %this1 = load %"class.__gnu_cxx::__normal_iterator"** %this.addr
  %0 = load %"struct.boost::detail::adj_list_gen<boost::adjacency_list<boost::vecS, boost::vecS, boost::bidirectionalS, boost::property<boost::vertex_color_t, boost::default_color_type, boost::property<boost::vertex_distance_t, int, boost::property<boost::vertex_degree_t, int, boost::property<boost::vertex_in_degree_t, int, boost::property<boost::vertex_out_degree_t, int, boost::no_property> > > > >, boost::property<boost::edge_weight_t, int, boost::no_property>, boost::no_property, boost::listS>, boost::vecS, boost::vecS, boost::bidirectionalS, boost::property<boost::vertex_color_t, boost::default_color_type, boost::property<boost::vertex_distance_t, int, boost::property<boost::vertex_degree_t, int, boost::property<boost::vertex_in_degree_t, int, boost::property<boost::vertex_out_degree_t, int, boost::no_property> > > > >, boost::property<boost::edge_weight_t, int, boost::no_property>, boost::no_property, boost::listS>::config::stored_vertex"*** %__i.addr
  call void @_ZN9__gnu_cxx17__normal_iteratorIPN5boost6detail12adj_list_genINS1_14adjacency_listINS1_4vecSES5_NS1_14bidirectionalSENS1_8propertyINS1_14vertex_color_tENS1_18default_color_typeENS7_INS1_17vertex_distance_tEiNS7_INS1_15vertex_degree_tEiNS7_INS1_18vertex_in_degree_tEiNS7_INS1_19vertex_out_degree_tEiNS1_11no_propertyEEEEEEEEEEENS7_INS1_13edge_weight_tEiSE_EESE_NS1_5listSEEES5_S5_S6_SJ_SL_SE_SM_E6config13stored_vertexESt6vectorISQ_SaISQ_EEEC2ERKSR_(%"class.__gnu_cxx::__normal_iterator"* %this1, %"struct.boost::detail::adj_list_gen<boost::adjacency_list<boost::vecS, boost::vecS, boost::bidirectionalS, boost::property<boost::vertex_color_t, boost::default_color_type, boost::property<boost::vertex_distance_t, int, boost::property<boost::vertex_degree_t, int, boost::property<boost::vertex_in_degree_t, int, boost::property<boost::vertex_out_degree_t, int, boost::no_property> > > > >, boost::property<boost::edge_weight_t, int, boost::no_property>, boost::no_property, boost::listS>, boost::vecS, boost::vecS, boost::bidirectionalS, boost::property<boost::vertex_color_t, boost::default_color_type, boost::property<boost::vertex_distance_t, int, boost::property<boost::vertex_degree_t, int, boost::property<boost::vertex_in_degree_t, int, boost::property<boost::vertex_out_degree_t, int, boost::no_property> > > > >, boost::property<boost::edge_weight_t, int, boost::no_property>, boost::no_property, boost::listS>::config::stored_vertex"** %0)
  ret void
}

define linkonce_odr void @_ZN9__gnu_cxx17__normal_iteratorIPN5boost6detail12adj_list_genINS1_14adjacency_listINS1_4vecSES5_NS1_14bidirectionalSENS1_8propertyINS1_14vertex_color_tENS1_18default_color_typeENS7_INS1_17vertex_distance_tEiNS7_INS1_15vertex_degree_tEiNS7_INS1_18vertex_in_degree_tEiNS7_INS1_19vertex_out_degree_tEiNS1_11no_propertyEEEEEEEEEEENS7_INS1_13edge_weight_tEiSE_EESE_NS1_5listSEEES5_S5_S6_SJ_SL_SE_SM_E6config13stored_vertexESt6vectorISQ_SaISQ_EEEC2ERKSR_(%"class.__gnu_cxx::__normal_iterator"* %this, %"struct.boost::detail::adj_list_gen<boost::adjacency_list<boost::vecS, boost::vecS, boost::bidirectionalS, boost::property<boost::vertex_color_t, boost::default_color_type, boost::property<boost::vertex_distance_t, int, boost::property<boost::vertex_degree_t, int, boost::property<boost::vertex_in_degree_t, int, boost::property<boost::vertex_out_degree_t, int, boost::no_property> > > > >, boost::property<boost::edge_weight_t, int, boost::no_property>, boost::no_property, boost::listS>, boost::vecS, boost::vecS, boost::bidirectionalS, boost::property<boost::vertex_color_t, boost::default_color_type, boost::property<boost::vertex_distance_t, int, boost::property<boost::vertex_degree_t, int, boost::property<boost::vertex_in_degree_t, int, boost::property<boost::vertex_out_degree_t, int, boost::no_property> > > > >, boost::property<boost::edge_weight_t, int, boost::no_property>, boost::no_property, boost::listS>::config::stored_vertex"** %__i) unnamed_addr nounwind align 2 {
entry:
  %this.addr = alloca %"class.__gnu_cxx::__normal_iterator"*, align 4
  %__i.addr = alloca %"struct.boost::detail::adj_list_gen<boost::adjacency_list<boost::vecS, boost::vecS, boost::bidirectionalS, boost::property<boost::vertex_color_t, boost::default_color_type, boost::property<boost::vertex_distance_t, int, boost::property<boost::vertex_degree_t, int, boost::property<boost::vertex_in_degree_t, int, boost::property<boost::vertex_out_degree_t, int, boost::no_property> > > > >, boost::property<boost::edge_weight_t, int, boost::no_property>, boost::no_property, boost::listS>, boost::vecS, boost::vecS, boost::bidirectionalS, boost::property<boost::vertex_color_t, boost::default_color_type, boost::property<boost::vertex_distance_t, int, boost::property<boost::vertex_degree_t, int, boost::property<boost::vertex_in_degree_t, int, boost::property<boost::vertex_out_degree_t, int, boost::no_property> > > > >, boost::property<boost::edge_weight_t, int, boost::no_property>, boost::no_property, boost::listS>::config::stored_vertex"**, align 4
  store %"class.__gnu_cxx::__normal_iterator"* %this, %"class.__gnu_cxx::__normal_iterator"** %this.addr, align 4
  store %"struct.boost::detail::adj_list_gen<boost::adjacency_list<boost::vecS, boost::vecS, boost::bidirectionalS, boost::property<boost::vertex_color_t, boost::default_color_type, boost::property<boost::vertex_distance_t, int, boost::property<boost::vertex_degree_t, int, boost::property<boost::vertex_in_degree_t, int, boost::property<boost::vertex_out_degree_t, int, boost::no_property> > > > >, boost::property<boost::edge_weight_t, int, boost::no_property>, boost::no_property, boost::listS>, boost::vecS, boost::vecS, boost::bidirectionalS, boost::property<boost::vertex_color_t, boost::default_color_type, boost::property<boost::vertex_distance_t, int, boost::property<boost::vertex_degree_t, int, boost::property<boost::vertex_in_degree_t, int, boost::property<boost::vertex_out_degree_t, int, boost::no_property> > > > >, boost::property<boost::edge_weight_t, int, boost::no_property>, boost::no_property, boost::listS>::config::stored_vertex"** %__i, %"struct.boost::detail::adj_list_gen<boost::adjacency_list<boost::vecS, boost::vecS, boost::bidirectionalS, boost::property<boost::vertex_color_t, boost::default_color_type, boost::property<boost::vertex_distance_t, int, boost::property<boost::vertex_degree_t, int, boost::property<boost::vertex_in_degree_t, int, boost::property<boost::vertex_out_degree_t, int, boost::no_property> > > > >, boost::property<boost::edge_weight_t, int, boost::no_property>, boost::no_property, boost::listS>, boost::vecS, boost::vecS, boost::bidirectionalS, boost::property<boost::vertex_color_t, boost::default_color_type, boost::property<boost::vertex_distance_t, int, boost::property<boost::vertex_degree_t, int, boost::property<boost::vertex_in_degree_t, int, boost::property<boost::vertex_out_degree_t, int, boost::no_property> > > > >, boost::property<boost::edge_weight_t, int, boost::no_property>, boost::no_property, boost::listS>::config::stored_vertex"*** %__i.addr, align 4
  %this1 = load %"class.__gnu_cxx::__normal_iterator"** %this.addr
  %_M_current = getelementptr inbounds %"class.__gnu_cxx::__normal_iterator"* %this1, i32 0, i32 0
  %0 = load %"struct.boost::detail::adj_list_gen<boost::adjacency_list<boost::vecS, boost::vecS, boost::bidirectionalS, boost::property<boost::vertex_color_t, boost::default_color_type, boost::property<boost::vertex_distance_t, int, boost::property<boost::vertex_degree_t, int, boost::property<boost::vertex_in_degree_t, int, boost::property<boost::vertex_out_degree_t, int, boost::no_property> > > > >, boost::property<boost::edge_weight_t, int, boost::no_property>, boost::no_property, boost::listS>, boost::vecS, boost::vecS, boost::bidirectionalS, boost::property<boost::vertex_color_t, boost::default_color_type, boost::property<boost::vertex_distance_t, int, boost::property<boost::vertex_degree_t, int, boost::property<boost::vertex_in_degree_t, int, boost::property<boost::vertex_out_degree_t, int, boost::no_property> > > > >, boost::property<boost::edge_weight_t, int, boost::no_property>, boost::no_property, boost::listS>::config::stored_vertex"*** %__i.addr, align 4
  %1 = load %"struct.boost::detail::adj_list_gen<boost::adjacency_list<boost::vecS, boost::vecS, boost::bidirectionalS, boost::property<boost::vertex_color_t, boost::default_color_type, boost::property<boost::vertex_distance_t, int, boost::property<boost::vertex_degree_t, int, boost::property<boost::vertex_in_degree_t, int, boost::property<boost::vertex_out_degree_t, int, boost::no_property> > > > >, boost::property<boost::edge_weight_t, int, boost::no_property>, boost::no_property, boost::listS>, boost::vecS, boost::vecS, boost::bidirectionalS, boost::property<boost::vertex_color_t, boost::default_color_type, boost::property<boost::vertex_distance_t, int, boost::property<boost::vertex_degree_t, int, boost::property<boost::vertex_in_degree_t, int, boost::property<boost::vertex_out_degree_t, int, boost::no_property> > > > >, boost::property<boost::edge_weight_t, int, boost::no_property>, boost::no_property, boost::listS>::config::stored_vertex"** %0, align 4
  store %"struct.boost::detail::adj_list_gen<boost::adjacency_list<boost::vecS, boost::vecS, boost::bidirectionalS, boost::property<boost::vertex_color_t, boost::default_color_type, boost::property<boost::vertex_distance_t, int, boost::property<boost::vertex_degree_t, int, boost::property<boost::vertex_in_degree_t, int, boost::property<boost::vertex_out_degree_t, int, boost::no_property> > > > >, boost::property<boost::edge_weight_t, int, boost::no_property>, boost::no_property, boost::listS>, boost::vecS, boost::vecS, boost::bidirectionalS, boost::property<boost::vertex_color_t, boost::default_color_type, boost::property<boost::vertex_distance_t, int, boost::property<boost::vertex_degree_t, int, boost::property<boost::vertex_in_degree_t, int, boost::property<boost::vertex_out_degree_t, int, boost::no_property> > > > >, boost::property<boost::edge_weight_t, int, boost::no_property>, boost::no_property, boost::listS>::config::stored_vertex"* %1, %"struct.boost::detail::adj_list_gen<boost::adjacency_list<boost::vecS, boost::vecS, boost::bidirectionalS, boost::property<boost::vertex_color_t, boost::default_color_type, boost::property<boost::vertex_distance_t, int, boost::property<boost::vertex_degree_t, int, boost::property<boost::vertex_in_degree_t, int, boost::property<boost::vertex_out_degree_t, int, boost::no_property> > > > >, boost::property<boost::edge_weight_t, int, boost::no_property>, boost::no_property, boost::listS>, boost::vecS, boost::vecS, boost::bidirectionalS, boost::property<boost::vertex_color_t, boost::default_color_type, boost::property<boost::vertex_distance_t, int, boost::property<boost::vertex_degree_t, int, boost::property<boost::vertex_in_degree_t, int, boost::property<boost::vertex_out_degree_t, int, boost::no_property> > > > >, boost::property<boost::edge_weight_t, int, boost::no_property>, boost::no_property, boost::listS>::config::stored_vertex"** %_M_current, align 4
  ret void
}

define linkonce_odr zeroext i1 @_ZN9__gnu_cxxneIPN5boost6detail12adj_list_genINS1_14adjacency_listINS1_4vecSES5_NS1_14bidirectionalSENS1_8propertyINS1_14vertex_color_tENS1_18default_color_typeENS7_INS1_17vertex_distance_tEiNS7_INS1_15vertex_degree_tEiNS7_INS1_18vertex_in_degree_tEiNS7_INS1_19vertex_out_degree_tEiNS1_11no_propertyEEEEEEEEEEENS7_INS1_13edge_weight_tEiSE_EESE_NS1_5listSEEES5_S5_S6_SJ_SL_SE_SM_E6config13stored_vertexESt6vectorISQ_SaISQ_EEEEbRKNS_17__normal_iteratorIT_T0_EES10_(%"class.__gnu_cxx::__normal_iterator"* %__lhs, %"class.__gnu_cxx::__normal_iterator"* %__rhs) nounwind inlinehint {
entry:
  %__lhs.addr = alloca %"class.__gnu_cxx::__normal_iterator"*, align 4
  %__rhs.addr = alloca %"class.__gnu_cxx::__normal_iterator"*, align 4
  store %"class.__gnu_cxx::__normal_iterator"* %__lhs, %"class.__gnu_cxx::__normal_iterator"** %__lhs.addr, align 4
  store %"class.__gnu_cxx::__normal_iterator"* %__rhs, %"class.__gnu_cxx::__normal_iterator"** %__rhs.addr, align 4
  %0 = load %"class.__gnu_cxx::__normal_iterator"** %__lhs.addr, align 4
