; ModuleID = 'ios_state_unit_test.cpp'
target datalayout = "e-p:32:32:32-i1:8:8-i8:8:8-i16:16:16-i32:32:32-i64:32:64-f32:32:32-f64:32:64-v64:64:64-v128:128:128-a0:0:64-f80:32:32-n8:16:32-S128"
target triple = "i386-pc-linux-gnu"

%"class.std::ios_base::Init" = type { i8 }
%"class.boost::unit_test::unit_test_log_t" = type { %"class.boost::unit_test::test_observer" }
%"class.boost::unit_test::test_observer" = type { i32 (...)** }
%"class.std::basic_ostream" = type { i32 (...)**, %"class.std::basic_ios" }
%"class.std::basic_ios" = type { %"class.std::ios_base", %"class.std::basic_ostream"*, i8, i8, %"class.std::basic_streambuf"*, %"class.std::ctype"*, %"class.std::num_put"*, %"class.std::num_get"* }
%"class.std::ios_base" = type { i32 (...)**, i32, i32, i32, i32, i32, %"struct.std::ios_base::_Callback_list"*, %"struct.std::ios_base::_Words", [8 x %"struct.std::ios_base::_Words"], i32, %"struct.std::ios_base::_Words"*, %"class.std::locale" }
%"struct.std::ios_base::_Callback_list" = type { %"struct.std::ios_base::_Callback_list"*, void (i32, %"class.std::ios_base"*, i32)*, i32, i32 }
%"struct.std::ios_base::_Words" = type { i8*, i32 }
%"class.std::locale" = type { %"class.std::locale::_Impl"* }
%"class.std::locale::_Impl" = type { i32, %"class.std::locale::facet"**, i32, %"class.std::locale::facet"**, i8** }
%"class.std::locale::facet" = type { i32 (...)**, i32 }
%"class.std::basic_streambuf" = type { i32 (...)**, i8*, i8*, i8*, i8*, i8*, i8*, %"class.std::locale" }
%"class.std::ctype" = type { %"class.std::locale::facet", %struct.__locale_struct*, i8, i32*, i32*, i16*, i8, [256 x i8], [256 x i8], i8 }
%struct.__locale_struct = type { [13 x %struct.__locale_data*], i16*, i32*, i32*, [13 x i8*] }
%struct.__locale_data = type opaque
%"class.std::num_put" = type { %"class.std::locale::facet" }
%"class.std::num_get" = type { %"class.std::locale::facet" }
%"class.std::locale::id" = type { i32 }
%"class.boost::unit_test::lazy_ostream" = type { i32 (...)**, i8 }
%"class.std::basic_stringstream" = type { %"class.std::basic_iostream.base", %"class.std::basic_stringbuf", %"class.std::basic_ios" }
%"class.std::basic_iostream.base" = type { %"class.std::basic_istream.base", %"class.std::basic_ostream.base" }
%"class.std::basic_istream.base" = type { i32 (...)**, i32 }
%"class.std::basic_ostream.base" = type { i32 (...)** }
%"class.std::basic_stringbuf" = type { %"class.std::basic_streambuf", i32, %"class.std::basic_string" }
%"class.std::basic_string" = type { %"struct.std::basic_string<char, std::char_traits<char>, std::allocator<char> >::_Alloc_hider" }
%"struct.std::basic_string<char, std::char_traits<char>, std::allocator<char> >::_Alloc_hider" = type { i8* }
%"class.boost::unit_test::basic_cstring" = type { i8*, i8* }
%"struct.boost::test_tools::tt_detail::equal_impl_frwd" = type { i8 }
%"class.boost::unit_test::lazy_ostream_impl" = type { %"class.boost::unit_test::lazy_ostream", %"class.boost::unit_test::lazy_ostream"*, [1 x i8]* }
%"class.boost::io::ios_flags_saver" = type { %"class.std::ios_base"*, i32 }
%"struct.std::_Setiosflags" = type { i32 }
%"class.boost::test_tools::predicate_result" = type { %"class.boost::test_tools::predicate_result::readonly_property62", %"class.boost::shared_ptr" }
%"class.boost::test_tools::predicate_result::readonly_property62" = type { %"class.boost::unit_test::readonly_property" }
%"class.boost::unit_test::readonly_property" = type { %"class.boost::unit_test::class_property" }
%"class.boost::unit_test::class_property" = type { i8 }
%"class.boost::shared_ptr" = type { %"class.boost::basic_wrap_stringstream"*, %"class.boost::detail::shared_count" }
%"class.boost::basic_wrap_stringstream" = type { %"class.std::basic_ostringstream", %"class.std::basic_string" }
%"class.std::basic_ostringstream" = type { %"class.std::basic_ostream.base", %"class.std::basic_stringbuf", %"class.std::basic_ios" }
%"class.boost::detail::shared_count" = type { %"class.boost::detail::sp_counted_base"* }
%"class.boost::detail::sp_counted_base" = type { i32 (...)**, i32, i32 }
%"class.boost::unit_test::lazy_ostream_impl.48" = type { %"class.boost::unit_test::lazy_ostream", %"class.boost::unit_test::lazy_ostream"*, %"struct.boost::test_tools::tt_detail::print_helper_t.49"* }
%"struct.boost::test_tools::tt_detail::print_helper_t.49" = type { i32* }
%"class.boost::io::ios_precision_saver" = type { %"class.std::ios_base"*, i32 }
%"struct.std::_Setprecision" = type { i32 }
%"class.boost::unit_test::lazy_ostream_impl.33" = type { %"class.boost::unit_test::lazy_ostream", %"class.boost::unit_test::lazy_ostream"*, %"struct.boost::test_tools::tt_detail::print_helper_t.34"* }
%"struct.boost::test_tools::tt_detail::print_helper_t.34" = type { i32* }
%"class.boost::io::ios_width_saver" = type { %"class.std::ios_base"*, i32 }
%"struct.std::_Setw" = type { i32 }
%"class.boost::unit_test::lazy_ostream_impl.0" = type { %"class.boost::unit_test::lazy_ostream", %"class.boost::unit_test::lazy_ostream"*, %"class.boost::unit_test::basic_cstring"* }
%"class.boost::io::basic_ios_iostate_saver" = type { %"class.std::basic_ios"*, i32 }
%"class.std::basic_istream" = type { i32 (...)**, i32, %"class.std::basic_ios" }
%"class.boost::unit_test::lazy_ostream_impl.45" = type { %"class.boost::unit_test::lazy_ostream", %"class.boost::unit_test::lazy_ostream"*, %"struct.boost::test_tools::tt_detail::print_helper_t.46"* }
%"struct.boost::test_tools::tt_detail::print_helper_t.46" = type { i32* }
%"class.boost::io::basic_ios_exception_saver" = type { %"class.std::basic_ios"*, i32 }
%"class.boost::unit_test::lazy_ostream_impl.1" = type { %"class.boost::unit_test::lazy_ostream", %"class.boost::unit_test::lazy_ostream"*, [45 x i8]* }
%"class.std::ios_base::failure" = type { %"class.std::exception", %"class.std::basic_string" }
%"class.std::exception" = type { i32 (...)** }
%"class.boost::unit_test::lazy_ostream_impl.2" = type { %"class.boost::unit_test::lazy_ostream", %"class.boost::unit_test::lazy_ostream"*, [43 x i8]* }
%"class.boost::unit_test::lazy_ostream_impl.3" = type { %"class.boost::unit_test::lazy_ostream", %"class.boost::unit_test::lazy_ostream"*, [32 x i8]* }
%"class.boost::unit_test::lazy_ostream_impl.4" = type { %"class.boost::unit_test::lazy_ostream", %"class.boost::unit_test::lazy_ostream"*, [28 x i8]* }
%"class.boost::io::basic_ios_tie_saver" = type { %"class.std::basic_ios"*, %"class.std::basic_ostream"* }
%"class.boost::unit_test::lazy_ostream_impl.42" = type { %"class.boost::unit_test::lazy_ostream", %"class.boost::unit_test::lazy_ostream"*, %"struct.boost::test_tools::tt_detail::print_helper_t.43"* }
%"struct.boost::test_tools::tt_detail::print_helper_t.43" = type { %"class.std::basic_ostream"** }
%"class.std::basic_iostream" = type { %"class.std::basic_istream.base", %"class.std::basic_ostream.base", %"class.std::basic_ios" }
%"class.boost::io::basic_ios_rdbuf_saver" = type { %"class.std::basic_ios"*, %"class.std::basic_streambuf"* }
%"class.std::allocator" = type { i8 }
%"class.boost::unit_test::lazy_ostream_impl.24" = type { %"class.boost::unit_test::lazy_ostream", %"class.boost::unit_test::lazy_ostream"*, %"struct.boost::test_tools::tt_detail::print_helper_t.25"* }
%"struct.boost::test_tools::tt_detail::print_helper_t.25" = type { %"class.std::basic_stringbuf"** }
%"class.boost::unit_test::lazy_ostream_impl.23" = type { %"class.boost::unit_test::lazy_ostream", %"class.boost::unit_test::lazy_ostream"*, %"struct.boost::test_tools::tt_detail::print_helper_t"* }
%"struct.boost::test_tools::tt_detail::print_helper_t" = type { %"class.std::basic_streambuf"** }
%"class.boost::io::basic_ios_fill_saver" = type { %"class.std::basic_ios"*, i8 }
%"class.boost::unit_test::lazy_ostream_impl.39" = type { %"class.boost::unit_test::lazy_ostream", %"class.boost::unit_test::lazy_ostream"*, %"struct.boost::test_tools::tt_detail::print_helper_t.40"* }
%"struct.boost::test_tools::tt_detail::print_helper_t.40" = type { i8* }
%"class.boost::io::basic_ios_locale_saver" = type { %"class.std::basic_ios"*, %"class.std::locale" }
%"class.std::numpunct" = type { %"class.std::locale::facet", %"struct.std::__numpunct_cache"* }
%"struct.std::__numpunct_cache" = type { %"class.std::locale::facet", i8*, i32, i8, i8*, i32, i8*, i32, i8, i8, [36 x i8], [26 x i8], i8 }
%class.backward_bool_names = type { %"class.std::numpunct" }
%"class.boost::io::ios_iword_saver" = type { %"class.std::ios_base"*, i32, i32 }
%"class.boost::unit_test::lazy_ostream_impl.35" = type { %"class.boost::unit_test::lazy_ostream", %"class.boost::unit_test::lazy_ostream"*, %"struct.boost::test_tools::tt_detail::print_helper_t.36"* }
%"struct.boost::test_tools::tt_detail::print_helper_t.36" = type { i32* }
%"class.boost::io::ios_pword_saver" = type { %"class.std::ios_base"*, i8*, i32 }
%"class.boost::unit_test::lazy_ostream_impl.30" = type { %"class.boost::unit_test::lazy_ostream", %"class.boost::unit_test::lazy_ostream"*, %"struct.boost::test_tools::tt_detail::print_helper_t.31"* }
%"struct.boost::test_tools::tt_detail::print_helper_t.31" = type { %"class.std::basic_stringstream"** }
%"class.boost::unit_test::lazy_ostream_impl.26" = type { %"class.boost::unit_test::lazy_ostream", %"class.boost::unit_test::lazy_ostream"*, %"struct.boost::test_tools::tt_detail::print_helper_t.27"* }
%"struct.boost::test_tools::tt_detail::print_helper_t.27" = type { i8** }
%"class.boost::io::ios_base_all_saver" = type { %"class.std::ios_base"*, i32, i32, i32 }
%"class.boost::io::basic_ios_all_saver" = type { %"class.std::basic_ios"*, i32, i32, i32, i32, i32, %"class.std::basic_ostream"*, %"class.std::basic_streambuf"*, i8, %"class.std::locale" }
%"struct.std::_Setfill" = type { i8 }
%"class.boost::io::ios_all_word_saver" = type { %"class.std::ios_base"*, i32, i32, i8* }
%"class.boost::unit_test::test_suite" = type { i32 (...)**, %"class.boost::unit_test::test_unit", %"class.std::vector" }
%"class.boost::unit_test::test_unit" = type { %"class.boost::unit_test::readonly_property.5", %"class.boost::unit_test::readonly_property.7", %"class.boost::unit_test::test_unit::readonly_property64", %"class.boost::unit_test::test_unit::readonly_property65", %"class.boost::unit_test::readwrite_property", %"class.boost::unit_test::readwrite_property.12", %"class.boost::unit_test::readwrite_property.14", %"class.boost::unit_test::readwrite_property.15", %"class.std::list" }
%"class.boost::unit_test::readonly_property.5" = type { %"class.boost::unit_test::class_property.6" }
%"class.boost::unit_test::class_property.6" = type { i32 }
%"class.boost::unit_test::readonly_property.7" = type { %"class.boost::unit_test::class_property.8" }
%"class.boost::unit_test::class_property.8" = type { %"class.boost::unit_test::basic_cstring" }
%"class.boost::unit_test::test_unit::readonly_property64" = type { %"class.boost::unit_test::readonly_property.9" }
%"class.boost::unit_test::readonly_property.9" = type { %"class.boost::unit_test::class_property.10" }
%"class.boost::unit_test::class_property.10" = type { i32 }
%"class.boost::unit_test::test_unit::readonly_property65" = type { %"class.boost::unit_test::readonly_property.9" }
%"class.boost::unit_test::readwrite_property" = type { %"class.boost::unit_test::class_property.11" }
%"class.boost::unit_test::class_property.11" = type { %"class.std::basic_string" }
%"class.boost::unit_test::readwrite_property.12" = type { %"class.boost::unit_test::class_property.13" }
%"class.boost::unit_test::class_property.13" = type { i32 }
%"class.boost::unit_test::readwrite_property.14" = type { %"class.boost::unit_test::class_property.10" }
%"class.boost::unit_test::readwrite_property.15" = type { %"class.boost::unit_test::class_property" }
%"class.std::list" = type { %"class.std::_List_base" }
%"class.std::_List_base" = type { %"struct.std::_List_base<unsigned long, std::allocator<unsigned long> >::_List_impl" }
%"struct.std::_List_base<unsigned long, std::allocator<unsigned long> >::_List_impl" = type { %"struct.std::__detail::_List_node_base" }
%"struct.std::__detail::_List_node_base" = type { %"struct.std::__detail::_List_node_base"*, %"struct.std::__detail::_List_node_base"* }
%"class.std::vector" = type { %"struct.std::_Vector_base" }
%"struct.std::_Vector_base" = type { %"struct.std::_Vector_base<unsigned long, std::allocator<unsigned long> >::_Vector_impl" }
%"struct.std::_Vector_base<unsigned long, std::allocator<unsigned long> >::_Vector_impl" = type { i32*, i32*, i32* }
%"class.boost::unit_test::callback0" = type { %"class.boost::shared_ptr.22" }
%"class.boost::shared_ptr.22" = type { %"struct.boost::unit_test::ut_detail::callback0_impl"*, %"class.boost::detail::shared_count" }
%"struct.boost::unit_test::ut_detail::callback0_impl" = type { i32 (...)** }
%"class.boost::unit_test::test_case" = type { %"class.boost::unit_test::test_unit", %"class.boost::unit_test::callback0" }
%"struct.boost::unit_test::ut_detail::callback0_impl_t" = type { %"struct.boost::unit_test::ut_detail::callback0_impl", void ()* }
%"struct.boost::unit_test::ut_detail::unused" = type { i8 }
%"struct.boost::unit_test::ut_detail::invoker" = type { i8 }
%"class.boost::detail::sp_counted_impl_p" = type { %"class.boost::detail::sp_counted_base", %"struct.boost::unit_test::ut_detail::callback0_impl_t"* }
%"class.std::type_info" = type { i32 (...)**, i8* }
%"struct.mpl_::bool_" = type { i8 }
%"struct.boost::integral_constant" = type { i8 }
%"struct.boost::test_tools::print_log_value" = type { i8 }
%"struct.boost::test_tools::print_log_value.28" = type { i8 }
%"struct.boost::test_tools::print_log_value.29" = type { i8 }
%"struct.boost::test_tools::print_log_value.32" = type { i8 }
%"struct.boost::test_tools::print_log_value.37" = type { i8 }
%"struct.boost::test_tools::print_log_value.38" = type { i8 }
%"struct.boost::test_tools::print_log_value.41" = type { i8 }
%"struct.boost::test_tools::print_log_value.44" = type { i8 }
%"struct.boost::test_tools::print_log_value.47" = type { i8 }
%"struct.boost::test_tools::print_log_value.50" = type { i8 }
%"class.boost::unit_test::singleton" = type { i8 }
%"class.boost::noncopyable_::noncopyable" = type { i8 }
%"class.boost::execution_exception" = type opaque

@_ZStL8__ioinit = internal global %"class.std::ios_base::Init" zeroinitializer, align 1
@__dso_handle = external unnamed_addr global i8
@_ZN5boost9unit_test12_GLOBAL__N_113unit_test_logE = internal global %"class.boost::unit_test::unit_test_log_t"* null, align 4
@_ZL10word_index = internal global i32 0, align 4
@.str = private unnamed_addr constant [24 x i8] c"ios_state_unit_test.cpp\00", align 1
@.str3 = private unnamed_addr constant [1 x i8] zeroinitializer, align 1
@.str4 = private unnamed_addr constant [35 x i8] c"(ios_base::skipws | ios_base::dec)\00", align 1
@.str5 = private unnamed_addr constant [11 x i8] c"ss.flags()\00", align 1
@_ZN5boost10test_tools12_GLOBAL__N_110dummy_condE = internal global i8 0, align 1
@.str6 = private unnamed_addr constant [56 x i8] c"(ios_base::boolalpha | ios_base::dec | ios_base::fixed)\00", align 1
@.str7 = private unnamed_addr constant [42 x i8] c"(ios_base::showbase | ios_base::internal)\00", align 1
@.str8 = private unnamed_addr constant [62 x i8] c"(ios_base::showbase | ios_base::internal | ios_base::unitbuf)\00", align 1
@.str9 = private unnamed_addr constant [2 x i8] c"6\00", align 1
@.str10 = private unnamed_addr constant [15 x i8] c"ss.precision()\00", align 1
@.str11 = private unnamed_addr constant [2 x i8] c"4\00", align 1
@.str12 = private unnamed_addr constant [2 x i8] c"8\00", align 1
@.str13 = private unnamed_addr constant [3 x i8] c"10\00", align 1
@.str14 = private unnamed_addr constant [2 x i8] c"0\00", align 1
@.str15 = private unnamed_addr constant [11 x i8] c"ss.width()\00", align 1
@_ZNSt8ios_base7goodbitE = external constant i32
@.str16 = private unnamed_addr constant [18 x i8] c"ios_base::goodbit\00", align 1
@.str17 = private unnamed_addr constant [13 x i8] c"ss.rdstate()\00", align 1
@.str18 = private unnamed_addr constant [10 x i8] c"ss.good()\00", align 1
@.str19 = private unnamed_addr constant [39 x i8] c"(ios_base::eofbit | ios_base::failbit)\00", align 1
@.str20 = private unnamed_addr constant [9 x i8] c"ss.eof()\00", align 1
@.str21 = private unnamed_addr constant [10 x i8] c"ss.fail()\00", align 1
@.str22 = private unnamed_addr constant [10 x i8] c"!ss.bad()\00", align 1
@_ZNSt8ios_base6eofbitE = external constant i32
@.str23 = private unnamed_addr constant [17 x i8] c"ios_base::eofbit\00", align 1
@.str24 = private unnamed_addr constant [38 x i8] c"(ios_base::eofbit | ios_base::badbit)\00", align 1
@.str25 = private unnamed_addr constant [9 x i8] c"ss.bad()\00", align 1
@.str26 = private unnamed_addr constant [16 x i8] c"ss.exceptions()\00", align 1
@_ZNSt8ios_base7failbitE = external constant i32
@.str27 = private unnamed_addr constant [18 x i8] c"ios_base::failbit\00", align 1
@_ZTINSt8ios_base7failureE = external constant i8*
@.str28 = private unnamed_addr constant [45 x i8] c"exception std::ios_base::failure is expected\00", align 1
@.str29 = private unnamed_addr constant [43 x i8] c"exception std::ios_base::failure is caught\00", align 1
@_ZNSt8ios_base6badbitE = external constant i32
@.str30 = private unnamed_addr constant [17 x i8] c"ios_base::badbit\00", align 1
@.str31 = private unnamed_addr constant [32 x i8] c"no exceptions thrown by ss >> c\00", align 1
@.str32 = private unnamed_addr constant [28 x i8] c"exception thrown by ss >> c\00", align 1
@_ZSt4cout = external global %"class.std::basic_ostream"
@.str33 = private unnamed_addr constant [21 x i8] c"__null == cout.tie()\00", align 1
@_ZSt4clog = external global %"class.std::basic_ostream"
@.str34 = private unnamed_addr constant [6 x i8] c"&clog\00", align 1
@.str35 = private unnamed_addr constant [11 x i8] c"cout.tie()\00", align 1
@_ZSt4cerr = external global %"class.std::basic_ostream"
@.str36 = private unnamed_addr constant [6 x i8] c"&cerr\00", align 1
@.str37 = private unnamed_addr constant [20 x i8] c"__null == s.rdbuf()\00", align 1
@.str38 = private unnamed_addr constant [4 x i8] c"&sb\00", align 1
@.str39 = private unnamed_addr constant [10 x i8] c"s.rdbuf()\00", align 1
@.str40 = private unnamed_addr constant [9 x i8] c"Hi there\00", align 1
@.str41 = private unnamed_addr constant [5 x i8] c"&sb1\00", align 1
@.str42 = private unnamed_addr constant [5 x i8] c"&sb2\00", align 1
@.str43 = private unnamed_addr constant [4 x i8] c"' '\00", align 1
@.str44 = private unnamed_addr constant [10 x i8] c"ss.fill()\00", align 1
@.str45 = private unnamed_addr constant [4 x i8] c"'x'\00", align 1
@.str46 = private unnamed_addr constant [4 x i8] c"'3'\00", align 1
@.str47 = private unnamed_addr constant [4 x i8] c"'+'\00", align 1
@.str48 = private unnamed_addr constant [24 x i8] c"locale() == ss.getloc()\00", align 1
@_ZTISt8numpunctIcE = external constant i8*
@_ZTVN10__cxxabiv120__si_class_type_infoE = external global i8*
@_ZTS19backward_bool_names = linkonce_odr constant [22 x i8] c"19backward_bool_names\00"
@_ZTI19backward_bool_names = linkonce_odr unnamed_addr constant { i8*, i8*, i8* } { i8* bitcast (i8** getelementptr inbounds (i8** @_ZTVN10__cxxabiv120__si_class_type_infoE, i32 2) to i8*), i8* getelementptr inbounds ([22 x i8]* @_ZTS19backward_bool_names, i32 0, i32 0), i8* bitcast (i8** @_ZTISt8numpunctIcE to i8*) }
@.str49 = private unnamed_addr constant [128 x i8] c"!has_facet<npc_type>(ss.getloc()) || (__null == dynamic_cast<backward_bool_names const *>( &use_facet<npc_type>(ss.getloc()) ))\00", align 1
@.str50 = private unnamed_addr constant [33 x i8] c"locale::classic() == ss.getloc()\00", align 1
@.str51 = private unnamed_addr constant [33 x i8] c"locale::classic() != ss.getloc()\00", align 1
@.str52 = private unnamed_addr constant [127 x i8] c"has_facet<npc_type>(ss.getloc()) && (__null != dynamic_cast<backward_bool_names const *>( &use_facet<npc_type>(ss.getloc()) ))\00", align 1
@.str53 = private unnamed_addr constant [21 x i8] c"ss.iword(word_index)\00", align 1
@.str54 = private unnamed_addr constant [4 x i8] c"100\00", align 1
@.str55 = private unnamed_addr constant [6 x i8] c"-2000\00", align 1
@.str56 = private unnamed_addr constant [31 x i8] c"__null == ss.pword(word_index)\00", align 1
@.str57 = private unnamed_addr constant [4 x i8] c"&ss\00", align 1
@.str58 = private unnamed_addr constant [21 x i8] c"ss.pword(word_index)\00", align 1
@.str59 = private unnamed_addr constant [11 x i8] c"ss.rdbuf()\00", align 1
@.str60 = private unnamed_addr constant [55 x i8] c"(ios_base::unitbuf | ios_base::hex | ios_base::skipws)\00", align 1
@.str61 = private unnamed_addr constant [2 x i8] c"5\00", align 1
@.str62 = private unnamed_addr constant [2 x i8] c"7\00", align 1
@.str63 = private unnamed_addr constant [19 x i8] c"__null == ss.tie()\00", align 1
@.str64 = private unnamed_addr constant [18 x i8] c"&sb == ss.rdbuf()\00", align 1
@.str65 = private unnamed_addr constant [36 x i8] c"(ios_base::showpos | ios_base::oct)\00", align 1
@.str66 = private unnamed_addr constant [2 x i8] c"3\00", align 1
@.str67 = private unnamed_addr constant [2 x i8] c"9\00", align 1
@.str68 = private unnamed_addr constant [9 x i8] c"ss.tie()\00", align 1
@.str69 = private unnamed_addr constant [13 x i8] c"cerr.rdbuf()\00", align 1
@.str70 = private unnamed_addr constant [24 x i8] c"locale() != ss.getloc()\00", align 1
@.str71 = private unnamed_addr constant [4 x i8] c"-11\00", align 1
@.str72 = private unnamed_addr constant [21 x i8] c"I/O state saver test\00", align 1
@.str73 = private unnamed_addr constant [26 x i8] c"ios_flags_saver_unit_test\00", align 1
@.str74 = private unnamed_addr constant [30 x i8] c"ios_precision_saver_unit_test\00", align 1
@.str75 = private unnamed_addr constant [26 x i8] c"ios_width_saver_unit_test\00", align 1
@.str76 = private unnamed_addr constant [28 x i8] c"ios_iostate_saver_unit_test\00", align 1
@.str77 = private unnamed_addr constant [30 x i8] c"ios_exception_saver_unit_test\00", align 1
@.str78 = private unnamed_addr constant [24 x i8] c"ios_tie_saver_unit_test\00", align 1
@.str79 = private unnamed_addr constant [26 x i8] c"ios_rdbuf_saver_unit_test\00", align 1
@.str80 = private unnamed_addr constant [25 x i8] c"ios_fill_saver_unit_test\00", align 1
@.str81 = private unnamed_addr constant [27 x i8] c"ios_locale_saver_unit_test\00", align 1
@.str82 = private unnamed_addr constant [26 x i8] c"ios_iword_saver_unit_test\00", align 1
@.str83 = private unnamed_addr constant [26 x i8] c"ios_pword_saver_unit_test\00", align 1
@.str84 = private unnamed_addr constant [29 x i8] c"ios_base_all_saver_unit_test\00", align 1
@.str85 = private unnamed_addr constant [24 x i8] c"ios_all_saver_unit_test\00", align 1
@.str86 = private unnamed_addr constant [25 x i8] c"ios_word_saver_unit_test\00", align 1
@_ZTVN5boost9unit_test9ut_detail16callback0_impl_tINS1_6unusedEPFvvEEE = linkonce_odr unnamed_addr constant [5 x i8*] [i8* null, i8* bitcast ({ i8*, i8*, i8* }* @_ZTIN5boost9unit_test9ut_detail16callback0_impl_tINS1_6unusedEPFvvEEE to i8*), i8* bitcast (void (%"struct.boost::unit_test::ut_detail::callback0_impl_t"*)* @_ZN5boost9unit_test9ut_detail16callback0_impl_tINS1_6unusedEPFvvEED1Ev to i8*), i8* bitcast (void (%"struct.boost::unit_test::ut_detail::callback0_impl_t"*)* @_ZN5boost9unit_test9ut_detail16callback0_impl_tINS1_6unusedEPFvvEED0Ev to i8*), i8* bitcast (void (%"struct.boost::unit_test::ut_detail::unused"*, %"struct.boost::unit_test::ut_detail::callback0_impl_t"*)* @_ZN5boost9unit_test9ut_detail16callback0_impl_tINS1_6unusedEPFvvEE6invokeEv to i8*)]
@_ZTSN5boost9unit_test9ut_detail16callback0_impl_tINS1_6unusedEPFvvEEE = linkonce_odr constant [66 x i8] c"N5boost9unit_test9ut_detail16callback0_impl_tINS1_6unusedEPFvvEEE\00"
@_ZTVN10__cxxabiv117__class_type_infoE = external global i8*
@_ZTSN5boost9unit_test9ut_detail14callback0_implINS1_6unusedEEE = linkonce_odr constant [59 x i8] c"N5boost9unit_test9ut_detail14callback0_implINS1_6unusedEEE\00"
@_ZTIN5boost9unit_test9ut_detail14callback0_implINS1_6unusedEEE = linkonce_odr unnamed_addr constant { i8*, i8* } { i8* bitcast (i8** getelementptr inbounds (i8** @_ZTVN10__cxxabiv117__class_type_infoE, i32 2) to i8*), i8* getelementptr inbounds ([59 x i8]* @_ZTSN5boost9unit_test9ut_detail14callback0_implINS1_6unusedEEE, i32 0, i32 0) }
@_ZTIN5boost9unit_test9ut_detail16callback0_impl_tINS1_6unusedEPFvvEEE = linkonce_odr unnamed_addr constant { i8*, i8*, i8* } { i8* bitcast (i8** getelementptr inbounds (i8** @_ZTVN10__cxxabiv120__si_class_type_infoE, i32 2) to i8*), i8* getelementptr inbounds ([66 x i8]* @_ZTSN5boost9unit_test9ut_detail16callback0_impl_tINS1_6unusedEPFvvEEE, i32 0, i32 0), i8* bitcast ({ i8*, i8* }* @_ZTIN5boost9unit_test9ut_detail14callback0_implINS1_6unusedEEE to i8*) }
@_ZTVN5boost9unit_test9ut_detail14callback0_implINS1_6unusedEEE = linkonce_odr unnamed_addr constant [5 x i8*] [i8* null, i8* bitcast ({ i8*, i8* }* @_ZTIN5boost9unit_test9ut_detail14callback0_implINS1_6unusedEEE to i8*), i8* bitcast (void (%"struct.boost::unit_test::ut_detail::callback0_impl"*)* @_ZN5boost9unit_test9ut_detail14callback0_implINS1_6unusedEED1Ev to i8*), i8* bitcast (void (%"struct.boost::unit_test::ut_detail::callback0_impl"*)* @_ZN5boost9unit_test9ut_detail14callback0_implINS1_6unusedEED0Ev to i8*), i8* bitcast (void ()* @__cxa_pure_virtual to i8*)]
@_ZTVN5boost6detail17sp_counted_impl_pINS_9unit_test9ut_detail16callback0_impl_tINS3_6unusedEPFvvEEEEE = linkonce_odr unnamed_addr constant [7 x i8*] [i8* null, i8* bitcast ({ i8*, i8*, i8* }* @_ZTIN5boost6detail17sp_counted_impl_pINS_9unit_test9ut_detail16callback0_impl_tINS3_6unusedEPFvvEEEEE to i8*), i8* bitcast (void (%"class.boost::detail::sp_counted_impl_p"*)* @_ZN5boost6detail17sp_counted_impl_pINS_9unit_test9ut_detail16callback0_impl_tINS3_6unusedEPFvvEEEED1Ev to i8*), i8* bitcast (void (%"class.boost::detail::sp_counted_impl_p"*)* @_ZN5boost6detail17sp_counted_impl_pINS_9unit_test9ut_detail16callback0_impl_tINS3_6unusedEPFvvEEEED0Ev to i8*), i8* bitcast (void (%"class.boost::detail::sp_counted_impl_p"*)* @_ZN5boost6detail17sp_counted_impl_pINS_9unit_test9ut_detail16callback0_impl_tINS3_6unusedEPFvvEEEE7disposeEv to i8*), i8* bitcast (void (%"class.boost::detail::sp_counted_base"*)* @_ZN5boost6detail15sp_counted_base7destroyEv to i8*), i8* bitcast (i8* (%"class.boost::detail::sp_counted_impl_p"*, %"class.std::type_info"*)* @_ZN5boost6detail17sp_counted_impl_pINS_9unit_test9ut_detail16callback0_impl_tINS3_6unusedEPFvvEEEE11get_deleterERKSt9type_info to i8*)]
@_ZTSN5boost6detail17sp_counted_impl_pINS_9unit_test9ut_detail16callback0_impl_tINS3_6unusedEPFvvEEEEE = linkonce_odr constant [98 x i8] c"N5boost6detail17sp_counted_impl_pINS_9unit_test9ut_detail16callback0_impl_tINS3_6unusedEPFvvEEEEE\00"
@_ZTSN5boost6detail15sp_counted_baseE = linkonce_odr constant [33 x i8] c"N5boost6detail15sp_counted_baseE\00"
@_ZTIN5boost6detail15sp_counted_baseE = linkonce_odr unnamed_addr constant { i8*, i8* } { i8* bitcast (i8** getelementptr inbounds (i8** @_ZTVN10__cxxabiv117__class_type_infoE, i32 2) to i8*), i8* getelementptr inbounds ([33 x i8]* @_ZTSN5boost6detail15sp_counted_baseE, i32 0, i32 0) }
@_ZTIN5boost6detail17sp_counted_impl_pINS_9unit_test9ut_detail16callback0_impl_tINS3_6unusedEPFvvEEEEE = linkonce_odr unnamed_addr constant { i8*, i8*, i8* } { i8* bitcast (i8** getelementptr inbounds (i8** @_ZTVN10__cxxabiv120__si_class_type_infoE, i32 2) to i8*), i8* getelementptr inbounds ([98 x i8]* @_ZTSN5boost6detail17sp_counted_impl_pINS_9unit_test9ut_detail16callback0_impl_tINS3_6unusedEPFvvEEEEE, i32 0, i32 0), i8* bitcast ({ i8*, i8* }* @_ZTIN5boost6detail15sp_counted_baseE to i8*) }
@_ZTVN5boost6detail15sp_counted_baseE = linkonce_odr unnamed_addr constant [7 x i8*] [i8* null, i8* bitcast ({ i8*, i8* }* @_ZTIN5boost6detail15sp_counted_baseE to i8*), i8* bitcast (void (%"class.boost::detail::sp_counted_base"*)* @_ZN5boost6detail15sp_counted_baseD1Ev to i8*), i8* bitcast (void (%"class.boost::detail::sp_counted_base"*)* @_ZN5boost6detail15sp_counted_baseD0Ev to i8*), i8* bitcast (void ()* @__cxa_pure_virtual to i8*), i8* bitcast (void (%"class.boost::detail::sp_counted_base"*)* @_ZN5boost6detail15sp_counted_base7destroyEv to i8*), i8* bitcast (void ()* @__cxa_pure_virtual to i8*)]
@_ZTVN5boost9unit_test17lazy_ostream_implIRKNS_10test_tools9tt_detail14print_helper_tIPSt15basic_streambufIcSt11char_traitsIcEEEEEE = linkonce_odr unnamed_addr constant [5 x i8*] [i8* null, i8* bitcast ({ i8*, i8*, i8* }* @_ZTIN5boost9unit_test17lazy_ostream_implIRKNS_10test_tools9tt_detail14print_helper_tIPSt15basic_streambufIcSt11char_traitsIcEEEEEE to i8*), i8* bitcast (%"class.std::basic_ostream"* (%"class.boost::unit_test::lazy_ostream_impl.23"*, %"class.std::basic_ostream"*)* @_ZNK5boost9unit_test17lazy_ostream_implIRKNS_10test_tools9tt_detail14print_helper_tIPSt15basic_streambufIcSt11char_traitsIcEEEEEclERSo to i8*), i8* bitcast (void (%"class.boost::unit_test::lazy_ostream_impl.23"*)* @_ZN5boost9unit_test17lazy_ostream_implIRKNS_10test_tools9tt_detail14print_helper_tIPSt15basic_streambufIcSt11char_traitsIcEEEEED1Ev to i8*), i8* bitcast (void (%"class.boost::unit_test::lazy_ostream_impl.23"*)* @_ZN5boost9unit_test17lazy_ostream_implIRKNS_10test_tools9tt_detail14print_helper_tIPSt15basic_streambufIcSt11char_traitsIcEEEEED0Ev to i8*)]
@_ZTSN5boost9unit_test17lazy_ostream_implIRKNS_10test_tools9tt_detail14print_helper_tIPSt15basic_streambufIcSt11char_traitsIcEEEEEE = linkonce_odr constant [127 x i8] c"N5boost9unit_test17lazy_ostream_implIRKNS_10test_tools9tt_detail14print_helper_tIPSt15basic_streambufIcSt11char_traitsIcEEEEEE\00"
@_ZTSN5boost9unit_test12lazy_ostreamE = linkonce_odr constant [33 x i8] c"N5boost9unit_test12lazy_ostreamE\00"
@_ZTIN5boost9unit_test12lazy_ostreamE = linkonce_odr unnamed_addr constant { i8*, i8* } { i8* bitcast (i8** getelementptr inbounds (i8** @_ZTVN10__cxxabiv117__class_type_infoE, i32 2) to i8*), i8* getelementptr inbounds ([33 x i8]* @_ZTSN5boost9unit_test12lazy_ostreamE, i32 0, i32 0) }
@_ZTIN5boost9unit_test17lazy_ostream_implIRKNS_10test_tools9tt_detail14print_helper_tIPSt15basic_streambufIcSt11char_traitsIcEEEEEE = linkonce_odr unnamed_addr constant { i8*, i8*, i8* } { i8* bitcast (i8** getelementptr inbounds (i8** @_ZTVN10__cxxabiv120__si_class_type_infoE, i32 2) to i8*), i8* getelementptr inbounds ([127 x i8]* @_ZTSN5boost9unit_test17lazy_ostream_implIRKNS_10test_tools9tt_detail14print_helper_tIPSt15basic_streambufIcSt11char_traitsIcEEEEEE, i32 0, i32 0), i8* bitcast ({ i8*, i8* }* @_ZTIN5boost9unit_test12lazy_ostreamE to i8*) }
@_ZTVN5boost9unit_test12lazy_ostreamE = linkonce_odr unnamed_addr constant [5 x i8*] [i8* null, i8* bitcast ({ i8*, i8* }* @_ZTIN5boost9unit_test12lazy_ostreamE to i8*), i8* bitcast (%"class.std::basic_ostream"* (%"class.boost::unit_test::lazy_ostream"*, %"class.std::basic_ostream"*)* @_ZNK5boost9unit_test12lazy_ostreamclERSo to i8*), i8* bitcast (void (%"class.boost::unit_test::lazy_ostream"*)* @_ZN5boost9unit_test12lazy_ostreamD1Ev to i8*), i8* bitcast (void (%"class.boost::unit_test::lazy_ostream"*)* @_ZN5boost9unit_test12lazy_ostreamD0Ev to i8*)]
@_ZTVN5boost9unit_test17lazy_ostream_implIRKNS_10test_tools9tt_detail14print_helper_tIPvEEEE = linkonce_odr unnamed_addr constant [5 x i8*] [i8* null, i8* bitcast ({ i8*, i8*, i8* }* @_ZTIN5boost9unit_test17lazy_ostream_implIRKNS_10test_tools9tt_detail14print_helper_tIPvEEEE to i8*), i8* bitcast (%"class.std::basic_ostream"* (%"class.boost::unit_test::lazy_ostream_impl.26"*, %"class.std::basic_ostream"*)* @_ZNK5boost9unit_test17lazy_ostream_implIRKNS_10test_tools9tt_detail14print_helper_tIPvEEEclERSo to i8*), i8* bitcast (void (%"class.boost::unit_test::lazy_ostream_impl.26"*)* @_ZN5boost9unit_test17lazy_ostream_implIRKNS_10test_tools9tt_detail14print_helper_tIPvEEED1Ev to i8*), i8* bitcast (void (%"class.boost::unit_test::lazy_ostream_impl.26"*)* @_ZN5boost9unit_test17lazy_ostream_implIRKNS_10test_tools9tt_detail14print_helper_tIPvEEED0Ev to i8*)]
@_ZTSN5boost9unit_test17lazy_ostream_implIRKNS_10test_tools9tt_detail14print_helper_tIPvEEEE = linkonce_odr constant [88 x i8] c"N5boost9unit_test17lazy_ostream_implIRKNS_10test_tools9tt_detail14print_helper_tIPvEEEE\00"
@_ZTIN5boost9unit_test17lazy_ostream_implIRKNS_10test_tools9tt_detail14print_helper_tIPvEEEE = linkonce_odr unnamed_addr constant { i8*, i8*, i8* } { i8* bitcast (i8** getelementptr inbounds (i8** @_ZTVN10__cxxabiv120__si_class_type_infoE, i32 2) to i8*), i8* getelementptr inbounds ([88 x i8]* @_ZTSN5boost9unit_test17lazy_ostream_implIRKNS_10test_tools9tt_detail14print_helper_tIPvEEEE, i32 0, i32 0), i8* bitcast ({ i8*, i8* }* @_ZTIN5boost9unit_test12lazy_ostreamE to i8*) }
@_ZTVN5boost9unit_test17lazy_ostream_implIRKNS_10test_tools9tt_detail14print_helper_tIPSt15basic_stringbufIcSt11char_traitsIcESaIcEEEEEE = linkonce_odr unnamed_addr constant [5 x i8*] [i8* null, i8* bitcast ({ i8*, i8*, i8* }* @_ZTIN5boost9unit_test17lazy_ostream_implIRKNS_10test_tools9tt_detail14print_helper_tIPSt15basic_stringbufIcSt11char_traitsIcESaIcEEEEEE to i8*), i8* bitcast (%"class.std::basic_ostream"* (%"class.boost::unit_test::lazy_ostream_impl.24"*, %"class.std::basic_ostream"*)* @_ZNK5boost9unit_test17lazy_ostream_implIRKNS_10test_tools9tt_detail14print_helper_tIPSt15basic_stringbufIcSt11char_traitsIcESaIcEEEEEclERSo to i8*), i8* bitcast (void (%"class.boost::unit_test::lazy_ostream_impl.24"*)* @_ZN5boost9unit_test17lazy_ostream_implIRKNS_10test_tools9tt_detail14print_helper_tIPSt15basic_stringbufIcSt11char_traitsIcESaIcEEEEED1Ev to i8*), i8* bitcast (void (%"class.boost::unit_test::lazy_ostream_impl.24"*)* @_ZN5boost9unit_test17lazy_ostream_implIRKNS_10test_tools9tt_detail14print_helper_tIPSt15basic_stringbufIcSt11char_traitsIcESaIcEEEEED0Ev to i8*)]
@_ZTSN5boost9unit_test17lazy_ostream_implIRKNS_10test_tools9tt_detail14print_helper_tIPSt15basic_stringbufIcSt11char_traitsIcESaIcEEEEEE = linkonce_odr constant [132 x i8] c"N5boost9unit_test17lazy_ostream_implIRKNS_10test_tools9tt_detail14print_helper_tIPSt15basic_stringbufIcSt11char_traitsIcESaIcEEEEEE\00"
@_ZTIN5boost9unit_test17lazy_ostream_implIRKNS_10test_tools9tt_detail14print_helper_tIPSt15basic_stringbufIcSt11char_traitsIcESaIcEEEEEE = linkonce_odr unnamed_addr constant { i8*, i8*, i8* } { i8* bitcast (i8** getelementptr inbounds (i8** @_ZTVN10__cxxabiv120__si_class_type_infoE, i32 2) to i8*), i8* getelementptr inbounds ([132 x i8]* @_ZTSN5boost9unit_test17lazy_ostream_implIRKNS_10test_tools9tt_detail14print_helper_tIPSt15basic_stringbufIcSt11char_traitsIcESaIcEEEEEE, i32 0, i32 0), i8* bitcast ({ i8*, i8* }* @_ZTIN5boost9unit_test12lazy_ostreamE to i8*) }
@_ZTVN5boost9unit_test17lazy_ostream_implIRKNS_10test_tools9tt_detail14print_helper_tIPSt18basic_stringstreamIcSt11char_traitsIcESaIcEEEEEE = linkonce_odr unnamed_addr constant [5 x i8*] [i8* null, i8* bitcast ({ i8*, i8*, i8* }* @_ZTIN5boost9unit_test17lazy_ostream_implIRKNS_10test_tools9tt_detail14print_helper_tIPSt18basic_stringstreamIcSt11char_traitsIcESaIcEEEEEE to i8*), i8* bitcast (%"class.std::basic_ostream"* (%"class.boost::unit_test::lazy_ostream_impl.30"*, %"class.std::basic_ostream"*)* @_ZNK5boost9unit_test17lazy_ostream_implIRKNS_10test_tools9tt_detail14print_helper_tIPSt18basic_stringstreamIcSt11char_traitsIcESaIcEEEEEclERSo to i8*), i8* bitcast (void (%"class.boost::unit_test::lazy_ostream_impl.30"*)* @_ZN5boost9unit_test17lazy_ostream_implIRKNS_10test_tools9tt_detail14print_helper_tIPSt18basic_stringstreamIcSt11char_traitsIcESaIcEEEEED1Ev to i8*), i8* bitcast (void (%"class.boost::unit_test::lazy_ostream_impl.30"*)* @_ZN5boost9unit_test17lazy_ostream_implIRKNS_10test_tools9tt_detail14print_helper_tIPSt18basic_stringstreamIcSt11char_traitsIcESaIcEEEEED0Ev to i8*)]
@_ZTSN5boost9unit_test17lazy_ostream_implIRKNS_10test_tools9tt_detail14print_helper_tIPSt18basic_stringstreamIcSt11char_traitsIcESaIcEEEEEE = linkonce_odr constant [135 x i8] c"N5boost9unit_test17lazy_ostream_implIRKNS_10test_tools9tt_detail14print_helper_tIPSt18basic_stringstreamIcSt11char_traitsIcESaIcEEEEEE\00"
@_ZTIN5boost9unit_test17lazy_ostream_implIRKNS_10test_tools9tt_detail14print_helper_tIPSt18basic_stringstreamIcSt11char_traitsIcESaIcEEEEEE = linkonce_odr unnamed_addr constant { i8*, i8*, i8* } { i8* bitcast (i8** getelementptr inbounds (i8** @_ZTVN10__cxxabiv120__si_class_type_infoE, i32 2) to i8*), i8* getelementptr inbounds ([135 x i8]* @_ZTSN5boost9unit_test17lazy_ostream_implIRKNS_10test_tools9tt_detail14print_helper_tIPSt18basic_stringstreamIcSt11char_traitsIcESaIcEEEEEE, i32 0, i32 0), i8* bitcast ({ i8*, i8* }* @_ZTIN5boost9unit_test12lazy_ostreamE to i8*) }
@_ZTVN5boost9unit_test17lazy_ostream_implIRKNS_10test_tools9tt_detail14print_helper_tIlEEEE = linkonce_odr unnamed_addr constant [5 x i8*] [i8* null, i8* bitcast ({ i8*, i8*, i8* }* @_ZTIN5boost9unit_test17lazy_ostream_implIRKNS_10test_tools9tt_detail14print_helper_tIlEEEE to i8*), i8* bitcast (%"class.std::basic_ostream"* (%"class.boost::unit_test::lazy_ostream_impl.35"*, %"class.std::basic_ostream"*)* @_ZNK5boost9unit_test17lazy_ostream_implIRKNS_10test_tools9tt_detail14print_helper_tIlEEEclERSo to i8*), i8* bitcast (void (%"class.boost::unit_test::lazy_ostream_impl.35"*)* @_ZN5boost9unit_test17lazy_ostream_implIRKNS_10test_tools9tt_detail14print_helper_tIlEEED1Ev to i8*), i8* bitcast (void (%"class.boost::unit_test::lazy_ostream_impl.35"*)* @_ZN5boost9unit_test17lazy_ostream_implIRKNS_10test_tools9tt_detail14print_helper_tIlEEED0Ev to i8*)]
@_ZTSN5boost9unit_test17lazy_ostream_implIRKNS_10test_tools9tt_detail14print_helper_tIlEEEE = linkonce_odr constant [87 x i8] c"N5boost9unit_test17lazy_ostream_implIRKNS_10test_tools9tt_detail14print_helper_tIlEEEE\00"
@_ZTIN5boost9unit_test17lazy_ostream_implIRKNS_10test_tools9tt_detail14print_helper_tIlEEEE = linkonce_odr unnamed_addr constant { i8*, i8*, i8* } { i8* bitcast (i8** getelementptr inbounds (i8** @_ZTVN10__cxxabiv120__si_class_type_infoE, i32 2) to i8*), i8* getelementptr inbounds ([87 x i8]* @_ZTSN5boost9unit_test17lazy_ostream_implIRKNS_10test_tools9tt_detail14print_helper_tIlEEEE, i32 0, i32 0), i8* bitcast ({ i8*, i8* }* @_ZTIN5boost9unit_test12lazy_ostreamE to i8*) }
@_ZTVN5boost9unit_test17lazy_ostream_implIRKNS_10test_tools9tt_detail14print_helper_tIiEEEE = linkonce_odr unnamed_addr constant [5 x i8*] [i8* null, i8* bitcast ({ i8*, i8*, i8* }* @_ZTIN5boost9unit_test17lazy_ostream_implIRKNS_10test_tools9tt_detail14print_helper_tIiEEEE to i8*), i8* bitcast (%"class.std::basic_ostream"* (%"class.boost::unit_test::lazy_ostream_impl.33"*, %"class.std::basic_ostream"*)* @_ZNK5boost9unit_test17lazy_ostream_implIRKNS_10test_tools9tt_detail14print_helper_tIiEEEclERSo to i8*), i8* bitcast (void (%"class.boost::unit_test::lazy_ostream_impl.33"*)* @_ZN5boost9unit_test17lazy_ostream_implIRKNS_10test_tools9tt_detail14print_helper_tIiEEED1Ev to i8*), i8* bitcast (void (%"class.boost::unit_test::lazy_ostream_impl.33"*)* @_ZN5boost9unit_test17lazy_ostream_implIRKNS_10test_tools9tt_detail14print_helper_tIiEEED0Ev to i8*)]
@_ZTSN5boost9unit_test17lazy_ostream_implIRKNS_10test_tools9tt_detail14print_helper_tIiEEEE = linkonce_odr constant [87 x i8] c"N5boost9unit_test17lazy_ostream_implIRKNS_10test_tools9tt_detail14print_helper_tIiEEEE\00"
@_ZTIN5boost9unit_test17lazy_ostream_implIRKNS_10test_tools9tt_detail14print_helper_tIiEEEE = linkonce_odr unnamed_addr constant { i8*, i8*, i8* } { i8* bitcast (i8** getelementptr inbounds (i8** @_ZTVN10__cxxabiv120__si_class_type_infoE, i32 2) to i8*), i8* getelementptr inbounds ([87 x i8]* @_ZTSN5boost9unit_test17lazy_ostream_implIRKNS_10test_tools9tt_detail14print_helper_tIiEEEE, i32 0, i32 0), i8* bitcast ({ i8*, i8* }* @_ZTIN5boost9unit_test12lazy_ostreamE to i8*) }
@_ZNSt8numpunctIcE2idE = external global %"class.std::locale::id"
@_ZZL18__gthread_active_pvE20__gthread_active_ptr = internal constant i8* bitcast (i32 (i32)* @pthread_cancel to i8*), align 4
@_ZTVN5boost9unit_test17lazy_ostream_implIRKNS_10test_tools9tt_detail14print_helper_tIcEEEE = linkonce_odr unnamed_addr constant [5 x i8*] [i8* null, i8* bitcast ({ i8*, i8*, i8* }* @_ZTIN5boost9unit_test17lazy_ostream_implIRKNS_10test_tools9tt_detail14print_helper_tIcEEEE to i8*), i8* bitcast (%"class.std::basic_ostream"* (%"class.boost::unit_test::lazy_ostream_impl.39"*, %"class.std::basic_ostream"*)* @_ZNK5boost9unit_test17lazy_ostream_implIRKNS_10test_tools9tt_detail14print_helper_tIcEEEclERSo to i8*), i8* bitcast (void (%"class.boost::unit_test::lazy_ostream_impl.39"*)* @_ZN5boost9unit_test17lazy_ostream_implIRKNS_10test_tools9tt_detail14print_helper_tIcEEED1Ev to i8*), i8* bitcast (void (%"class.boost::unit_test::lazy_ostream_impl.39"*)* @_ZN5boost9unit_test17lazy_ostream_implIRKNS_10test_tools9tt_detail14print_helper_tIcEEED0Ev to i8*)]
@_ZTSN5boost9unit_test17lazy_ostream_implIRKNS_10test_tools9tt_detail14print_helper_tIcEEEE = linkonce_odr constant [87 x i8] c"N5boost9unit_test17lazy_ostream_implIRKNS_10test_tools9tt_detail14print_helper_tIcEEEE\00"
@_ZTIN5boost9unit_test17lazy_ostream_implIRKNS_10test_tools9tt_detail14print_helper_tIcEEEE = linkonce_odr unnamed_addr constant { i8*, i8*, i8* } { i8* bitcast (i8** getelementptr inbounds (i8** @_ZTVN10__cxxabiv120__si_class_type_infoE, i32 2) to i8*), i8* getelementptr inbounds ([87 x i8]* @_ZTSN5boost9unit_test17lazy_ostream_implIRKNS_10test_tools9tt_detail14print_helper_tIcEEEE, i32 0, i32 0), i8* bitcast ({ i8*, i8* }* @_ZTIN5boost9unit_test12lazy_ostreamE to i8*) }
@_ZTVN5boost9unit_test17lazy_ostream_implIRKNS_10test_tools9tt_detail14print_helper_tIPSoEEEE = linkonce_odr unnamed_addr constant [5 x i8*] [i8* null, i8* bitcast ({ i8*, i8*, i8* }* @_ZTIN5boost9unit_test17lazy_ostream_implIRKNS_10test_tools9tt_detail14print_helper_tIPSoEEEE to i8*), i8* bitcast (%"class.std::basic_ostream"* (%"class.boost::unit_test::lazy_ostream_impl.42"*, %"class.std::basic_ostream"*)* @_ZNK5boost9unit_test17lazy_ostream_implIRKNS_10test_tools9tt_detail14print_helper_tIPSoEEEclERSo to i8*), i8* bitcast (void (%"class.boost::unit_test::lazy_ostream_impl.42"*)* @_ZN5boost9unit_test17lazy_ostream_implIRKNS_10test_tools9tt_detail14print_helper_tIPSoEEED1Ev to i8*), i8* bitcast (void (%"class.boost::unit_test::lazy_ostream_impl.42"*)* @_ZN5boost9unit_test17lazy_ostream_implIRKNS_10test_tools9tt_detail14print_helper_tIPSoEEED0Ev to i8*)]
@_ZTSN5boost9unit_test17lazy_ostream_implIRKNS_10test_tools9tt_detail14print_helper_tIPSoEEEE = linkonce_odr constant [89 x i8] c"N5boost9unit_test17lazy_ostream_implIRKNS_10test_tools9tt_detail14print_helper_tIPSoEEEE\00"
@_ZTIN5boost9unit_test17lazy_ostream_implIRKNS_10test_tools9tt_detail14print_helper_tIPSoEEEE = linkonce_odr unnamed_addr constant { i8*, i8*, i8* } { i8* bitcast (i8** getelementptr inbounds (i8** @_ZTVN10__cxxabiv120__si_class_type_infoE, i32 2) to i8*), i8* getelementptr inbounds ([89 x i8]* @_ZTSN5boost9unit_test17lazy_ostream_implIRKNS_10test_tools9tt_detail14print_helper_tIPSoEEEE, i32 0, i32 0), i8* bitcast ({ i8*, i8* }* @_ZTIN5boost9unit_test12lazy_ostreamE to i8*) }
@_ZTVN5boost9unit_test17lazy_ostream_implIRA28_KcEE = linkonce_odr unnamed_addr constant [5 x i8*] [i8* null, i8* bitcast ({ i8*, i8*, i8* }* @_ZTIN5boost9unit_test17lazy_ostream_implIRA28_KcEE to i8*), i8* bitcast (%"class.std::basic_ostream"* (%"class.boost::unit_test::lazy_ostream_impl.4"*, %"class.std::basic_ostream"*)* @_ZNK5boost9unit_test17lazy_ostream_implIRA28_KcEclERSo to i8*), i8* bitcast (void (%"class.boost::unit_test::lazy_ostream_impl.4"*)* @_ZN5boost9unit_test17lazy_ostream_implIRA28_KcED1Ev to i8*), i8* bitcast (void (%"class.boost::unit_test::lazy_ostream_impl.4"*)* @_ZN5boost9unit_test17lazy_ostream_implIRA28_KcED0Ev to i8*)]
@_ZTSN5boost9unit_test17lazy_ostream_implIRA28_KcEE = linkonce_odr constant [47 x i8] c"N5boost9unit_test17lazy_ostream_implIRA28_KcEE\00"
@_ZTIN5boost9unit_test17lazy_ostream_implIRA28_KcEE = linkonce_odr unnamed_addr constant { i8*, i8*, i8* } { i8* bitcast (i8** getelementptr inbounds (i8** @_ZTVN10__cxxabiv120__si_class_type_infoE, i32 2) to i8*), i8* getelementptr inbounds ([47 x i8]* @_ZTSN5boost9unit_test17lazy_ostream_implIRA28_KcEE, i32 0, i32 0), i8* bitcast ({ i8*, i8* }* @_ZTIN5boost9unit_test12lazy_ostreamE to i8*) }
@_ZTVN5boost9unit_test17lazy_ostream_implIRA32_KcEE = linkonce_odr unnamed_addr constant [5 x i8*] [i8* null, i8* bitcast ({ i8*, i8*, i8* }* @_ZTIN5boost9unit_test17lazy_ostream_implIRA32_KcEE to i8*), i8* bitcast (%"class.std::basic_ostream"* (%"class.boost::unit_test::lazy_ostream_impl.3"*, %"class.std::basic_ostream"*)* @_ZNK5boost9unit_test17lazy_ostream_implIRA32_KcEclERSo to i8*), i8* bitcast (void (%"class.boost::unit_test::lazy_ostream_impl.3"*)* @_ZN5boost9unit_test17lazy_ostream_implIRA32_KcED1Ev to i8*), i8* bitcast (void (%"class.boost::unit_test::lazy_ostream_impl.3"*)* @_ZN5boost9unit_test17lazy_ostream_implIRA32_KcED0Ev to i8*)]
@_ZTSN5boost9unit_test17lazy_ostream_implIRA32_KcEE = linkonce_odr constant [47 x i8] c"N5boost9unit_test17lazy_ostream_implIRA32_KcEE\00"
@_ZTIN5boost9unit_test17lazy_ostream_implIRA32_KcEE = linkonce_odr unnamed_addr constant { i8*, i8*, i8* } { i8* bitcast (i8** getelementptr inbounds (i8** @_ZTVN10__cxxabiv120__si_class_type_infoE, i32 2) to i8*), i8* getelementptr inbounds ([47 x i8]* @_ZTSN5boost9unit_test17lazy_ostream_implIRA32_KcEE, i32 0, i32 0), i8* bitcast ({ i8*, i8* }* @_ZTIN5boost9unit_test12lazy_ostreamE to i8*) }
@_ZTVN5boost9unit_test17lazy_ostream_implIRA43_KcEE = linkonce_odr unnamed_addr constant [5 x i8*] [i8* null, i8* bitcast ({ i8*, i8*, i8* }* @_ZTIN5boost9unit_test17lazy_ostream_implIRA43_KcEE to i8*), i8* bitcast (%"class.std::basic_ostream"* (%"class.boost::unit_test::lazy_ostream_impl.2"*, %"class.std::basic_ostream"*)* @_ZNK5boost9unit_test17lazy_ostream_implIRA43_KcEclERSo to i8*), i8* bitcast (void (%"class.boost::unit_test::lazy_ostream_impl.2"*)* @_ZN5boost9unit_test17lazy_ostream_implIRA43_KcED1Ev to i8*), i8* bitcast (void (%"class.boost::unit_test::lazy_ostream_impl.2"*)* @_ZN5boost9unit_test17lazy_ostream_implIRA43_KcED0Ev to i8*)]
@_ZTSN5boost9unit_test17lazy_ostream_implIRA43_KcEE = linkonce_odr constant [47 x i8] c"N5boost9unit_test17lazy_ostream_implIRA43_KcEE\00"
@_ZTIN5boost9unit_test17lazy_ostream_implIRA43_KcEE = linkonce_odr unnamed_addr constant { i8*, i8*, i8* } { i8* bitcast (i8** getelementptr inbounds (i8** @_ZTVN10__cxxabiv120__si_class_type_infoE, i32 2) to i8*), i8* getelementptr inbounds ([47 x i8]* @_ZTSN5boost9unit_test17lazy_ostream_implIRA43_KcEE, i32 0, i32 0), i8* bitcast ({ i8*, i8* }* @_ZTIN5boost9unit_test12lazy_ostreamE to i8*) }
@_ZTVN5boost9unit_test17lazy_ostream_implIRA45_KcEE = linkonce_odr unnamed_addr constant [5 x i8*] [i8* null, i8* bitcast ({ i8*, i8*, i8* }* @_ZTIN5boost9unit_test17lazy_ostream_implIRA45_KcEE to i8*), i8* bitcast (%"class.std::basic_ostream"* (%"class.boost::unit_test::lazy_ostream_impl.1"*, %"class.std::basic_ostream"*)* @_ZNK5boost9unit_test17lazy_ostream_implIRA45_KcEclERSo to i8*), i8* bitcast (void (%"class.boost::unit_test::lazy_ostream_impl.1"*)* @_ZN5boost9unit_test17lazy_ostream_implIRA45_KcED1Ev to i8*), i8* bitcast (void (%"class.boost::unit_test::lazy_ostream_impl.1"*)* @_ZN5boost9unit_test17lazy_ostream_implIRA45_KcED0Ev to i8*)]
@_ZTSN5boost9unit_test17lazy_ostream_implIRA45_KcEE = linkonce_odr constant [47 x i8] c"N5boost9unit_test17lazy_ostream_implIRA45_KcEE\00"
@_ZTIN5boost9unit_test17lazy_ostream_implIRA45_KcEE = linkonce_odr unnamed_addr constant { i8*, i8*, i8* } { i8* bitcast (i8** getelementptr inbounds (i8** @_ZTVN10__cxxabiv120__si_class_type_infoE, i32 2) to i8*), i8* getelementptr inbounds ([47 x i8]* @_ZTSN5boost9unit_test17lazy_ostream_implIRA45_KcEE, i32 0, i32 0), i8* bitcast ({ i8*, i8* }* @_ZTIN5boost9unit_test12lazy_ostreamE to i8*) }
@_ZTVN5boost9unit_test17lazy_ostream_implIRKNS0_13basic_cstringIKcEEEE = linkonce_odr unnamed_addr constant [5 x i8*] [i8* null, i8* bitcast ({ i8*, i8*, i8* }* @_ZTIN5boost9unit_test17lazy_ostream_implIRKNS0_13basic_cstringIKcEEEE to i8*), i8* bitcast (%"class.std::basic_ostream"* (%"class.boost::unit_test::lazy_ostream_impl.0"*, %"class.std::basic_ostream"*)* @_ZNK5boost9unit_test17lazy_ostream_implIRKNS0_13basic_cstringIKcEEEclERSo to i8*), i8* bitcast (void (%"class.boost::unit_test::lazy_ostream_impl.0"*)* @_ZN5boost9unit_test17lazy_ostream_implIRKNS0_13basic_cstringIKcEEED1Ev to i8*), i8* bitcast (void (%"class.boost::unit_test::lazy_ostream_impl.0"*)* @_ZN5boost9unit_test17lazy_ostream_implIRKNS0_13basic_cstringIKcEEED0Ev to i8*)]
@_ZTSN5boost9unit_test17lazy_ostream_implIRKNS0_13basic_cstringIKcEEEE = linkonce_odr constant [66 x i8] c"N5boost9unit_test17lazy_ostream_implIRKNS0_13basic_cstringIKcEEEE\00"
@_ZTIN5boost9unit_test17lazy_ostream_implIRKNS0_13basic_cstringIKcEEEE = linkonce_odr unnamed_addr constant { i8*, i8*, i8* } { i8* bitcast (i8** getelementptr inbounds (i8** @_ZTVN10__cxxabiv120__si_class_type_infoE, i32 2) to i8*), i8* getelementptr inbounds ([66 x i8]* @_ZTSN5boost9unit_test17lazy_ostream_implIRKNS0_13basic_cstringIKcEEEE, i32 0, i32 0), i8* bitcast ({ i8*, i8* }* @_ZTIN5boost9unit_test12lazy_ostreamE to i8*) }
@_ZTVN5boost9unit_test17lazy_ostream_implIRKNS_10test_tools9tt_detail14print_helper_tISt12_Ios_IostateEEEE = linkonce_odr unnamed_addr constant [5 x i8*] [i8* null, i8* bitcast ({ i8*, i8*, i8* }* @_ZTIN5boost9unit_test17lazy_ostream_implIRKNS_10test_tools9tt_detail14print_helper_tISt12_Ios_IostateEEEE to i8*), i8* bitcast (%"class.std::basic_ostream"* (%"class.boost::unit_test::lazy_ostream_impl.45"*, %"class.std::basic_ostream"*)* @_ZNK5boost9unit_test17lazy_ostream_implIRKNS_10test_tools9tt_detail14print_helper_tISt12_Ios_IostateEEEclERSo to i8*), i8* bitcast (void (%"class.boost::unit_test::lazy_ostream_impl.45"*)* @_ZN5boost9unit_test17lazy_ostream_implIRKNS_10test_tools9tt_detail14print_helper_tISt12_Ios_IostateEEED1Ev to i8*), i8* bitcast (void (%"class.boost::unit_test::lazy_ostream_impl.45"*)* @_ZN5boost9unit_test17lazy_ostream_implIRKNS_10test_tools9tt_detail14print_helper_tISt12_Ios_IostateEEED0Ev to i8*)]
@_ZTSN5boost9unit_test17lazy_ostream_implIRKNS_10test_tools9tt_detail14print_helper_tISt12_Ios_IostateEEEE = linkonce_odr constant [102 x i8] c"N5boost9unit_test17lazy_ostream_implIRKNS_10test_tools9tt_detail14print_helper_tISt12_Ios_IostateEEEE\00"
@_ZTIN5boost9unit_test17lazy_ostream_implIRKNS_10test_tools9tt_detail14print_helper_tISt12_Ios_IostateEEEE = linkonce_odr unnamed_addr constant { i8*, i8*, i8* } { i8* bitcast (i8** getelementptr inbounds (i8** @_ZTVN10__cxxabiv120__si_class_type_infoE, i32 2) to i8*), i8* getelementptr inbounds ([102 x i8]* @_ZTSN5boost9unit_test17lazy_ostream_implIRKNS_10test_tools9tt_detail14print_helper_tISt12_Ios_IostateEEEE, i32 0, i32 0), i8* bitcast ({ i8*, i8* }* @_ZTIN5boost9unit_test12lazy_ostreamE to i8*) }
@_ZTVN5boost9unit_test17lazy_ostream_implIRKNS_10test_tools9tt_detail14print_helper_tISt13_Ios_FmtflagsEEEE = linkonce_odr unnamed_addr constant [5 x i8*] [i8* null, i8* bitcast ({ i8*, i8*, i8* }* @_ZTIN5boost9unit_test17lazy_ostream_implIRKNS_10test_tools9tt_detail14print_helper_tISt13_Ios_FmtflagsEEEE to i8*), i8* bitcast (%"class.std::basic_ostream"* (%"class.boost::unit_test::lazy_ostream_impl.48"*, %"class.std::basic_ostream"*)* @_ZNK5boost9unit_test17lazy_ostream_implIRKNS_10test_tools9tt_detail14print_helper_tISt13_Ios_FmtflagsEEEclERSo to i8*), i8* bitcast (void (%"class.boost::unit_test::lazy_ostream_impl.48"*)* @_ZN5boost9unit_test17lazy_ostream_implIRKNS_10test_tools9tt_detail14print_helper_tISt13_Ios_FmtflagsEEED1Ev to i8*), i8* bitcast (void (%"class.boost::unit_test::lazy_ostream_impl.48"*)* @_ZN5boost9unit_test17lazy_ostream_implIRKNS_10test_tools9tt_detail14print_helper_tISt13_Ios_FmtflagsEEED0Ev to i8*)]
@_ZTSN5boost9unit_test17lazy_ostream_implIRKNS_10test_tools9tt_detail14print_helper_tISt13_Ios_FmtflagsEEEE = linkonce_odr constant [103 x i8] c"N5boost9unit_test17lazy_ostream_implIRKNS_10test_tools9tt_detail14print_helper_tISt13_Ios_FmtflagsEEEE\00"
@_ZTIN5boost9unit_test17lazy_ostream_implIRKNS_10test_tools9tt_detail14print_helper_tISt13_Ios_FmtflagsEEEE = linkonce_odr unnamed_addr constant { i8*, i8*, i8* } { i8* bitcast (i8** getelementptr inbounds (i8** @_ZTVN10__cxxabiv120__si_class_type_infoE, i32 2) to i8*), i8* getelementptr inbounds ([103 x i8]* @_ZTSN5boost9unit_test17lazy_ostream_implIRKNS_10test_tools9tt_detail14print_helper_tISt13_Ios_FmtflagsEEEE, i32 0, i32 0), i8* bitcast ({ i8*, i8* }* @_ZTIN5boost9unit_test12lazy_ostreamE to i8*) }
@_ZTVN5boost9unit_test17lazy_ostream_implIRA1_KcEE = linkonce_odr unnamed_addr constant [5 x i8*] [i8* null, i8* bitcast ({ i8*, i8*, i8* }* @_ZTIN5boost9unit_test17lazy_ostream_implIRA1_KcEE to i8*), i8* bitcast (%"class.std::basic_ostream"* (%"class.boost::unit_test::lazy_ostream_impl"*, %"class.std::basic_ostream"*)* @_ZNK5boost9unit_test17lazy_ostream_implIRA1_KcEclERSo to i8*), i8* bitcast (void (%"class.boost::unit_test::lazy_ostream_impl"*)* @_ZN5boost9unit_test17lazy_ostream_implIRA1_KcED1Ev to i8*), i8* bitcast (void (%"class.boost::unit_test::lazy_ostream_impl"*)* @_ZN5boost9unit_test17lazy_ostream_implIRA1_KcED0Ev to i8*)]
@_ZTSN5boost9unit_test17lazy_ostream_implIRA1_KcEE = linkonce_odr constant [46 x i8] c"N5boost9unit_test17lazy_ostream_implIRA1_KcEE\00"
@_ZTIN5boost9unit_test17lazy_ostream_implIRA1_KcEE = linkonce_odr unnamed_addr constant { i8*, i8*, i8* } { i8* bitcast (i8** getelementptr inbounds (i8** @_ZTVN10__cxxabiv120__si_class_type_infoE, i32 2) to i8*), i8* getelementptr inbounds ([46 x i8]* @_ZTSN5boost9unit_test17lazy_ostream_implIRA1_KcEE, i32 0, i32 0), i8* bitcast ({ i8*, i8* }* @_ZTIN5boost9unit_test12lazy_ostreamE to i8*) }
@_ZZN5boost9unit_test13basic_cstringIKcE8null_strEvE4null = linkonce_odr constant i8 0, align 1
@_ZZN5boost9unit_test9singletonINS0_15unit_test_log_tEE8instanceEvE8the_inst = linkonce_odr global %"class.boost::unit_test::unit_test_log_t" zeroinitializer, align 4
@_ZGVZN5boost9unit_test9singletonINS0_15unit_test_log_tEE8instanceEvE8the_inst = linkonce_odr global i64 0
@_ZTVN5boost9unit_test15unit_test_log_tE = external unnamed_addr constant [14 x i8*]
@_ZTVN5boost9unit_test13test_observerE = linkonce_odr unnamed_addr constant [14 x i8*] [i8* null, i8* bitcast ({ i8*, i8* }* @_ZTIN5boost9unit_test13test_observerE to i8*), i8* bitcast (void (%"class.boost::unit_test::test_observer"*, i32)* @_ZN5boost9unit_test13test_observer10test_startEm to i8*), i8* bitcast (void (%"class.boost::unit_test::test_observer"*)* @_ZN5boost9unit_test13test_observer11test_finishEv to i8*), i8* bitcast (void (%"class.boost::unit_test::test_observer"*)* @_ZN5boost9unit_test13test_observer12test_abortedEv to i8*), i8* bitcast (void (%"class.boost::unit_test::test_observer"*, %"class.boost::unit_test::test_unit"*)* @_ZN5boost9unit_test13test_observer15test_unit_startERKNS0_9test_unitE to i8*), i8* bitcast (void (%"class.boost::unit_test::test_observer"*, %"class.boost::unit_test::test_unit"*, i32)* @_ZN5boost9unit_test13test_observer16test_unit_finishERKNS0_9test_unitEm to i8*), i8* bitcast (void (%"class.boost::unit_test::test_observer"*, %"class.boost::unit_test::test_unit"*)* @_ZN5boost9unit_test13test_observer17test_unit_skippedERKNS0_9test_unitE to i8*), i8* bitcast (void (%"class.boost::unit_test::test_observer"*, %"class.boost::unit_test::test_unit"*)* @_ZN5boost9unit_test13test_observer17test_unit_abortedERKNS0_9test_unitE to i8*), i8* bitcast (void (%"class.boost::unit_test::test_observer"*, i1)* @_ZN5boost9unit_test13test_observer16assertion_resultEb to i8*), i8* bitcast (void (%"class.boost::unit_test::test_observer"*, %"class.boost::execution_exception"*)* @_ZN5boost9unit_test13test_observer16exception_caughtERKNS_19execution_exceptionE to i8*), i8* bitcast (i32 (%"class.boost::unit_test::test_observer"*)* @_ZN5boost9unit_test13test_observer8priorityEv to i8*), i8* bitcast (void (%"class.boost::unit_test::test_observer"*)* @_ZN5boost9unit_test13test_observerD1Ev to i8*), i8* bitcast (void (%"class.boost::unit_test::test_observer"*)* @_ZN5boost9unit_test13test_observerD0Ev to i8*)]
@_ZTSN5boost9unit_test13test_observerE = linkonce_odr constant [34 x i8] c"N5boost9unit_test13test_observerE\00"
@_ZTIN5boost9unit_test13test_observerE = linkonce_odr unnamed_addr constant { i8*, i8* } { i8* bitcast (i8** getelementptr inbounds (i8** @_ZTVN10__cxxabiv117__class_type_infoE, i32 2) to i8*), i8* getelementptr inbounds ([34 x i8]* @_ZTSN5boost9unit_test13test_observerE, i32 0, i32 0) }
@_ZTV19backward_bool_names = linkonce_odr unnamed_addr constant [9 x i8*] [i8* null, i8* bitcast ({ i8*, i8*, i8* }* @_ZTI19backward_bool_names to i8*), i8* bitcast (void (%class.backward_bool_names*)* @_ZN19backward_bool_namesD1Ev to i8*), i8* bitcast (void (%class.backward_bool_names*)* @_ZN19backward_bool_namesD0Ev to i8*), i8* bitcast (i8 (%"class.std::numpunct"*)* @_ZNKSt8numpunctIcE16do_decimal_pointEv to i8*), i8* bitcast (i8 (%"class.std::numpunct"*)* @_ZNKSt8numpunctIcE16do_thousands_sepEv to i8*), i8* bitcast (void (%"class.std::basic_string"*, %"class.std::numpunct"*)* @_ZNKSt8numpunctIcE11do_groupingEv to i8*), i8* bitcast (void (%"class.std::basic_string"*, %class.backward_bool_names*)* @_ZNK19backward_bool_names11do_truenameEv to i8*), i8* bitcast (void (%"class.std::basic_string"*, %class.backward_bool_names*)* @_ZNK19backward_bool_names12do_falsenameEv to i8*)]
@.str87 = private unnamed_addr constant [6 x i8] c"eslaf\00", align 1
@.str88 = private unnamed_addr constant [5 x i8] c"eurt\00", align 1
@_ZTVSt15basic_stringbufIcSt11char_traitsIcESaIcEE = external unnamed_addr constant [16 x i8*]
@_ZZN5boost9unit_test12lazy_ostream8instanceEvE4inst = linkonce_odr global %"class.boost::unit_test::lazy_ostream" zeroinitializer, align 4
@_ZGVZN5boost9unit_test12lazy_ostream8instanceEvE4inst = linkonce_odr global i64 0
@llvm.global_ctors = appending global [1 x { i32, void ()* }] [{ i32, void ()* } { i32 65535, void ()* @_GLOBAL__I_a }]

define internal void @__cxx_global_var_init() section ".text.startup" {
entry:
  call void @_ZNSt8ios_base4InitC1Ev(%"class.std::ios_base::Init"* @_ZStL8__ioinit)
  %0 = call i32 @__cxa_atexit(void (i8*)* bitcast (void (%"class.std::ios_base::Init"*)* @_ZNSt8ios_base4InitD1Ev to void (i8*)*), i8* getelementptr inbounds (%"class.std::ios_base::Init"* @_ZStL8__ioinit, i32 0, i32 0), i8* @__dso_handle) nounwind
  ret void
}

declare void @_ZNSt8ios_base4InitC1Ev(%"class.std::ios_base::Init"*)

declare void @_ZNSt8ios_base4InitD1Ev(%"class.std::ios_base::Init"*)

declare i32 @__cxa_atexit(void (i8*)*, i8*, i8*) nounwind

define internal void @__cxx_global_var_init1() section ".text.startup" {
entry:
  %call = call %"class.boost::unit_test::unit_test_log_t"* @_ZN5boost9unit_test9singletonINS0_15unit_test_log_tEE8instanceEv()
  store %"class.boost::unit_test::unit_test_log_t"* %call, %"class.boost::unit_test::unit_test_log_t"** @_ZN5boost9unit_test12_GLOBAL__N_113unit_test_logE, align 4
  ret void
}

define linkonce_odr %"class.boost::unit_test::unit_test_log_t"* @_ZN5boost9unit_test9singletonINS0_15unit_test_log_tEE8instanceEv() align 2 {
entry:
  %exn.slot = alloca i8*
  %ehselector.slot = alloca i32
  %0 = load atomic i8* bitcast (i64* @_ZGVZN5boost9unit_test9singletonINS0_15unit_test_log_tEE8instanceEvE8the_inst to i8*) acquire, align 1
  %guard.uninitialized = icmp eq i8 %0, 0
  br i1 %guard.uninitialized, label %init.check, label %init.end

init.check:                                       ; preds = %entry
  %1 = call i32 @__cxa_guard_acquire(i64* @_ZGVZN5boost9unit_test9singletonINS0_15unit_test_log_tEE8instanceEvE8the_inst)
  %tobool = icmp ne i32 %1, 0
  br i1 %tobool, label %init, label %init.end

init:                                             ; preds = %init.check
  invoke void @_ZN5boost9unit_test15unit_test_log_tC1Ev(%"class.boost::unit_test::unit_test_log_t"* @_ZZN5boost9unit_test9singletonINS0_15unit_test_log_tEE8instanceEvE8the_inst)
          to label %invoke.cont unwind label %lpad

invoke.cont:                                      ; preds = %init
  %2 = call i32 @__cxa_atexit(void (i8*)* bitcast (void (%"class.boost::unit_test::unit_test_log_t"*)* @_ZN5boost9unit_test15unit_test_log_tD1Ev to void (i8*)*), i8* bitcast (%"class.boost::unit_test::unit_test_log_t"* @_ZZN5boost9unit_test9singletonINS0_15unit_test_log_tEE8instanceEvE8the_inst to i8*), i8* @__dso_handle) nounwind
  call void @__cxa_guard_release(i64* @_ZGVZN5boost9unit_test9singletonINS0_15unit_test_log_tEE8instanceEvE8the_inst)
  br label %init.end

init.end:                                         ; preds = %invoke.cont, %init.check, %entry
  ret %"class.boost::unit_test::unit_test_log_t"* @_ZZN5boost9unit_test9singletonINS0_15unit_test_log_tEE8instanceEvE8the_inst

lpad:                                             ; preds = %init
  %3 = landingpad { i8*, i32 } personality i8* bitcast (i32 (...)* @__gxx_personality_v0 to i8*)
          cleanup
  %4 = extractvalue { i8*, i32 } %3, 0
  store i8* %4, i8** %exn.slot
  %5 = extractvalue { i8*, i32 } %3, 1
  store i32 %5, i32* %ehselector.slot
  call void @__cxa_guard_abort(i64* @_ZGVZN5boost9unit_test9singletonINS0_15unit_test_log_tEE8instanceEvE8the_inst) nounwind
  br label %eh.resume

eh.resume:                                        ; preds = %lpad
  %exn = load i8** %exn.slot
  %sel = load i32* %ehselector.slot
  %lpad.val = insertvalue { i8*, i32 } undef, i8* %exn, 0
  %lpad.val1 = insertvalue { i8*, i32 } %lpad.val, i32 %sel, 1
  resume { i8*, i32 } %lpad.val1
}

define internal void @__cxx_global_var_init2() section ".text.startup" {
entry:
  %call = call i32 @_ZNSt8ios_base6xallocEv() nounwind
  store i32 %call, i32* @_ZL10word_index, align 4
  ret void
}

declare i32 @_ZNSt8ios_base6xallocEv() nounwind

define void @_Z25ios_flags_saver_unit_testv() {
entry:
  %ss = alloca %"class.std::basic_stringstream", align 4
  %agg.tmp = alloca %"class.boost::unit_test::basic_cstring", align 4
  %exn.slot = alloca i8*
  %ehselector.slot = alloca i32
  %agg.tmp1 = alloca %"class.boost::unit_test::basic_cstring", align 4
  %agg.tmp4 = alloca %"struct.boost::test_tools::tt_detail::equal_impl_frwd", align 1
  %ref.tmp = alloca %"class.boost::unit_test::lazy_ostream_impl", align 4
  %agg.tmp8 = alloca %"class.boost::unit_test::basic_cstring", align 4
  %ref.tmp13 = alloca i32, align 4
  %ref.tmp16 = alloca i32, align 4
  %ifs = alloca %"class.boost::io::ios_flags_saver", align 4
  %agg.tmp27 = alloca %"class.boost::unit_test::basic_cstring", align 4
  %agg.tmp30 = alloca %"class.boost::unit_test::basic_cstring", align 4
  %agg.tmp33 = alloca %"struct.boost::test_tools::tt_detail::equal_impl_frwd", align 1
  %ref.tmp34 = alloca %"class.boost::unit_test::lazy_ostream_impl", align 4
  %agg.tmp38 = alloca %"class.boost::unit_test::basic_cstring", align 4
  %ref.tmp43 = alloca i32, align 4
  %ref.tmp50 = alloca i32, align 4
  %agg.tmp66 = alloca %"class.boost::unit_test::basic_cstring", align 4
  %agg.tmp68 = alloca %"class.boost::unit_test::basic_cstring", align 4
  %agg.tmp71 = alloca %"struct.boost::test_tools::tt_detail::equal_impl_frwd", align 1
  %ref.tmp72 = alloca %"class.boost::unit_test::lazy_ostream_impl", align 4
  %agg.tmp76 = alloca %"class.boost::unit_test::basic_cstring", align 4
  %ref.tmp83 = alloca i32, align 4
  %ref.tmp90 = alloca i32, align 4
  %agg.tmp101 = alloca %"class.boost::unit_test::basic_cstring", align 4
  %agg.tmp103 = alloca %"class.boost::unit_test::basic_cstring", align 4
  %agg.tmp106 = alloca %"struct.boost::test_tools::tt_detail::equal_impl_frwd", align 1
  %ref.tmp107 = alloca %"class.boost::unit_test::lazy_ostream_impl", align 4
  %agg.tmp111 = alloca %"class.boost::unit_test::basic_cstring", align 4
  %ref.tmp116 = alloca i32, align 4
  %ref.tmp123 = alloca i32, align 4
  %ifs132 = alloca %"class.boost::io::ios_flags_saver", align 4
  %ref.tmp139 = alloca i32, align 4
  %agg.tmp142 = alloca %"class.boost::unit_test::basic_cstring", align 4
  %agg.tmp145 = alloca %"class.boost::unit_test::basic_cstring", align 4
  %agg.tmp148 = alloca %"struct.boost::test_tools::tt_detail::equal_impl_frwd", align 1
  %ref.tmp149 = alloca %"class.boost::unit_test::lazy_ostream_impl", align 4
  %agg.tmp153 = alloca %"class.boost::unit_test::basic_cstring", align 4
  %ref.tmp158 = alloca i32, align 4
  %ref.tmp165 = alloca i32, align 4
  %agg.tmp175 = alloca %"struct.std::_Setiosflags", align 4
  %agg.tmp180 = alloca %"class.boost::unit_test::basic_cstring", align 4
  %agg.tmp182 = alloca %"class.boost::unit_test::basic_cstring", align 4
  %agg.tmp185 = alloca %"struct.boost::test_tools::tt_detail::equal_impl_frwd", align 1
  %ref.tmp186 = alloca %"class.boost::unit_test::lazy_ostream_impl", align 4
  %agg.tmp190 = alloca %"class.boost::unit_test::basic_cstring", align 4
  %ref.tmp197 = alloca i32, align 4
  %ref.tmp204 = alloca i32, align 4
  %agg.tmp217 = alloca %"class.boost::unit_test::basic_cstring", align 4
  %agg.tmp219 = alloca %"class.boost::unit_test::basic_cstring", align 4
  %agg.tmp222 = alloca %"struct.boost::test_tools::tt_detail::equal_impl_frwd", align 1
  %ref.tmp223 = alloca %"class.boost::unit_test::lazy_ostream_impl", align 4
  %agg.tmp227 = alloca %"class.boost::unit_test::basic_cstring", align 4
  %ref.tmp232 = alloca i32, align 4
  %ref.tmp239 = alloca i32, align 4
  %call = call i32 @_ZStorSt13_Ios_OpenmodeS_(i32 16, i32 8)
  call void @_ZNSt18basic_stringstreamIcSt11char_traitsIcESaIcEEC1ESt13_Ios_Openmode(%"class.std::basic_stringstream"* %ss, i32 %call)
  br label %do.body

do.body:                                          ; preds = %do.cond, %entry
  %0 = load %"class.boost::unit_test::unit_test_log_t"** @_ZN5boost9unit_test12_GLOBAL__N_113unit_test_logE, align 4
  invoke void @_ZN5boost9unit_test13basic_cstringIKcEC1EPS2_j(%"class.boost::unit_test::basic_cstring"* %agg.tmp, i8* getelementptr inbounds ([24 x i8]* @.str, i32 0, i32 0), i32 23)
          to label %invoke.cont unwind label %lpad

invoke.cont:                                      ; preds = %do.body
  invoke void @_ZN5boost9unit_test13basic_cstringIKcEC1Ev(%"class.boost::unit_test::basic_cstring"* %agg.tmp1)
          to label %invoke.cont2 unwind label %lpad

invoke.cont2:                                     ; preds = %invoke.cont
  invoke void @_ZN5boost9unit_test15unit_test_log_t14set_checkpointENS0_13basic_cstringIKcEEjS4_(%"class.boost::unit_test::unit_test_log_t"* %0, %"class.boost::unit_test::basic_cstring"* byval align 4 %agg.tmp, i32 59, %"class.boost::unit_test::basic_cstring"* byval align 4 %agg.tmp1)
          to label %invoke.cont3 unwind label %lpad

invoke.cont3:                                     ; preds = %invoke.cont2
  %call6 = invoke %"class.boost::unit_test::lazy_ostream"* @_ZN5boost9unit_test12lazy_ostream8instanceEv()
          to label %invoke.cont5 unwind label %lpad

invoke.cont5:                                     ; preds = %invoke.cont3
  invoke void @_ZN5boost9unit_testlsIA1_cEENS0_17lazy_ostream_implIRKT_EERKNS0_12lazy_ostreamES6_(%"class.boost::unit_test::lazy_ostream_impl"* sret %ref.tmp, %"class.boost::unit_test::lazy_ostream"* %call6, [1 x i8]* @.str3)
          to label %invoke.cont7 unwind label %lpad

invoke.cont7:                                     ; preds = %invoke.cont5
  %1 = bitcast %"class.boost::unit_test::lazy_ostream_impl"* %ref.tmp to %"class.boost::unit_test::lazy_ostream"*
  invoke void @_ZN5boost9unit_test13basic_cstringIKcEC1EPS2_j(%"class.boost::unit_test::basic_cstring"* %agg.tmp8, i8* getelementptr inbounds ([24 x i8]* @.str, i32 0, i32 0), i32 23)
          to label %invoke.cont10 unwind label %lpad9

invoke.cont10:                                    ; preds = %invoke.cont7
  %call12 = invoke i32 @_ZStorSt13_Ios_FmtflagsS_(i32 4096, i32 2)
          to label %invoke.cont11 unwind label %lpad9

invoke.cont11:                                    ; preds = %invoke.cont10
  store i32 %call12, i32* %ref.tmp13, align 4
  %2 = bitcast %"class.std::basic_stringstream"* %ss to i8**
  %vtable = load i8** %2
  %vbase.offset.ptr = getelementptr i8* %vtable, i64 -12
  %3 = bitcast i8* %vbase.offset.ptr to i32*
  %vbase.offset = load i32* %3
  %4 = bitcast %"class.std::basic_stringstream"* %ss to i8*
  %add.ptr = getelementptr inbounds i8* %4, i32 %vbase.offset
  %5 = bitcast i8* %add.ptr to %"class.std::ios_base"*
  %call15 = invoke i32 @_ZNKSt8ios_base5flagsEv(%"class.std::ios_base"* %5)
          to label %invoke.cont14 unwind label %lpad9

invoke.cont14:                                    ; preds = %invoke.cont11
  store i32 %call15, i32* %ref.tmp16, align 4
  %call18 = invoke zeroext i1 @_ZN5boost10test_tools9tt_detail10check_frwdINS1_15equal_impl_frwdESt13_Ios_FmtflagsS4_EEbT_RKNS_9unit_test12lazy_ostreamENS6_13basic_cstringIKcEEjNS1_10tool_levelENS1_10check_typeERKT0_PSB_RKT1_SI_(%"class.boost::unit_test::lazy_ostream"* %1, %"class.boost::unit_test::basic_cstring"* byval align 4 %agg.tmp8, i32 59, i32 1, i32 2, i32* %ref.tmp13, i8* getelementptr inbounds ([35 x i8]* @.str4, i32 0, i32 0), i32* %ref.tmp16, i8* getelementptr inbounds ([11 x i8]* @.str5, i32 0, i32 0))
          to label %invoke.cont17 unwind label %lpad9

invoke.cont17:                                    ; preds = %invoke.cont14
  invoke void @_ZN5boost9unit_test17lazy_ostream_implIRA1_KcED1Ev(%"class.boost::unit_test::lazy_ostream_impl"* %ref.tmp)
          to label %invoke.cont19 unwind label %lpad

invoke.cont19:                                    ; preds = %invoke.cont17
  br label %do.cond

do.cond:                                          ; preds = %invoke.cont19
  %6 = load i8* @_ZN5boost10test_tools12_GLOBAL__N_110dummy_condE, align 1
  %tobool = trunc i8 %6 to i1
  br i1 %tobool, label %do.body, label %do.end

do.end:                                           ; preds = %do.cond
  %7 = bitcast %"class.std::basic_stringstream"* %ss to i8**
  %vtable21 = load i8** %7
  %vbase.offset.ptr22 = getelementptr i8* %vtable21, i64 -12
  %8 = bitcast i8* %vbase.offset.ptr22 to i32*
  %vbase.offset23 = load i32* %8
  %9 = bitcast %"class.std::basic_stringstream"* %ss to i8*
  %add.ptr24 = getelementptr inbounds i8* %9, i32 %vbase.offset23
  %10 = bitcast i8* %add.ptr24 to %"class.std::ios_base"*
  invoke void @_ZN5boost2io15ios_flags_saverC1ERSt8ios_base(%"class.boost::io::ios_flags_saver"* %ifs, %"class.std::ios_base"* %10)
          to label %invoke.cont25 unwind label %lpad

invoke.cont25:                                    ; preds = %do.end
  br label %do.body26

do.body26:                                        ; preds = %do.cond55, %invoke.cont25
  %11 = load %"class.boost::unit_test::unit_test_log_t"** @_ZN5boost9unit_test12_GLOBAL__N_113unit_test_logE, align 4
  invoke void @_ZN5boost9unit_test13basic_cstringIKcEC1EPS2_j(%"class.boost::unit_test::basic_cstring"* %agg.tmp27, i8* getelementptr inbounds ([24 x i8]* @.str, i32 0, i32 0), i32 23)
          to label %invoke.cont29 unwind label %lpad28

invoke.cont29:                                    ; preds = %do.body26
  invoke void @_ZN5boost9unit_test13basic_cstringIKcEC1Ev(%"class.boost::unit_test::basic_cstring"* %agg.tmp30)
          to label %invoke.cont31 unwind label %lpad28

invoke.cont31:                                    ; preds = %invoke.cont29
  invoke void @_ZN5boost9unit_test15unit_test_log_t14set_checkpointENS0_13basic_cstringIKcEEjS4_(%"class.boost::unit_test::unit_test_log_t"* %11, %"class.boost::unit_test::basic_cstring"* byval align 4 %agg.tmp27, i32 64, %"class.boost::unit_test::basic_cstring"* byval align 4 %agg.tmp30)
          to label %invoke.cont32 unwind label %lpad28

invoke.cont32:                                    ; preds = %invoke.cont31
  %call36 = invoke %"class.boost::unit_test::lazy_ostream"* @_ZN5boost9unit_test12lazy_ostream8instanceEv()
          to label %invoke.cont35 unwind label %lpad28

invoke.cont35:                                    ; preds = %invoke.cont32
  invoke void @_ZN5boost9unit_testlsIA1_cEENS0_17lazy_ostream_implIRKT_EERKNS0_12lazy_ostreamES6_(%"class.boost::unit_test::lazy_ostream_impl"* sret %ref.tmp34, %"class.boost::unit_test::lazy_ostream"* %call36, [1 x i8]* @.str3)
          to label %invoke.cont37 unwind label %lpad28

invoke.cont37:                                    ; preds = %invoke.cont35
  %12 = bitcast %"class.boost::unit_test::lazy_ostream_impl"* %ref.tmp34 to %"class.boost::unit_test::lazy_ostream"*
  invoke void @_ZN5boost9unit_test13basic_cstringIKcEC1EPS2_j(%"class.boost::unit_test::basic_cstring"* %agg.tmp38, i8* getelementptr inbounds ([24 x i8]* @.str, i32 0, i32 0), i32 23)
          to label %invoke.cont40 unwind label %lpad39

invoke.cont40:                                    ; preds = %invoke.cont37
  %call42 = invoke i32 @_ZStorSt13_Ios_FmtflagsS_(i32 4096, i32 2)
          to label %invoke.cont41 unwind label %lpad39

invoke.cont41:                                    ; preds = %invoke.cont40
  store i32 %call42, i32* %ref.tmp43, align 4
  %13 = bitcast %"class.std::basic_stringstream"* %ss to i8**
  %vtable44 = load i8** %13
  %vbase.offset.ptr45 = getelementptr i8* %vtable44, i64 -12
  %14 = bitcast i8* %vbase.offset.ptr45 to i32*
  %vbase.offset46 = load i32* %14
  %15 = bitcast %"class.std::basic_stringstream"* %ss to i8*
  %add.ptr47 = getelementptr inbounds i8* %15, i32 %vbase.offset46
  %16 = bitcast i8* %add.ptr47 to %"class.std::ios_base"*
  %call49 = invoke i32 @_ZNKSt8ios_base5flagsEv(%"class.std::ios_base"* %16)
          to label %invoke.cont48 unwind label %lpad39

invoke.cont48:                                    ; preds = %invoke.cont41
  store i32 %call49, i32* %ref.tmp50, align 4
  %call52 = invoke zeroext i1 @_ZN5boost10test_tools9tt_detail10check_frwdINS1_15equal_impl_frwdESt13_Ios_FmtflagsS4_EEbT_RKNS_9unit_test12lazy_ostreamENS6_13basic_cstringIKcEEjNS1_10tool_levelENS1_10check_typeERKT0_PSB_RKT1_SI_(%"class.boost::unit_test::lazy_ostream"* %12, %"class.boost::unit_test::basic_cstring"* byval align 4 %agg.tmp38, i32 64, i32 1, i32 2, i32* %ref.tmp43, i8* getelementptr inbounds ([35 x i8]* @.str4, i32 0, i32 0), i32* %ref.tmp50, i8* getelementptr inbounds ([11 x i8]* @.str5, i32 0, i32 0))
          to label %invoke.cont51 unwind label %lpad39

invoke.cont51:                                    ; preds = %invoke.cont48
  invoke void @_ZN5boost9unit_test17lazy_ostream_implIRA1_KcED1Ev(%"class.boost::unit_test::lazy_ostream_impl"* %ref.tmp34)
          to label %invoke.cont53 unwind label %lpad28

invoke.cont53:                                    ; preds = %invoke.cont51
  br label %do.cond55

do.cond55:                                        ; preds = %invoke.cont53
  %17 = load i8* @_ZN5boost10test_tools12_GLOBAL__N_110dummy_condE, align 1
  %tobool56 = trunc i8 %17 to i1
  br i1 %tobool56, label %do.body26, label %do.end57

do.end57:                                         ; preds = %do.cond55
  %18 = bitcast %"class.std::basic_stringstream"* %ss to i8*
  %add.ptr58 = getelementptr inbounds i8* %18, i32 8
  %19 = bitcast i8* %add.ptr58 to %"class.std::basic_ostream"*
  %call60 = invoke %"class.std::basic_ostream"* @_ZNSolsEPFRSt8ios_baseS0_E(%"class.std::basic_ostream"* %19, %"class.std::ios_base"* (%"class.std::ios_base"*)* @_ZSt8noskipwsRSt8ios_base)
          to label %invoke.cont59 unwind label %lpad28

invoke.cont59:                                    ; preds = %do.end57
  %call62 = invoke %"class.std::basic_ostream"* @_ZNSolsEPFRSt8ios_baseS0_E(%"class.std::basic_ostream"* %call60, %"class.std::ios_base"* (%"class.std::ios_base"*)* @_ZSt5fixedRSt8ios_base)
          to label %invoke.cont61 unwind label %lpad28

invoke.cont61:                                    ; preds = %invoke.cont59
  %call64 = invoke %"class.std::basic_ostream"* @_ZNSolsEPFRSt8ios_baseS0_E(%"class.std::basic_ostream"* %call62, %"class.std::ios_base"* (%"class.std::ios_base"*)* @_ZSt9boolalphaRSt8ios_base)
          to label %invoke.cont63 unwind label %lpad28

invoke.cont63:                                    ; preds = %invoke.cont61
  br label %do.body65

do.body65:                                        ; preds = %do.cond95, %invoke.cont63
  %20 = load %"class.boost::unit_test::unit_test_log_t"** @_ZN5boost9unit_test12_GLOBAL__N_113unit_test_logE, align 4
  invoke void @_ZN5boost9unit_test13basic_cstringIKcEC1EPS2_j(%"class.boost::unit_test::basic_cstring"* %agg.tmp66, i8* getelementptr inbounds ([24 x i8]* @.str, i32 0, i32 0), i32 23)
          to label %invoke.cont67 unwind label %lpad28

invoke.cont67:                                    ; preds = %do.body65
  invoke void @_ZN5boost9unit_test13basic_cstringIKcEC1Ev(%"class.boost::unit_test::basic_cstring"* %agg.tmp68)
          to label %invoke.cont69 unwind label %lpad28

invoke.cont69:                                    ; preds = %invoke.cont67
  invoke void @_ZN5boost9unit_test15unit_test_log_t14set_checkpointENS0_13basic_cstringIKcEEjS4_(%"class.boost::unit_test::unit_test_log_t"* %20, %"class.boost::unit_test::basic_cstring"* byval align 4 %agg.tmp66, i32 68, %"class.boost::unit_test::basic_cstring"* byval align 4 %agg.tmp68)
          to label %invoke.cont70 unwind label %lpad28

invoke.cont70:                                    ; preds = %invoke.cont69
  %call74 = invoke %"class.boost::unit_test::lazy_ostream"* @_ZN5boost9unit_test12lazy_ostream8instanceEv()
          to label %invoke.cont73 unwind label %lpad28

invoke.cont73:                                    ; preds = %invoke.cont70
  invoke void @_ZN5boost9unit_testlsIA1_cEENS0_17lazy_ostream_implIRKT_EERKNS0_12lazy_ostreamES6_(%"class.boost::unit_test::lazy_ostream_impl"* sret %ref.tmp72, %"class.boost::unit_test::lazy_ostream"* %call74, [1 x i8]* @.str3)
          to label %invoke.cont75 unwind label %lpad28

invoke.cont75:                                    ; preds = %invoke.cont73
  %21 = bitcast %"class.boost::unit_test::lazy_ostream_impl"* %ref.tmp72 to %"class.boost::unit_test::lazy_ostream"*
  invoke void @_ZN5boost9unit_test13basic_cstringIKcEC1EPS2_j(%"class.boost::unit_test::basic_cstring"* %agg.tmp76, i8* getelementptr inbounds ([24 x i8]* @.str, i32 0, i32 0), i32 23)
          to label %invoke.cont78 unwind label %lpad77

invoke.cont78:                                    ; preds = %invoke.cont75
  %call80 = invoke i32 @_ZStorSt13_Ios_FmtflagsS_(i32 1, i32 2)
          to label %invoke.cont79 unwind label %lpad77

invoke.cont79:                                    ; preds = %invoke.cont78
  %call82 = invoke i32 @_ZStorSt13_Ios_FmtflagsS_(i32 %call80, i32 4)
          to label %invoke.cont81 unwind label %lpad77

invoke.cont81:                                    ; preds = %invoke.cont79
  store i32 %call82, i32* %ref.tmp83, align 4
  %22 = bitcast %"class.std::basic_stringstream"* %ss to i8**
  %vtable84 = load i8** %22
  %vbase.offset.ptr85 = getelementptr i8* %vtable84, i64 -12
  %23 = bitcast i8* %vbase.offset.ptr85 to i32*
  %vbase.offset86 = load i32* %23
  %24 = bitcast %"class.std::basic_stringstream"* %ss to i8*
  %add.ptr87 = getelementptr inbounds i8* %24, i32 %vbase.offset86
  %25 = bitcast i8* %add.ptr87 to %"class.std::ios_base"*
  %call89 = invoke i32 @_ZNKSt8ios_base5flagsEv(%"class.std::ios_base"* %25)
          to label %invoke.cont88 unwind label %lpad77

invoke.cont88:                                    ; preds = %invoke.cont81
  store i32 %call89, i32* %ref.tmp90, align 4
  %call92 = invoke zeroext i1 @_ZN5boost10test_tools9tt_detail10check_frwdINS1_15equal_impl_frwdESt13_Ios_FmtflagsS4_EEbT_RKNS_9unit_test12lazy_ostreamENS6_13basic_cstringIKcEEjNS1_10tool_levelENS1_10check_typeERKT0_PSB_RKT1_SI_(%"class.boost::unit_test::lazy_ostream"* %21, %"class.boost::unit_test::basic_cstring"* byval align 4 %agg.tmp76, i32 68, i32 1, i32 2, i32* %ref.tmp83, i8* getelementptr inbounds ([56 x i8]* @.str6, i32 0, i32 0), i32* %ref.tmp90, i8* getelementptr inbounds ([11 x i8]* @.str5, i32 0, i32 0))
          to label %invoke.cont91 unwind label %lpad77

invoke.cont91:                                    ; preds = %invoke.cont88
  invoke void @_ZN5boost9unit_test17lazy_ostream_implIRA1_KcED1Ev(%"class.boost::unit_test::lazy_ostream_impl"* %ref.tmp72)
          to label %invoke.cont93 unwind label %lpad28

invoke.cont93:                                    ; preds = %invoke.cont91
  br label %do.cond95

do.cond95:                                        ; preds = %invoke.cont93
  %26 = load i8* @_ZN5boost10test_tools12_GLOBAL__N_110dummy_condE, align 1
  %tobool96 = trunc i8 %26 to i1
  br i1 %tobool96, label %do.body65, label %do.end97

do.end97:                                         ; preds = %do.cond95
  invoke void @_ZN5boost2io15ios_flags_saverD1Ev(%"class.boost::io::ios_flags_saver"* %ifs)
          to label %invoke.cont98 unwind label %lpad

invoke.cont98:                                    ; preds = %do.end97
  br label %do.body100

do.body100:                                       ; preds = %do.cond129, %invoke.cont98
  %27 = load %"class.boost::unit_test::unit_test_log_t"** @_ZN5boost9unit_test12_GLOBAL__N_113unit_test_logE, align 4
  invoke void @_ZN5boost9unit_test13basic_cstringIKcEC1EPS2_j(%"class.boost::unit_test::basic_cstring"* %agg.tmp101, i8* getelementptr inbounds ([24 x i8]* @.str, i32 0, i32 0), i32 23)
          to label %invoke.cont102 unwind label %lpad

invoke.cont102:                                   ; preds = %do.body100
  invoke void @_ZN5boost9unit_test13basic_cstringIKcEC1Ev(%"class.boost::unit_test::basic_cstring"* %agg.tmp103)
          to label %invoke.cont104 unwind label %lpad

invoke.cont104:                                   ; preds = %invoke.cont102
  invoke void @_ZN5boost9unit_test15unit_test_log_t14set_checkpointENS0_13basic_cstringIKcEEjS4_(%"class.boost::unit_test::unit_test_log_t"* %27, %"class.boost::unit_test::basic_cstring"* byval align 4 %agg.tmp101, i32 71, %"class.boost::unit_test::basic_cstring"* byval align 4 %agg.tmp103)
          to label %invoke.cont105 unwind label %lpad

invoke.cont105:                                   ; preds = %invoke.cont104
  %call109 = invoke %"class.boost::unit_test::lazy_ostream"* @_ZN5boost9unit_test12lazy_ostream8instanceEv()
          to label %invoke.cont108 unwind label %lpad

invoke.cont108:                                   ; preds = %invoke.cont105
  invoke void @_ZN5boost9unit_testlsIA1_cEENS0_17lazy_ostream_implIRKT_EERKNS0_12lazy_ostreamES6_(%"class.boost::unit_test::lazy_ostream_impl"* sret %ref.tmp107, %"class.boost::unit_test::lazy_ostream"* %call109, [1 x i8]* @.str3)
          to label %invoke.cont110 unwind label %lpad

invoke.cont110:                                   ; preds = %invoke.cont108
  %28 = bitcast %"class.boost::unit_test::lazy_ostream_impl"* %ref.tmp107 to %"class.boost::unit_test::lazy_ostream"*
  invoke void @_ZN5boost9unit_test13basic_cstringIKcEC1EPS2_j(%"class.boost::unit_test::basic_cstring"* %agg.tmp111, i8* getelementptr inbounds ([24 x i8]* @.str, i32 0, i32 0), i32 23)
          to label %invoke.cont113 unwind label %lpad112

invoke.cont113:                                   ; preds = %invoke.cont110
  %call115 = invoke i32 @_ZStorSt13_Ios_FmtflagsS_(i32 4096, i32 2)
          to label %invoke.cont114 unwind label %lpad112

invoke.cont114:                                   ; preds = %invoke.cont113
  store i32 %call115, i32* %ref.tmp116, align 4
  %29 = bitcast %"class.std::basic_stringstream"* %ss to i8**
  %vtable117 = load i8** %29
  %vbase.offset.ptr118 = getelementptr i8* %vtable117, i64 -12
  %30 = bitcast i8* %vbase.offset.ptr118 to i32*
  %vbase.offset119 = load i32* %30
  %31 = bitcast %"class.std::basic_stringstream"* %ss to i8*
  %add.ptr120 = getelementptr inbounds i8* %31, i32 %vbase.offset119
  %32 = bitcast i8* %add.ptr120 to %"class.std::ios_base"*
  %call122 = invoke i32 @_ZNKSt8ios_base5flagsEv(%"class.std::ios_base"* %32)
          to label %invoke.cont121 unwind label %lpad112

invoke.cont121:                                   ; preds = %invoke.cont114
  store i32 %call122, i32* %ref.tmp123, align 4
  %call125 = invoke zeroext i1 @_ZN5boost10test_tools9tt_detail10check_frwdINS1_15equal_impl_frwdESt13_Ios_FmtflagsS4_EEbT_RKNS_9unit_test12lazy_ostreamENS6_13basic_cstringIKcEEjNS1_10tool_levelENS1_10check_typeERKT0_PSB_RKT1_SI_(%"class.boost::unit_test::lazy_ostream"* %28, %"class.boost::unit_test::basic_cstring"* byval align 4 %agg.tmp111, i32 71, i32 1, i32 2, i32* %ref.tmp116, i8* getelementptr inbounds ([35 x i8]* @.str4, i32 0, i32 0), i32* %ref.tmp123, i8* getelementptr inbounds ([11 x i8]* @.str5, i32 0, i32 0))
          to label %invoke.cont124 unwind label %lpad112

invoke.cont124:                                   ; preds = %invoke.cont121
  invoke void @_ZN5boost9unit_test17lazy_ostream_implIRA1_KcED1Ev(%"class.boost::unit_test::lazy_ostream_impl"* %ref.tmp107)
          to label %invoke.cont126 unwind label %lpad

invoke.cont126:                                   ; preds = %invoke.cont124
  br label %do.cond129

do.cond129:                                       ; preds = %invoke.cont126
  %33 = load i8* @_ZN5boost10test_tools12_GLOBAL__N_110dummy_condE, align 1
  %tobool130 = trunc i8 %33 to i1
  br i1 %tobool130, label %do.body100, label %do.end131

do.end131:                                        ; preds = %do.cond129
  %34 = bitcast %"class.std::basic_stringstream"* %ss to i8**
  %vtable133 = load i8** %34
  %vbase.offset.ptr134 = getelementptr i8* %vtable133, i64 -12
  %35 = bitcast i8* %vbase.offset.ptr134 to i32*
  %vbase.offset135 = load i32* %35
  %36 = bitcast %"class.std::basic_stringstream"* %ss to i8*
  %add.ptr136 = getelementptr inbounds i8* %36, i32 %vbase.offset135
  %37 = bitcast i8* %add.ptr136 to %"class.std::ios_base"*
  %call138 = invoke i32 @_ZStorSt13_Ios_FmtflagsS_(i32 512, i32 16)
          to label %invoke.cont137 unwind label %lpad

invoke.cont137:                                   ; preds = %do.end131
  store i32 %call138, i32* %ref.tmp139, align 4
  invoke void @_ZN5boost2io15ios_flags_saverC1ERSt8ios_baseRKSt13_Ios_Fmtflags(%"class.boost::io::ios_flags_saver"* %ifs132, %"class.std::ios_base"* %37, i32* %ref.tmp139)
          to label %invoke.cont140 unwind label %lpad

invoke.cont140:                                   ; preds = %invoke.cont137
  br label %do.body141

do.body141:                                       ; preds = %do.cond171, %invoke.cont140
  %38 = load %"class.boost::unit_test::unit_test_log_t"** @_ZN5boost9unit_test12_GLOBAL__N_113unit_test_logE, align 4
  invoke void @_ZN5boost9unit_test13basic_cstringIKcEC1EPS2_j(%"class.boost::unit_test::basic_cstring"* %agg.tmp142, i8* getelementptr inbounds ([24 x i8]* @.str, i32 0, i32 0), i32 23)
          to label %invoke.cont144 unwind label %lpad143

invoke.cont144:                                   ; preds = %do.body141
  invoke void @_ZN5boost9unit_test13basic_cstringIKcEC1Ev(%"class.boost::unit_test::basic_cstring"* %agg.tmp145)
          to label %invoke.cont146 unwind label %lpad143

invoke.cont146:                                   ; preds = %invoke.cont144
  invoke void @_ZN5boost9unit_test15unit_test_log_t14set_checkpointENS0_13basic_cstringIKcEEjS4_(%"class.boost::unit_test::unit_test_log_t"* %38, %"class.boost::unit_test::basic_cstring"* byval align 4 %agg.tmp142, i32 78, %"class.boost::unit_test::basic_cstring"* byval align 4 %agg.tmp145)
          to label %invoke.cont147 unwind label %lpad143

invoke.cont147:                                   ; preds = %invoke.cont146
  %call151 = invoke %"class.boost::unit_test::lazy_ostream"* @_ZN5boost9unit_test12lazy_ostream8instanceEv()
          to label %invoke.cont150 unwind label %lpad143

invoke.cont150:                                   ; preds = %invoke.cont147
  invoke void @_ZN5boost9unit_testlsIA1_cEENS0_17lazy_ostream_implIRKT_EERKNS0_12lazy_ostreamES6_(%"class.boost::unit_test::lazy_ostream_impl"* sret %ref.tmp149, %"class.boost::unit_test::lazy_ostream"* %call151, [1 x i8]* @.str3)
          to label %invoke.cont152 unwind label %lpad143

invoke.cont152:                                   ; preds = %invoke.cont150
  %39 = bitcast %"class.boost::unit_test::lazy_ostream_impl"* %ref.tmp149 to %"class.boost::unit_test::lazy_ostream"*
  invoke void @_ZN5boost9unit_test13basic_cstringIKcEC1EPS2_j(%"class.boost::unit_test::basic_cstring"* %agg.tmp153, i8* getelementptr inbounds ([24 x i8]* @.str, i32 0, i32 0), i32 23)
          to label %invoke.cont155 unwind label %lpad154

invoke.cont155:                                   ; preds = %invoke.cont152
  %call157 = invoke i32 @_ZStorSt13_Ios_FmtflagsS_(i32 512, i32 16)
          to label %invoke.cont156 unwind label %lpad154

invoke.cont156:                                   ; preds = %invoke.cont155
  store i32 %call157, i32* %ref.tmp158, align 4
  %40 = bitcast %"class.std::basic_stringstream"* %ss to i8**
  %vtable159 = load i8** %40
  %vbase.offset.ptr160 = getelementptr i8* %vtable159, i64 -12
  %41 = bitcast i8* %vbase.offset.ptr160 to i32*
  %vbase.offset161 = load i32* %41
  %42 = bitcast %"class.std::basic_stringstream"* %ss to i8*
  %add.ptr162 = getelementptr inbounds i8* %42, i32 %vbase.offset161
  %43 = bitcast i8* %add.ptr162 to %"class.std::ios_base"*
  %call164 = invoke i32 @_ZNKSt8ios_base5flagsEv(%"class.std::ios_base"* %43)
          to label %invoke.cont163 unwind label %lpad154

invoke.cont163:                                   ; preds = %invoke.cont156
  store i32 %call164, i32* %ref.tmp165, align 4
  %call167 = invoke zeroext i1 @_ZN5boost10test_tools9tt_detail10check_frwdINS1_15equal_impl_frwdESt13_Ios_FmtflagsS4_EEbT_RKNS_9unit_test12lazy_ostreamENS6_13basic_cstringIKcEEjNS1_10tool_levelENS1_10check_typeERKT0_PSB_RKT1_SI_(%"class.boost::unit_test::lazy_ostream"* %39, %"class.boost::unit_test::basic_cstring"* byval align 4 %agg.tmp153, i32 78, i32 1, i32 2, i32* %ref.tmp158, i8* getelementptr inbounds ([42 x i8]* @.str7, i32 0, i32 0), i32* %ref.tmp165, i8* getelementptr inbounds ([11 x i8]* @.str5, i32 0, i32 0))
          to label %invoke.cont166 unwind label %lpad154

invoke.cont166:                                   ; preds = %invoke.cont163
  invoke void @_ZN5boost9unit_test17lazy_ostream_implIRA1_KcED1Ev(%"class.boost::unit_test::lazy_ostream_impl"* %ref.tmp149)
          to label %invoke.cont168 unwind label %lpad143

invoke.cont168:                                   ; preds = %invoke.cont166
  br label %do.cond171

do.cond171:                                       ; preds = %invoke.cont168
  %44 = load i8* @_ZN5boost10test_tools12_GLOBAL__N_110dummy_condE, align 1
  %tobool172 = trunc i8 %44 to i1
  br i1 %tobool172, label %do.body141, label %do.end173

do.end173:                                        ; preds = %do.cond171
  %45 = bitcast %"class.std::basic_stringstream"* %ss to i8*
  %add.ptr174 = getelementptr inbounds i8* %45, i32 8
  %46 = bitcast i8* %add.ptr174 to %"class.std::basic_ostream"*
  invoke void @_ZSt11setiosflagsSt13_Ios_Fmtflags(%"struct.std::_Setiosflags"* sret %agg.tmp175, i32 8192)
          to label %invoke.cont176 unwind label %lpad143

invoke.cont176:                                   ; preds = %do.end173
  %call178 = invoke %"class.std::basic_ostream"* @_ZStlsIcSt11char_traitsIcEERSt13basic_ostreamIT_T0_ES6_St12_Setiosflags(%"class.std::basic_ostream"* %46, %"struct.std::_Setiosflags"* byval align 4 %agg.tmp175)
          to label %invoke.cont177 unwind label %lpad143

invoke.cont177:                                   ; preds = %invoke.cont176
  br label %do.body179

do.body179:                                       ; preds = %do.cond210, %invoke.cont177
  %47 = load %"class.boost::unit_test::unit_test_log_t"** @_ZN5boost9unit_test12_GLOBAL__N_113unit_test_logE, align 4
  invoke void @_ZN5boost9unit_test13basic_cstringIKcEC1EPS2_j(%"class.boost::unit_test::basic_cstring"* %agg.tmp180, i8* getelementptr inbounds ([24 x i8]* @.str, i32 0, i32 0), i32 23)
          to label %invoke.cont181 unwind label %lpad143

invoke.cont181:                                   ; preds = %do.body179
  invoke void @_ZN5boost9unit_test13basic_cstringIKcEC1Ev(%"class.boost::unit_test::basic_cstring"* %agg.tmp182)
          to label %invoke.cont183 unwind label %lpad143

invoke.cont183:                                   ; preds = %invoke.cont181
  invoke void @_ZN5boost9unit_test15unit_test_log_t14set_checkpointENS0_13basic_cstringIKcEEjS4_(%"class.boost::unit_test::unit_test_log_t"* %47, %"class.boost::unit_test::basic_cstring"* byval align 4 %agg.tmp180, i32 82, %"class.boost::unit_test::basic_cstring"* byval align 4 %agg.tmp182)
          to label %invoke.cont184 unwind label %lpad143

invoke.cont184:                                   ; preds = %invoke.cont183
  %call188 = invoke %"class.boost::unit_test::lazy_ostream"* @_ZN5boost9unit_test12lazy_ostream8instanceEv()
          to label %invoke.cont187 unwind label %lpad143

invoke.cont187:                                   ; preds = %invoke.cont184
  invoke void @_ZN5boost9unit_testlsIA1_cEENS0_17lazy_ostream_implIRKT_EERKNS0_12lazy_ostreamES6_(%"class.boost::unit_test::lazy_ostream_impl"* sret %ref.tmp186, %"class.boost::unit_test::lazy_ostream"* %call188, [1 x i8]* @.str3)
          to label %invoke.cont189 unwind label %lpad143

invoke.cont189:                                   ; preds = %invoke.cont187
  %48 = bitcast %"class.boost::unit_test::lazy_ostream_impl"* %ref.tmp186 to %"class.boost::unit_test::lazy_ostream"*
  invoke void @_ZN5boost9unit_test13basic_cstringIKcEC1EPS2_j(%"class.boost::unit_test::basic_cstring"* %agg.tmp190, i8* getelementptr inbounds ([24 x i8]* @.str, i32 0, i32 0), i32 23)
          to label %invoke.cont192 unwind label %lpad191

invoke.cont192:                                   ; preds = %invoke.cont189
  %call194 = invoke i32 @_ZStorSt13_Ios_FmtflagsS_(i32 512, i32 16)
          to label %invoke.cont193 unwind label %lpad191

invoke.cont193:                                   ; preds = %invoke.cont192
  %call196 = invoke i32 @_ZStorSt13_Ios_FmtflagsS_(i32 %call194, i32 8192)
          to label %invoke.cont195 unwind label %lpad191

invoke.cont195:                                   ; preds = %invoke.cont193
  store i32 %call196, i32* %ref.tmp197, align 4
  %49 = bitcast %"class.std::basic_stringstream"* %ss to i8**
  %vtable198 = load i8** %49
  %vbase.offset.ptr199 = getelementptr i8* %vtable198, i64 -12
  %50 = bitcast i8* %vbase.offset.ptr199 to i32*
  %vbase.offset200 = load i32* %50
  %51 = bitcast %"class.std::basic_stringstream"* %ss to i8*
  %add.ptr201 = getelementptr inbounds i8* %51, i32 %vbase.offset200
  %52 = bitcast i8* %add.ptr201 to %"class.std::ios_base"*
  %call203 = invoke i32 @_ZNKSt8ios_base5flagsEv(%"class.std::ios_base"* %52)
          to label %invoke.cont202 unwind label %lpad191

invoke.cont202:                                   ; preds = %invoke.cont195
  store i32 %call203, i32* %ref.tmp204, align 4
  %call206 = invoke zeroext i1 @_ZN5boost10test_tools9tt_detail10check_frwdINS1_15equal_impl_frwdESt13_Ios_FmtflagsS4_EEbT_RKNS_9unit_test12lazy_ostreamENS6_13basic_cstringIKcEEjNS1_10tool_levelENS1_10check_typeERKT0_PSB_RKT1_SI_(%"class.boost::unit_test::lazy_ostream"* %48, %"class.boost::unit_test::basic_cstring"* byval align 4 %agg.tmp190, i32 82, i32 1, i32 2, i32* %ref.tmp197, i8* getelementptr inbounds ([62 x i8]* @.str8, i32 0, i32 0), i32* %ref.tmp204, i8* getelementptr inbounds ([11 x i8]* @.str5, i32 0, i32 0))
          to label %invoke.cont205 unwind label %lpad191

invoke.cont205:                                   ; preds = %invoke.cont202
  invoke void @_ZN5boost9unit_test17lazy_ostream_implIRA1_KcED1Ev(%"class.boost::unit_test::lazy_ostream_impl"* %ref.tmp186)
          to label %invoke.cont207 unwind label %lpad143

invoke.cont207:                                   ; preds = %invoke.cont205
  br label %do.cond210

do.cond210:                                       ; preds = %invoke.cont207
  %53 = load i8* @_ZN5boost10test_tools12_GLOBAL__N_110dummy_condE, align 1
  %tobool211 = trunc i8 %53 to i1
  br i1 %tobool211, label %do.body179, label %do.end212

do.end212:                                        ; preds = %do.cond210
  invoke void @_ZN5boost2io15ios_flags_saverD1Ev(%"class.boost::io::ios_flags_saver"* %ifs132)
          to label %invoke.cont213 unwind label %lpad

invoke.cont213:                                   ; preds = %do.end212
  br label %do.body216

do.body216:                                       ; preds = %do.cond245, %invoke.cont213
  %54 = load %"class.boost::unit_test::unit_test_log_t"** @_ZN5boost9unit_test12_GLOBAL__N_113unit_test_logE, align 4
  invoke void @_ZN5boost9unit_test13basic_cstringIKcEC1EPS2_j(%"class.boost::unit_test::basic_cstring"* %agg.tmp217, i8* getelementptr inbounds ([24 x i8]* @.str, i32 0, i32 0), i32 23)
          to label %invoke.cont218 unwind label %lpad

invoke.cont218:                                   ; preds = %do.body216
  invoke void @_ZN5boost9unit_test13basic_cstringIKcEC1Ev(%"class.boost::unit_test::basic_cstring"* %agg.tmp219)
          to label %invoke.cont220 unwind label %lpad

invoke.cont220:                                   ; preds = %invoke.cont218
  invoke void @_ZN5boost9unit_test15unit_test_log_t14set_checkpointENS0_13basic_cstringIKcEEjS4_(%"class.boost::unit_test::unit_test_log_t"* %54, %"class.boost::unit_test::basic_cstring"* byval align 4 %agg.tmp217, i32 85, %"class.boost::unit_test::basic_cstring"* byval align 4 %agg.tmp219)
          to label %invoke.cont221 unwind label %lpad

invoke.cont221:                                   ; preds = %invoke.cont220
  %call225 = invoke %"class.boost::unit_test::lazy_ostream"* @_ZN5boost9unit_test12lazy_ostream8instanceEv()
          to label %invoke.cont224 unwind label %lpad

invoke.cont224:                                   ; preds = %invoke.cont221
  invoke void @_ZN5boost9unit_testlsIA1_cEENS0_17lazy_ostream_implIRKT_EERKNS0_12lazy_ostreamES6_(%"class.boost::unit_test::lazy_ostream_impl"* sret %ref.tmp223, %"class.boost::unit_test::lazy_ostream"* %call225, [1 x i8]* @.str3)
          to label %invoke.cont226 unwind label %lpad

invoke.cont226:                                   ; preds = %invoke.cont224
  %55 = bitcast %"class.boost::unit_test::lazy_ostream_impl"* %ref.tmp223 to %"class.boost::unit_test::lazy_ostream"*
  invoke void @_ZN5boost9unit_test13basic_cstringIKcEC1EPS2_j(%"class.boost::unit_test::basic_cstring"* %agg.tmp227, i8* getelementptr inbounds ([24 x i8]* @.str, i32 0, i32 0), i32 23)
          to label %invoke.cont229 unwind label %lpad228

invoke.cont229:                                   ; preds = %invoke.cont226
  %call231 = invoke i32 @_ZStorSt13_Ios_FmtflagsS_(i32 4096, i32 2)
          to label %invoke.cont230 unwind label %lpad228

invoke.cont230:                                   ; preds = %invoke.cont229
  store i32 %call231, i32* %ref.tmp232, align 4
  %56 = bitcast %"class.std::basic_stringstream"* %ss to i8**
  %vtable233 = load i8** %56
  %vbase.offset.ptr234 = getelementptr i8* %vtable233, i64 -12
  %57 = bitcast i8* %vbase.offset.ptr234 to i32*
  %vbase.offset235 = load i32* %57
  %58 = bitcast %"class.std::basic_stringstream"* %ss to i8*
  %add.ptr236 = getelementptr inbounds i8* %58, i32 %vbase.offset235
  %59 = bitcast i8* %add.ptr236 to %"class.std::ios_base"*
  %call238 = invoke i32 @_ZNKSt8ios_base5flagsEv(%"class.std::ios_base"* %59)
          to label %invoke.cont237 unwind label %lpad228

invoke.cont237:                                   ; preds = %invoke.cont230
  store i32 %call238, i32* %ref.tmp239, align 4
  %call241 = invoke zeroext i1 @_ZN5boost10test_tools9tt_detail10check_frwdINS1_15equal_impl_frwdESt13_Ios_FmtflagsS4_EEbT_RKNS_9unit_test12lazy_ostreamENS6_13basic_cstringIKcEEjNS1_10tool_levelENS1_10check_typeERKT0_PSB_RKT1_SI_(%"class.boost::unit_test::lazy_ostream"* %55, %"class.boost::unit_test::basic_cstring"* byval align 4 %agg.tmp227, i32 85, i32 1, i32 2, i32* %ref.tmp232, i8* getelementptr inbounds ([35 x i8]* @.str4, i32 0, i32 0), i32* %ref.tmp239, i8* getelementptr inbounds ([11 x i8]* @.str5, i32 0, i32 0))
          to label %invoke.cont240 unwind label %lpad228

invoke.cont240:                                   ; preds = %invoke.cont237
  invoke void @_ZN5boost9unit_test17lazy_ostream_implIRA1_KcED1Ev(%"class.boost::unit_test::lazy_ostream_impl"* %ref.tmp223)
          to label %invoke.cont242 unwind label %lpad

invoke.cont242:                                   ; preds = %invoke.cont240
  br label %do.cond245

do.cond245:                                       ; preds = %invoke.cont242
  %60 = load i8* @_ZN5boost10test_tools12_GLOBAL__N_110dummy_condE, align 1
  %tobool246 = trunc i8 %60 to i1
  br i1 %tobool246, label %do.body216, label %do.end247

do.end247:                                        ; preds = %do.cond245
  call void @_ZNSt18basic_stringstreamIcSt11char_traitsIcESaIcEED1Ev(%"class.std::basic_stringstream"* %ss)
  ret void

lpad:                                             ; preds = %invoke.cont240, %invoke.cont224, %invoke.cont221, %invoke.cont220, %invoke.cont218, %do.body216, %do.end212, %invoke.cont137, %do.end131, %invoke.cont124, %invoke.cont108, %invoke.cont105, %invoke.cont104, %invoke.cont102, %do.body100, %do.end97, %do.end, %invoke.cont17, %invoke.cont5, %invoke.cont3, %invoke.cont2, %invoke.cont, %do.body
  %61 = landingpad { i8*, i32 } personality i8* bitcast (i32 (...)* @__gxx_personality_v0 to i8*)
          cleanup
  %62 = extractvalue { i8*, i32 } %61, 0
  store i8* %62, i8** %exn.slot
  %63 = extractvalue { i8*, i32 } %61, 1
  store i32 %63, i32* %ehselector.slot
  br label %ehcleanup248

lpad9:                                            ; preds = %invoke.cont14, %invoke.cont11, %invoke.cont10, %invoke.cont7
  %64 = landingpad { i8*, i32 } personality i8* bitcast (i32 (...)* @__gxx_personality_v0 to i8*)
          cleanup
  %65 = extractvalue { i8*, i32 } %64, 0
  store i8* %65, i8** %exn.slot
  %66 = extractvalue { i8*, i32 } %64, 1
  store i32 %66, i32* %ehselector.slot
  invoke void @_ZN5boost9unit_test17lazy_ostream_implIRA1_KcED1Ev(%"class.boost::unit_test::lazy_ostream_impl"* %ref.tmp)
          to label %invoke.cont20 unwind label %terminate.lpad

invoke.cont20:                                    ; preds = %lpad9
  br label %ehcleanup248

lpad28:                                           ; preds = %invoke.cont91, %invoke.cont73, %invoke.cont70, %invoke.cont69, %invoke.cont67, %do.body65, %invoke.cont61, %invoke.cont59, %do.end57, %invoke.cont51, %invoke.cont35, %invoke.cont32, %invoke.cont31, %invoke.cont29, %do.body26
  %67 = landingpad { i8*, i32 } personality i8* bitcast (i32 (...)* @__gxx_personality_v0 to i8*)
          cleanup
  %68 = extractvalue { i8*, i32 } %67, 0
  store i8* %68, i8** %exn.slot
  %69 = extractvalue { i8*, i32 } %67, 1
  store i32 %69, i32* %ehselector.slot
  br label %ehcleanup

lpad39:                                           ; preds = %invoke.cont48, %invoke.cont41, %invoke.cont40, %invoke.cont37
  %70 = landingpad { i8*, i32 } personality i8* bitcast (i32 (...)* @__gxx_personality_v0 to i8*)
          cleanup
  %71 = extractvalue { i8*, i32 } %70, 0
  store i8* %71, i8** %exn.slot
  %72 = extractvalue { i8*, i32 } %70, 1
  store i32 %72, i32* %ehselector.slot
  invoke void @_ZN5boost9unit_test17lazy_ostream_implIRA1_KcED1Ev(%"class.boost::unit_test::lazy_ostream_impl"* %ref.tmp34)
          to label %invoke.cont54 unwind label %terminate.lpad

invoke.cont54:                                    ; preds = %lpad39
  br label %ehcleanup

lpad77:                                           ; preds = %invoke.cont88, %invoke.cont81, %invoke.cont79, %invoke.cont78, %invoke.cont75
  %73 = landingpad { i8*, i32 } personality i8* bitcast (i32 (...)* @__gxx_personality_v0 to i8*)
          cleanup
  %74 = extractvalue { i8*, i32 } %73, 0
  store i8* %74, i8** %exn.slot
  %75 = extractvalue { i8*, i32 } %73, 1
  store i32 %75, i32* %ehselector.slot
  invoke void @_ZN5boost9unit_test17lazy_ostream_implIRA1_KcED1Ev(%"class.boost::unit_test::lazy_ostream_impl"* %ref.tmp72)
          to label %invoke.cont94 unwind label %terminate.lpad

invoke.cont94:                                    ; preds = %lpad77
  br label %ehcleanup

ehcleanup:                                        ; preds = %invoke.cont94, %invoke.cont54, %lpad28
  invoke void @_ZN5boost2io15ios_flags_saverD1Ev(%"class.boost::io::ios_flags_saver"* %ifs)
          to label %invoke.cont99 unwind label %terminate.lpad

invoke.cont99:                                    ; preds = %ehcleanup
  br label %ehcleanup248

lpad112:                                          ; preds = %invoke.cont121, %invoke.cont114, %invoke.cont113, %invoke.cont110
  %76 = landingpad { i8*, i32 } personality i8* bitcast (i32 (...)* @__gxx_personality_v0 to i8*)
          cleanup
  %77 = extractvalue { i8*, i32 } %76, 0
  store i8* %77, i8** %exn.slot
  %78 = extractvalue { i8*, i32 } %76, 1
  store i32 %78, i32* %ehselector.slot
  invoke void @_ZN5boost9unit_test17lazy_ostream_implIRA1_KcED1Ev(%"class.boost::unit_test::lazy_ostream_impl"* %ref.tmp107)
          to label %invoke.cont128 unwind label %terminate.lpad

invoke.cont128:                                   ; preds = %lpad112
  br label %ehcleanup248

lpad143:                                          ; preds = %invoke.cont205, %invoke.cont187, %invoke.cont184, %invoke.cont183, %invoke.cont181, %do.body179, %invoke.cont176, %do.end173, %invoke.cont166, %invoke.cont150, %invoke.cont147, %invoke.cont146, %invoke.cont144, %do.body141
  %79 = landingpad { i8*, i32 } personality i8* bitcast (i32 (...)* @__gxx_personality_v0 to i8*)
          cleanup
  %80 = extractvalue { i8*, i32 } %79, 0
  store i8* %80, i8** %exn.slot
  %81 = extractvalue { i8*, i32 } %79, 1
  store i32 %81, i32* %ehselector.slot
  br label %ehcleanup214

lpad154:                                          ; preds = %invoke.cont163, %invoke.cont156, %invoke.cont155, %invoke.cont152
  %82 = landingpad { i8*, i32 } personality i8* bitcast (i32 (...)* @__gxx_personality_v0 to i8*)
          cleanup
  %83 = extractvalue { i8*, i32 } %82, 0
  store i8* %83, i8** %exn.slot
  %84 = extractvalue { i8*, i32 } %82, 1
  store i32 %84, i32* %ehselector.slot
  invoke void @_ZN5boost9unit_test17lazy_ostream_implIRA1_KcED1Ev(%"class.boost::unit_test::lazy_ostream_impl"* %ref.tmp149)
          to label %invoke.cont170 unwind label %terminate.lpad

invoke.cont170:                                   ; preds = %lpad154
  br label %ehcleanup214

lpad191:                                          ; preds = %invoke.cont202, %invoke.cont195, %invoke.cont193, %invoke.cont192, %invoke.cont189
  %85 = landingpad { i8*, i32 } personality i8* bitcast (i32 (...)* @__gxx_personality_v0 to i8*)
          cleanup
  %86 = extractvalue { i8*, i32 } %85, 0
  store i8* %86, i8** %exn.slot
  %87 = extractvalue { i8*, i32 } %85, 1
  store i32 %87, i32* %ehselector.slot
  invoke void @_ZN5boost9unit_test17lazy_ostream_implIRA1_KcED1Ev(%"class.boost::unit_test::lazy_ostream_impl"* %ref.tmp186)
          to label %invoke.cont209 unwind label %terminate.lpad

invoke.cont209:                                   ; preds = %lpad191
  br label %ehcleanup214

ehcleanup214:                                     ; preds = %invoke.cont209, %invoke.cont170, %lpad143
  invoke void @_ZN5boost2io15ios_flags_saverD1Ev(%"class.boost::io::ios_flags_saver"* %ifs132)
          to label %invoke.cont215 unwind label %terminate.lpad

invoke.cont215:                                   ; preds = %ehcleanup214
  br label %ehcleanup248

lpad228:                                          ; preds = %invoke.cont237, %invoke.cont230, %invoke.cont229, %invoke.cont226
  %88 = landingpad { i8*, i32 } personality i8* bitcast (i32 (...)* @__gxx_personality_v0 to i8*)
          cleanup
  %89 = extractvalue { i8*, i32 } %88, 0
  store i8* %89, i8** %exn.slot
  %90 = extractvalue { i8*, i32 } %88, 1
  store i32 %90, i32* %ehselector.slot
  invoke void @_ZN5boost9unit_test17lazy_ostream_implIRA1_KcED1Ev(%"class.boost::unit_test::lazy_ostream_impl"* %ref.tmp223)
          to label %invoke.cont244 unwind label %terminate.lpad

invoke.cont244:                                   ; preds = %lpad228
  br label %ehcleanup248

ehcleanup248:                                     ; preds = %invoke.cont244, %invoke.cont215, %invoke.cont128, %invoke.cont99, %invoke.cont20, %lpad
  invoke void @_ZNSt18basic_stringstreamIcSt11char_traitsIcESaIcEED1Ev(%"class.std::basic_stringstream"* %ss)
          to label %invoke.cont249 unwind label %terminate.lpad

invoke.cont249:                                   ; preds = %ehcleanup248
  br label %eh.resume

eh.resume:                                        ; preds = %invoke.cont249
  %exn = load i8** %exn.slot
  %sel = load i32* %ehselector.slot
  %lpad.val = insertvalue { i8*, i32 } undef, i8* %exn, 0
  %lpad.val250 = insertvalue { i8*, i32 } %lpad.val, i32 %sel, 1
  resume { i8*, i32 } %lpad.val250

terminate.lpad:                                   ; preds = %ehcleanup248, %lpad228, %ehcleanup214, %lpad191, %lpad154, %lpad112, %ehcleanup, %lpad77, %lpad39, %lpad9
  %91 = landingpad { i8*, i32 } personality i8* bitcast (i32 (...)* @__gxx_personality_v0 to i8*)
          catch i8* null
  call void @_ZSt9terminatev() noreturn nounwind
  unreachable
}

declare void @_ZNSt18basic_stringstreamIcSt11char_traitsIcESaIcEEC1ESt13_Ios_Openmode(%"class.std::basic_stringstream"*, i32)

define linkonce_odr i32 @_ZStorSt13_Ios_OpenmodeS_(i32 %__a, i32 %__b) nounwind inlinehint {
entry:
  %__a.addr = alloca i32, align 4
  %__b.addr = alloca i32, align 4
  store i32 %__a, i32* %__a.addr, align 4
  store i32 %__b, i32* %__b.addr, align 4
  %0 = load i32* %__a.addr, align 4
  %1 = load i32* %__b.addr, align 4
  %or = or i32 %0, %1
  ret i32 %or
}

declare void @_ZN5boost9unit_test15unit_test_log_t14set_checkpointENS0_13basic_cstringIKcEEjS4_(%"class.boost::unit_test::unit_test_log_t"*, %"class.boost::unit_test::basic_cstring"* byval align 4, i32, %"class.boost::unit_test::basic_cstring"* byval align 4)

define linkonce_odr void @_ZN5boost9unit_test13basic_cstringIKcEC1EPS2_j(%"class.boost::unit_test::basic_cstring"* %this, i8* %s, i32 %arg_size) unnamed_addr align 2 {
entry:
  %this.addr = alloca %"class.boost::unit_test::basic_cstring"*, align 4
  %s.addr = alloca i8*, align 4
  %arg_size.addr = alloca i32, align 4
  store %"class.boost::unit_test::basic_cstring"* %this, %"class.boost::unit_test::basic_cstring"** %this.addr, align 4
  store i8* %s, i8** %s.addr, align 4
  store i32 %arg_size, i32* %arg_size.addr, align 4
  %this1 = load %"class.boost::unit_test::basic_cstring"** %this.addr
  %0 = load i8** %s.addr, align 4
  %1 = load i32* %arg_size.addr, align 4
  call void @_ZN5boost9unit_test13basic_cstringIKcEC2EPS2_j(%"class.boost::unit_test::basic_cstring"* %this1, i8* %0, i32 %1)
  ret void
}

declare i32 @__gxx_personality_v0(...)

define linkonce_odr void @_ZN5boost9unit_test13basic_cstringIKcEC1Ev(%"class.boost::unit_test::basic_cstring"* %this) unnamed_addr align 2 {
entry:
  %this.addr = alloca %"class.boost::unit_test::basic_cstring"*, align 4
  store %"class.boost::unit_test::basic_cstring"* %this, %"class.boost::unit_test::basic_cstring"** %this.addr, align 4
  %this1 = load %"class.boost::unit_test::basic_cstring"** %this.addr
  call void @_ZN5boost9unit_test13basic_cstringIKcEC2Ev(%"class.boost::unit_test::basic_cstring"* %this1)
  ret void
}

define linkonce_odr zeroext i1 @_ZN5boost10test_tools9tt_detail10check_frwdINS1_15equal_impl_frwdESt13_Ios_FmtflagsS4_EEbT_RKNS_9unit_test12lazy_ostreamENS6_13basic_cstringIKcEEjNS1_10tool_levelENS1_10check_typeERKT0_PSB_RKT1_SI_(%"class.boost::unit_test::lazy_ostream"* %check_descr, %"class.boost::unit_test::basic_cstring"* byval align 4 %file_name, i32 %line_num, i32 %tl, i32 %ct, i32* %arg0, i8* %arg0_descr, i32* %arg1, i8* %arg1_descr) inlinehint {
entry:
  %P = alloca %"struct.boost::test_tools::tt_detail::equal_impl_frwd", align 1
  %check_descr.addr = alloca %"class.boost::unit_test::lazy_ostream"*, align 4
  %line_num.addr = alloca i32, align 4
  %tl.addr = alloca i32, align 4
  %ct.addr = alloca i32, align 4
  %arg0.addr = alloca i32*, align 4
  %arg0_descr.addr = alloca i8*, align 4
  %arg1.addr = alloca i32*, align 4
  %arg1_descr.addr = alloca i8*, align 4
  %ref.tmp = alloca %"class.boost::test_tools::predicate_result", align 4
  %agg.tmp = alloca %"class.boost::unit_test::basic_cstring", align 4
  %ref.tmp1 = alloca %"class.boost::unit_test::lazy_ostream_impl.48", align 4
  %exn.slot = alloca i8*
  %ehselector.slot = alloca i32
  %ref.tmp2 = alloca %"struct.boost::test_tools::tt_detail::print_helper_t.49", align 4
  %ref.tmp5 = alloca %"class.boost::unit_test::lazy_ostream_impl.48", align 4
  %ref.tmp9 = alloca %"struct.boost::test_tools::tt_detail::print_helper_t.49", align 4
  store %"class.boost::unit_test::lazy_ostream"* %check_descr, %"class.boost::unit_test::lazy_ostream"** %check_descr.addr, align 4
  store i32 %line_num, i32* %line_num.addr, align 4
  store i32 %tl, i32* %tl.addr, align 4
  store i32 %ct, i32* %ct.addr, align 4
  store i32* %arg0, i32** %arg0.addr, align 4
  store i8* %arg0_descr, i8** %arg0_descr.addr, align 4
  store i32* %arg1, i32** %arg1.addr, align 4
  store i8* %arg1_descr, i8** %arg1_descr.addr, align 4
  %0 = load i32** %arg0.addr, align 4
  %1 = load i32** %arg1.addr, align 4
  call void @_ZNK5boost10test_tools9tt_detail15equal_impl_frwdclISt13_Ios_FmtflagsS4_EENS0_16predicate_resultERKT_RKT0_(%"class.boost::test_tools::predicate_result"* sret %ref.tmp, %"struct.boost::test_tools::tt_detail::equal_impl_frwd"* %P, i32* %0, i32* %1)
  %2 = load %"class.boost::unit_test::lazy_ostream"** %check_descr.addr, align 4
  %3 = bitcast %"class.boost::unit_test::basic_cstring"* %agg.tmp to i8*
  %4 = bitcast %"class.boost::unit_test::basic_cstring"* %file_name to i8*
  call void @llvm.memcpy.p0i8.p0i8.i32(i8* %3, i8* %4, i32 8, i32 4, i1 false)
  %5 = load i32* %line_num.addr, align 4
  %6 = load i32* %tl.addr, align 4
  %7 = load i32* %ct.addr, align 4
  %8 = load i8** %arg0_descr.addr, align 4
  %call = invoke %"class.boost::unit_test::lazy_ostream"* @_ZN5boost9unit_test12lazy_ostream8instanceEv()
          to label %invoke.cont unwind label %lpad

invoke.cont:                                      ; preds = %entry
  %9 = load i32** %arg0.addr, align 4
  invoke void @_ZN5boost10test_tools9tt_detail12print_helperISt13_Ios_FmtflagsEENS1_14print_helper_tIT_EERKS5_(%"struct.boost::test_tools::tt_detail::print_helper_t.49"* sret %ref.tmp2, i32* %9)
          to label %invoke.cont3 unwind label %lpad

invoke.cont3:                                     ; preds = %invoke.cont
  invoke void @_ZN5boost9unit_testlsINS_10test_tools9tt_detail14print_helper_tISt13_Ios_FmtflagsEEEENS0_17lazy_ostream_implIRKT_EERKNS0_12lazy_ostreamESA_(%"class.boost::unit_test::lazy_ostream_impl.48"* sret %ref.tmp1, %"class.boost::unit_test::lazy_ostream"* %call, %"struct.boost::test_tools::tt_detail::print_helper_t.49"* %ref.tmp2)
          to label %invoke.cont4 unwind label %lpad

invoke.cont4:                                     ; preds = %invoke.cont3
  %10 = bitcast %"class.boost::unit_test::lazy_ostream_impl.48"* %ref.tmp1 to %"class.boost::unit_test::lazy_ostream"*
  %11 = load i8** %arg1_descr.addr, align 4
  %call8 = invoke %"class.boost::unit_test::lazy_ostream"* @_ZN5boost9unit_test12lazy_ostream8instanceEv()
          to label %invoke.cont7 unwind label %lpad6

invoke.cont7:                                     ; preds = %invoke.cont4
  %12 = load i32** %arg1.addr, align 4
  invoke void @_ZN5boost10test_tools9tt_detail12print_helperISt13_Ios_FmtflagsEENS1_14print_helper_tIT_EERKS5_(%"struct.boost::test_tools::tt_detail::print_helper_t.49"* sret %ref.tmp9, i32* %12)
          to label %invoke.cont10 unwind label %lpad6

invoke.cont10:                                    ; preds = %invoke.cont7
  invoke void @_ZN5boost9unit_testlsINS_10test_tools9tt_detail14print_helper_tISt13_Ios_FmtflagsEEEENS0_17lazy_ostream_implIRKT_EERKNS0_12lazy_ostreamESA_(%"class.boost::unit_test::lazy_ostream_impl.48"* sret %ref.tmp5, %"class.boost::unit_test::lazy_ostream"* %call8, %"struct.boost::test_tools::tt_detail::print_helper_t.49"* %ref.tmp9)
          to label %invoke.cont11 unwind label %lpad6

invoke.cont11:                                    ; preds = %invoke.cont10
  %13 = bitcast %"class.boost::unit_test::lazy_ostream_impl.48"* %ref.tmp5 to %"class.boost::unit_test::lazy_ostream"*
  %call14 = invoke zeroext i1 (%"class.boost::test_tools::predicate_result"*, %"class.boost::unit_test::lazy_ostream"*, %"class.boost::unit_test::basic_cstring"*, i32, i32, i32, i32, ...)* @_ZN5boost10test_tools9tt_detail10check_implERKNS0_16predicate_resultERKNS_9unit_test12lazy_ostreamENS5_13basic_cstringIKcEEjNS1_10tool_levelENS1_10check_typeEjz(%"class.boost::test_tools::predicate_result"* %ref.tmp, %"class.boost::unit_test::lazy_ostream"* %2, %"class.boost::unit_test::basic_cstring"* byval align 4 %agg.tmp, i32 %5, i32 %6, i32 %7, i32 2, i8* %8, %"class.boost::unit_test::lazy_ostream"* %10, i8* %11, %"class.boost::unit_test::lazy_ostream"* %13)
          to label %invoke.cont13 unwind label %lpad12

invoke.cont13:                                    ; preds = %invoke.cont11
  invoke void @_ZN5boost9unit_test17lazy_ostream_implIRKNS_10test_tools9tt_detail14print_helper_tISt13_Ios_FmtflagsEEED1Ev(%"class.boost::unit_test::lazy_ostream_impl.48"* %ref.tmp5)
          to label %invoke.cont15 unwind label %lpad6

invoke.cont15:                                    ; preds = %invoke.cont13
  invoke void @_ZN5boost9unit_test17lazy_ostream_implIRKNS_10test_tools9tt_detail14print_helper_tISt13_Ios_FmtflagsEEED1Ev(%"class.boost::unit_test::lazy_ostream_impl.48"* %ref.tmp1)
          to label %invoke.cont17 unwind label %lpad

invoke.cont17:                                    ; preds = %invoke.cont15
  call void @_ZN5boost10test_tools16predicate_resultD1Ev(%"class.boost::test_tools::predicate_result"* %ref.tmp)
  ret i1 %call14

lpad:                                             ; preds = %invoke.cont15, %invoke.cont3, %invoke.cont, %entry
  %14 = landingpad { i8*, i32 } personality i8* bitcast (i32 (...)* @__gxx_personality_v0 to i8*)
          cleanup
  %15 = extractvalue { i8*, i32 } %14, 0
  store i8* %15, i8** %exn.slot
  %16 = extractvalue { i8*, i32 } %14, 1
  store i32 %16, i32* %ehselector.slot
  br label %ehcleanup19

lpad6:                                            ; preds = %invoke.cont13, %invoke.cont10, %invoke.cont7, %invoke.cont4
  %17 = landingpad { i8*, i32 } personality i8* bitcast (i32 (...)* @__gxx_personality_v0 to i8*)
          cleanup
  %18 = extractvalue { i8*, i32 } %17, 0
  store i8* %18, i8** %exn.slot
  %19 = extractvalue { i8*, i32 } %17, 1
  store i32 %19, i32* %ehselector.slot
  br label %ehcleanup

lpad12:                                           ; preds = %invoke.cont11
  %20 = landingpad { i8*, i32 } personality i8* bitcast (i32 (...)* @__gxx_personality_v0 to i8*)
          cleanup
  %21 = extractvalue { i8*, i32 } %20, 0
  store i8* %21, i8** %exn.slot
  %22 = extractvalue { i8*, i32 } %20, 1
  store i32 %22, i32* %ehselector.slot
  invoke void @_ZN5boost9unit_test17lazy_ostream_implIRKNS_10test_tools9tt_detail14print_helper_tISt13_Ios_FmtflagsEEED1Ev(%"class.boost::unit_test::lazy_ostream_impl.48"* %ref.tmp5)
          to label %invoke.cont16 unwind label %terminate.lpad

invoke.cont16:                                    ; preds = %lpad12
  br label %ehcleanup

ehcleanup:                                        ; preds = %invoke.cont16, %lpad6
  invoke void @_ZN5boost9unit_test17lazy_ostream_implIRKNS_10test_tools9tt_detail14print_helper_tISt13_Ios_FmtflagsEEED1Ev(%"class.boost::unit_test::lazy_ostream_impl.48"* %ref.tmp1)
          to label %invoke.cont18 unwind label %terminate.lpad

invoke.cont18:                                    ; preds = %ehcleanup
  br label %ehcleanup19

ehcleanup19:                                      ; preds = %invoke.cont18, %lpad
  invoke void @_ZN5boost10test_tools16predicate_resultD1Ev(%"class.boost::test_tools::predicate_result"* %ref.tmp)
          to label %invoke.cont20 unwind label %terminate.lpad

invoke.cont20:                                    ; preds = %ehcleanup19
  br label %eh.resume

eh.resume:                                        ; preds = %invoke.cont20
  %exn = load i8** %exn.slot
  %sel = load i32* %ehselector.slot
  %lpad.val = insertvalue { i8*, i32 } undef, i8* %exn, 0
  %lpad.val21 = insertvalue { i8*, i32 } %lpad.val, i32 %sel, 1
  resume { i8*, i32 } %lpad.val21

terminate.lpad:                                   ; preds = %ehcleanup19, %ehcleanup, %lpad12
  %23 = landingpad { i8*, i32 } personality i8* bitcast (i32 (...)* @__gxx_personality_v0 to i8*)
          catch i8* null
  call void @_ZSt9terminatev() noreturn nounwind
  unreachable
}

define linkonce_odr void @_ZN5boost9unit_testlsIA1_cEENS0_17lazy_ostream_implIRKT_EERKNS0_12lazy_ostreamES6_(%"class.boost::unit_test::lazy_ostream_impl"* noalias sret %agg.result, %"class.boost::unit_test::lazy_ostream"* %prev, [1 x i8]* %v) inlinehint {
entry:
  %prev.addr = alloca %"class.boost::unit_test::lazy_ostream"*, align 4
  %v.addr = alloca [1 x i8]*, align 4
  store %"class.boost::unit_test::lazy_ostream"* %prev, %"class.boost::unit_test::lazy_ostream"** %prev.addr, align 4
  store [1 x i8]* %v, [1 x i8]** %v.addr, align 4
  %0 = load %"class.boost::unit_test::lazy_ostream"** %prev.addr, align 4
  %1 = load [1 x i8]** %v.addr, align 4
  call void @_ZN5boost9unit_test17lazy_ostream_implIRA1_KcEC1ERKNS0_12lazy_ostreamES4_(%"class.boost::unit_test::lazy_ostream_impl"* %agg.result, %"class.boost::unit_test::lazy_ostream"* %0, [1 x i8]* %1)
  ret void
}

define linkonce_odr %"class.boost::unit_test::lazy_ostream"* @_ZN5boost9unit_test12lazy_ostream8instanceEv() align 2 {
entry:
  %exn.slot = alloca i8*
  %ehselector.slot = alloca i32
  %0 = load atomic i8* bitcast (i64* @_ZGVZN5boost9unit_test12lazy_ostream8instanceEvE4inst to i8*) acquire, align 1
  %guard.uninitialized = icmp eq i8 %0, 0
  br i1 %guard.uninitialized, label %init.check, label %init.end

init.check:                                       ; preds = %entry
  %1 = call i32 @__cxa_guard_acquire(i64* @_ZGVZN5boost9unit_test12lazy_ostream8instanceEvE4inst)
  %tobool = icmp ne i32 %1, 0
  br i1 %tobool, label %init, label %init.end

init:                                             ; preds = %init.check
  invoke void @_ZN5boost9unit_test12lazy_ostreamC1Eb(%"class.boost::unit_test::lazy_ostream"* @_ZZN5boost9unit_test12lazy_ostream8instanceEvE4inst, i1 zeroext true)
          to label %invoke.cont unwind label %lpad

invoke.cont:                                      ; preds = %init
  %2 = call i32 @__cxa_atexit(void (i8*)* bitcast (void (%"class.boost::unit_test::lazy_ostream"*)* @_ZN5boost9unit_test12lazy_ostreamD1Ev to void (i8*)*), i8* bitcast (%"class.boost::unit_test::lazy_ostream"* @_ZZN5boost9unit_test12lazy_ostream8instanceEvE4inst to i8*), i8* @__dso_handle) nounwind
  call void @__cxa_guard_release(i64* @_ZGVZN5boost9unit_test12lazy_ostream8instanceEvE4inst)
  br label %init.end

init.end:                                         ; preds = %invoke.cont, %init.check, %entry
  ret %"class.boost::unit_test::lazy_ostream"* @_ZZN5boost9unit_test12lazy_ostream8instanceEvE4inst

lpad:                                             ; preds = %init
  %3 = landingpad { i8*, i32 } personality i8* bitcast (i32 (...)* @__gxx_personality_v0 to i8*)
          cleanup
  %4 = extractvalue { i8*, i32 } %3, 0
  store i8* %4, i8** %exn.slot
  %5 = extractvalue { i8*, i32 } %3, 1
  store i32 %5, i32* %ehselector.slot
  call void @__cxa_guard_abort(i64* @_ZGVZN5boost9unit_test12lazy_ostream8instanceEvE4inst) nounwind
  br label %eh.resume

eh.resume:                                        ; preds = %lpad
  %exn = load i8** %exn.slot
  %sel = load i32* %ehselector.slot
  %lpad.val = insertvalue { i8*, i32 } undef, i8* %exn, 0
  %lpad.val1 = insertvalue { i8*, i32 } %lpad.val, i32 %sel, 1
  resume { i8*, i32 } %lpad.val1
}

define linkonce_odr i32 @_ZStorSt13_Ios_FmtflagsS_(i32 %__a, i32 %__b) nounwind inlinehint {
entry:
  %__a.addr = alloca i32, align 4
  %__b.addr = alloca i32, align 4
  store i32 %__a, i32* %__a.addr, align 4
  store i32 %__b, i32* %__b.addr, align 4
  %0 = load i32* %__a.addr, align 4
  %1 = load i32* %__b.addr, align 4
  %or = or i32 %0, %1
  ret i32 %or
}

define linkonce_odr i32 @_ZNKSt8ios_base5flagsEv(%"class.std::ios_base"* %this) nounwind align 2 {
entry:
  %this.addr = alloca %"class.std::ios_base"*, align 4
  store %"class.std::ios_base"* %this, %"class.std::ios_base"** %this.addr, align 4
  %this1 = load %"class.std::ios_base"** %this.addr
  %_M_flags = getelementptr inbounds %"class.std::ios_base"* %this1, i32 0, i32 3
  %0 = load i32* %_M_flags, align 4
  ret i32 %0
}

define linkonce_odr void @_ZN5boost9unit_test17lazy_ostream_implIRA1_KcED1Ev(%"class.boost::unit_test::lazy_ostream_impl"* %this) unnamed_addr inlinehint align 2 {
entry:
  %this.addr = alloca %"class.boost::unit_test::lazy_ostream_impl"*, align 4
  store %"class.boost::unit_test::lazy_ostream_impl"* %this, %"class.boost::unit_test::lazy_ostream_impl"** %this.addr, align 4
  %this1 = load %"class.boost::unit_test::lazy_ostream_impl"** %this.addr
  call void @_ZN5boost9unit_test17lazy_ostream_implIRA1_KcED2Ev(%"class.boost::unit_test::lazy_ostream_impl"* %this1)
  ret void
}

declare void @_ZSt9terminatev()

define linkonce_odr void @_ZN5boost2io15ios_flags_saverC1ERSt8ios_base(%"class.boost::io::ios_flags_saver"* %this, %"class.std::ios_base"* %s) unnamed_addr align 2 {
entry:
  %this.addr = alloca %"class.boost::io::ios_flags_saver"*, align 4
  %s.addr = alloca %"class.std::ios_base"*, align 4
  store %"class.boost::io::ios_flags_saver"* %this, %"class.boost::io::ios_flags_saver"** %this.addr, align 4
  store %"class.std::ios_base"* %s, %"class.std::ios_base"** %s.addr, align 4
  %this1 = load %"class.boost::io::ios_flags_saver"** %this.addr
  %0 = load %"class.std::ios_base"** %s.addr
  call void @_ZN5boost2io15ios_flags_saverC2ERSt8ios_base(%"class.boost::io::ios_flags_saver"* %this1, %"class.std::ios_base"* %0)
  ret void
}

declare %"class.std::basic_ostream"* @_ZNSolsEPFRSt8ios_baseS0_E(%"class.std::basic_ostream"*, %"class.std::ios_base"* (%"class.std::ios_base"*)*)

define linkonce_odr %"class.std::ios_base"* @_ZSt8noskipwsRSt8ios_base(%"class.std::ios_base"* %__base) inlinehint {
entry:
  %__base.addr = alloca %"class.std::ios_base"*, align 4
  store %"class.std::ios_base"* %__base, %"class.std::ios_base"** %__base.addr, align 4
  %0 = load %"class.std::ios_base"** %__base.addr, align 4
  call void @_ZNSt8ios_base6unsetfESt13_Ios_Fmtflags(%"class.std::ios_base"* %0, i32 4096)
  %1 = load %"class.std::ios_base"** %__base.addr, align 4
  ret %"class.std::ios_base"* %1
}

define linkonce_odr %"class.std::ios_base"* @_ZSt5fixedRSt8ios_base(%"class.std::ios_base"* %__base) inlinehint {
entry:
  %__base.addr = alloca %"class.std::ios_base"*, align 4
  store %"class.std::ios_base"* %__base, %"class.std::ios_base"** %__base.addr, align 4
  %0 = load %"class.std::ios_base"** %__base.addr, align 4
  %call = call i32 @_ZNSt8ios_base4setfESt13_Ios_FmtflagsS0_(%"class.std::ios_base"* %0, i32 4, i32 260)
  %1 = load %"class.std::ios_base"** %__base.addr, align 4
  ret %"class.std::ios_base"* %1
}

define linkonce_odr %"class.std::ios_base"* @_ZSt9boolalphaRSt8ios_base(%"class.std::ios_base"* %__base) inlinehint {
entry:
  %__base.addr = alloca %"class.std::ios_base"*, align 4
  store %"class.std::ios_base"* %__base, %"class.std::ios_base"** %__base.addr, align 4
  %0 = load %"class.std::ios_base"** %__base.addr, align 4
  %call = call i32 @_ZNSt8ios_base4setfESt13_Ios_Fmtflags(%"class.std::ios_base"* %0, i32 1)
  %1 = load %"class.std::ios_base"** %__base.addr, align 4
  ret %"class.std::ios_base"* %1
}

define linkonce_odr void @_ZN5boost2io15ios_flags_saverD1Ev(%"class.boost::io::ios_flags_saver"* %this) unnamed_addr align 2 {
entry:
  %this.addr = alloca %"class.boost::io::ios_flags_saver"*, align 4
  store %"class.boost::io::ios_flags_saver"* %this, %"class.boost::io::ios_flags_saver"** %this.addr, align 4
  %this1 = load %"class.boost::io::ios_flags_saver"** %this.addr
  call void @_ZN5boost2io15ios_flags_saverD2Ev(%"class.boost::io::ios_flags_saver"* %this1)
  ret void
}

define linkonce_odr void @_ZN5boost2io15ios_flags_saverC1ERSt8ios_baseRKSt13_Ios_Fmtflags(%"class.boost::io::ios_flags_saver"* %this, %"class.std::ios_base"* %s, i32* %a) unnamed_addr align 2 {
entry:
  %this.addr = alloca %"class.boost::io::ios_flags_saver"*, align 4
  %s.addr = alloca %"class.std::ios_base"*, align 4
  %a.addr = alloca i32*, align 4
  store %"class.boost::io::ios_flags_saver"* %this, %"class.boost::io::ios_flags_saver"** %this.addr, align 4
  store %"class.std::ios_base"* %s, %"class.std::ios_base"** %s.addr, align 4
  store i32* %a, i32** %a.addr, align 4
  %this1 = load %"class.boost::io::ios_flags_saver"** %this.addr
  %0 = load i32** %a.addr
  %1 = load %"class.std::ios_base"** %s.addr
  call void @_ZN5boost2io15ios_flags_saverC2ERSt8ios_baseRKSt13_Ios_Fmtflags(%"class.boost::io::ios_flags_saver"* %this1, %"class.std::ios_base"* %1, i32* %0)
  ret void
}

declare %"class.std::basic_ostream"* @_ZStlsIcSt11char_traitsIcEERSt13basic_ostreamIT_T0_ES6_St12_Setiosflags(%"class.std::basic_ostream"*, %"struct.std::_Setiosflags"* byval align 4)

define linkonce_odr void @_ZSt11setiosflagsSt13_Ios_Fmtflags(%"struct.std::_Setiosflags"* noalias sret %agg.result, i32 %__mask) nounwind inlinehint {
entry:
  %__mask.addr = alloca i32, align 4
  store i32 %__mask, i32* %__mask.addr, align 4
  %_M_mask = getelementptr inbounds %"struct.std::_Setiosflags"* %agg.result, i32 0, i32 0
  %0 = load i32* %__mask.addr, align 4
  store i32 %0, i32* %_M_mask, align 4
  ret void
}

declare void @_ZNSt18basic_stringstreamIcSt11char_traitsIcESaIcEED1Ev(%"class.std::basic_stringstream"*)

define void @_Z29ios_precision_saver_unit_testv() {
entry:
  %ss = alloca %"class.std::basic_stringstream", align 4
  %agg.tmp = alloca %"class.boost::unit_test::basic_cstring", align 4
  %exn.slot = alloca i8*
  %ehselector.slot = alloca i32
  %agg.tmp1 = alloca %"class.boost::unit_test::basic_cstring", align 4
  %agg.tmp4 = alloca %"struct.boost::test_tools::tt_detail::equal_impl_frwd", align 1
  %ref.tmp = alloca %"class.boost::unit_test::lazy_ostream_impl", align 4
  %agg.tmp8 = alloca %"class.boost::unit_test::basic_cstring", align 4
  %ref.tmp11 = alloca i32, align 4
  %ref.tmp14 = alloca i32, align 4
  %ips = alloca %"class.boost::io::ios_precision_saver", align 4
  %agg.tmp25 = alloca %"class.boost::unit_test::basic_cstring", align 4
  %agg.tmp28 = alloca %"class.boost::unit_test::basic_cstring", align 4
  %agg.tmp31 = alloca %"struct.boost::test_tools::tt_detail::equal_impl_frwd", align 1
  %ref.tmp32 = alloca %"class.boost::unit_test::lazy_ostream_impl", align 4
  %agg.tmp36 = alloca %"class.boost::unit_test::basic_cstring", align 4
  %ref.tmp39 = alloca i32, align 4
  %ref.tmp46 = alloca i32, align 4
  %agg.tmp55 = alloca %"struct.std::_Setprecision", align 4
  %agg.tmp60 = alloca %"class.boost::unit_test::basic_cstring", align 4
  %agg.tmp62 = alloca %"class.boost::unit_test::basic_cstring", align 4
  %agg.tmp65 = alloca %"struct.boost::test_tools::tt_detail::equal_impl_frwd", align 1
  %ref.tmp66 = alloca %"class.boost::unit_test::lazy_ostream_impl", align 4
  %agg.tmp70 = alloca %"class.boost::unit_test::basic_cstring", align 4
  %ref.tmp73 = alloca i32, align 4
  %ref.tmp80 = alloca i32, align 4
  %agg.tmp91 = alloca %"class.boost::unit_test::basic_cstring", align 4
  %agg.tmp93 = alloca %"class.boost::unit_test::basic_cstring", align 4
  %agg.tmp96 = alloca %"struct.boost::test_tools::tt_detail::equal_impl_frwd", align 1
  %ref.tmp97 = alloca %"class.boost::unit_test::lazy_ostream_impl", align 4
  %agg.tmp101 = alloca %"class.boost::unit_test::basic_cstring", align 4
  %ref.tmp104 = alloca i32, align 4
  %ref.tmp111 = alloca i32, align 4
  %ips120 = alloca %"class.boost::io::ios_precision_saver", align 4
  %ref.tmp125 = alloca i32, align 4
  %agg.tmp128 = alloca %"class.boost::unit_test::basic_cstring", align 4
  %agg.tmp131 = alloca %"class.boost::unit_test::basic_cstring", align 4
  %agg.tmp134 = alloca %"struct.boost::test_tools::tt_detail::equal_impl_frwd", align 1
  %ref.tmp135 = alloca %"class.boost::unit_test::lazy_ostream_impl", align 4
  %agg.tmp139 = alloca %"class.boost::unit_test::basic_cstring", align 4
  %ref.tmp142 = alloca i32, align 4
  %ref.tmp149 = alloca i32, align 4
  %agg.tmp159 = alloca %"struct.std::_Setprecision", align 4
  %agg.tmp164 = alloca %"class.boost::unit_test::basic_cstring", align 4
  %agg.tmp166 = alloca %"class.boost::unit_test::basic_cstring", align 4
  %agg.tmp169 = alloca %"struct.boost::test_tools::tt_detail::equal_impl_frwd", align 1
  %ref.tmp170 = alloca %"class.boost::unit_test::lazy_ostream_impl", align 4
  %agg.tmp174 = alloca %"class.boost::unit_test::basic_cstring", align 4
  %ref.tmp177 = alloca i32, align 4
  %ref.tmp184 = alloca i32, align 4
  %agg.tmp197 = alloca %"class.boost::unit_test::basic_cstring", align 4
  %agg.tmp199 = alloca %"class.boost::unit_test::basic_cstring", align 4
  %agg.tmp202 = alloca %"struct.boost::test_tools::tt_detail::equal_impl_frwd", align 1
  %ref.tmp203 = alloca %"class.boost::unit_test::lazy_ostream_impl", align 4
  %agg.tmp207 = alloca %"class.boost::unit_test::basic_cstring", align 4
  %ref.tmp210 = alloca i32, align 4
  %ref.tmp217 = alloca i32, align 4
  %call = call i32 @_ZStorSt13_Ios_OpenmodeS_(i32 16, i32 8)
  call void @_ZNSt18basic_stringstreamIcSt11char_traitsIcESaIcEEC1ESt13_Ios_Openmode(%"class.std::basic_stringstream"* %ss, i32 %call)
  br label %do.body

do.body:                                          ; preds = %do.cond, %entry
  %0 = load %"class.boost::unit_test::unit_test_log_t"** @_ZN5boost9unit_test12_GLOBAL__N_113unit_test_logE, align 4
  invoke void @_ZN5boost9unit_test13basic_cstringIKcEC1EPS2_j(%"class.boost::unit_test::basic_cstring"* %agg.tmp, i8* getelementptr inbounds ([24 x i8]* @.str, i32 0, i32 0), i32 23)
          to label %invoke.cont unwind label %lpad

invoke.cont:                                      ; preds = %do.body
  invoke void @_ZN5boost9unit_test13basic_cstringIKcEC1Ev(%"class.boost::unit_test::basic_cstring"* %agg.tmp1)
          to label %invoke.cont2 unwind label %lpad

invoke.cont2:                                     ; preds = %invoke.cont
  invoke void @_ZN5boost9unit_test15unit_test_log_t14set_checkpointENS0_13basic_cstringIKcEEjS4_(%"class.boost::unit_test::unit_test_log_t"* %0, %"class.boost::unit_test::basic_cstring"* byval align 4 %agg.tmp, i32 98, %"class.boost::unit_test::basic_cstring"* byval align 4 %agg.tmp1)
          to label %invoke.cont3 unwind label %lpad

invoke.cont3:                                     ; preds = %invoke.cont2
  %call6 = invoke %"class.boost::unit_test::lazy_ostream"* @_ZN5boost9unit_test12lazy_ostream8instanceEv()
          to label %invoke.cont5 unwind label %lpad

invoke.cont5:                                     ; preds = %invoke.cont3
  invoke void @_ZN5boost9unit_testlsIA1_cEENS0_17lazy_ostream_implIRKT_EERKNS0_12lazy_ostreamES6_(%"class.boost::unit_test::lazy_ostream_impl"* sret %ref.tmp, %"class.boost::unit_test::lazy_ostream"* %call6, [1 x i8]* @.str3)
          to label %invoke.cont7 unwind label %lpad

invoke.cont7:                                     ; preds = %invoke.cont5
  %1 = bitcast %"class.boost::unit_test::lazy_ostream_impl"* %ref.tmp to %"class.boost::unit_test::lazy_ostream"*
  invoke void @_ZN5boost9unit_test13basic_cstringIKcEC1EPS2_j(%"class.boost::unit_test::basic_cstring"* %agg.tmp8, i8* getelementptr inbounds ([24 x i8]* @.str, i32 0, i32 0), i32 23)
          to label %invoke.cont10 unwind label %lpad9

invoke.cont10:                                    ; preds = %invoke.cont7
  store i32 6, i32* %ref.tmp11, align 4
  %2 = bitcast %"class.std::basic_stringstream"* %ss to i8**
  %vtable = load i8** %2
  %vbase.offset.ptr = getelementptr i8* %vtable, i64 -12
  %3 = bitcast i8* %vbase.offset.ptr to i32*
  %vbase.offset = load i32* %3
  %4 = bitcast %"class.std::basic_stringstream"* %ss to i8*
  %add.ptr = getelementptr inbounds i8* %4, i32 %vbase.offset
  %5 = bitcast i8* %add.ptr to %"class.std::ios_base"*
  %call13 = invoke i32 @_ZNKSt8ios_base9precisionEv(%"class.std::ios_base"* %5)
          to label %invoke.cont12 unwind label %lpad9

invoke.cont12:                                    ; preds = %invoke.cont10
  store i32 %call13, i32* %ref.tmp14, align 4
  %call16 = invoke zeroext i1 @_ZN5boost10test_tools9tt_detail10check_frwdINS1_15equal_impl_frwdEiiEEbT_RKNS_9unit_test12lazy_ostreamENS5_13basic_cstringIKcEEjNS1_10tool_levelENS1_10check_typeERKT0_PSA_RKT1_SH_(%"class.boost::unit_test::lazy_ostream"* %1, %"class.boost::unit_test::basic_cstring"* byval align 4 %agg.tmp8, i32 98, i32 1, i32 2, i32* %ref.tmp11, i8* getelementptr inbounds ([2 x i8]* @.str9, i32 0, i32 0), i32* %ref.tmp14, i8* getelementptr inbounds ([15 x i8]* @.str10, i32 0, i32 0))
          to label %invoke.cont15 unwind label %lpad9

invoke.cont15:                                    ; preds = %invoke.cont12
  invoke void @_ZN5boost9unit_test17lazy_ostream_implIRA1_KcED1Ev(%"class.boost::unit_test::lazy_ostream_impl"* %ref.tmp)
          to label %invoke.cont17 unwind label %lpad

invoke.cont17:                                    ; preds = %invoke.cont15
  br label %do.cond

do.cond:                                          ; preds = %invoke.cont17
  %6 = load i8* @_ZN5boost10test_tools12_GLOBAL__N_110dummy_condE, align 1
  %tobool = trunc i8 %6 to i1
  br i1 %tobool, label %do.body, label %do.end

do.end:                                           ; preds = %do.cond
  %7 = bitcast %"class.std::basic_stringstream"* %ss to i8**
  %vtable19 = load i8** %7
  %vbase.offset.ptr20 = getelementptr i8* %vtable19, i64 -12
  %8 = bitcast i8* %vbase.offset.ptr20 to i32*
  %vbase.offset21 = load i32* %8
  %9 = bitcast %"class.std::basic_stringstream"* %ss to i8*
  %add.ptr22 = getelementptr inbounds i8* %9, i32 %vbase.offset21
  %10 = bitcast i8* %add.ptr22 to %"class.std::ios_base"*
  invoke void @_ZN5boost2io19ios_precision_saverC1ERSt8ios_base(%"class.boost::io::ios_precision_saver"* %ips, %"class.std::ios_base"* %10)
          to label %invoke.cont23 unwind label %lpad

invoke.cont23:                                    ; preds = %do.end
  br label %do.body24

do.body24:                                        ; preds = %do.cond51, %invoke.cont23
  %11 = load %"class.boost::unit_test::unit_test_log_t"** @_ZN5boost9unit_test12_GLOBAL__N_113unit_test_logE, align 4
  invoke void @_ZN5boost9unit_test13basic_cstringIKcEC1EPS2_j(%"class.boost::unit_test::basic_cstring"* %agg.tmp25, i8* getelementptr inbounds ([24 x i8]* @.str, i32 0, i32 0), i32 23)
          to label %invoke.cont27 unwind label %lpad26

invoke.cont27:                                    ; preds = %do.body24
  invoke void @_ZN5boost9unit_test13basic_cstringIKcEC1Ev(%"class.boost::unit_test::basic_cstring"* %agg.tmp28)
          to label %invoke.cont29 unwind label %lpad26

invoke.cont29:                                    ; preds = %invoke.cont27
  invoke void @_ZN5boost9unit_test15unit_test_log_t14set_checkpointENS0_13basic_cstringIKcEEjS4_(%"class.boost::unit_test::unit_test_log_t"* %11, %"class.boost::unit_test::basic_cstring"* byval align 4 %agg.tmp25, i32 103, %"class.boost::unit_test::basic_cstring"* byval align 4 %agg.tmp28)
          to label %invoke.cont30 unwind label %lpad26

invoke.cont30:                                    ; preds = %invoke.cont29
  %call34 = invoke %"class.boost::unit_test::lazy_ostream"* @_ZN5boost9unit_test12lazy_ostream8instanceEv()
          to label %invoke.cont33 unwind label %lpad26

invoke.cont33:                                    ; preds = %invoke.cont30
  invoke void @_ZN5boost9unit_testlsIA1_cEENS0_17lazy_ostream_implIRKT_EERKNS0_12lazy_ostreamES6_(%"class.boost::unit_test::lazy_ostream_impl"* sret %ref.tmp32, %"class.boost::unit_test::lazy_ostream"* %call34, [1 x i8]* @.str3)
          to label %invoke.cont35 unwind label %lpad26

invoke.cont35:                                    ; preds = %invoke.cont33
  %12 = bitcast %"class.boost::unit_test::lazy_ostream_impl"* %ref.tmp32 to %"class.boost::unit_test::lazy_ostream"*
  invoke void @_ZN5boost9unit_test13basic_cstringIKcEC1EPS2_j(%"class.boost::unit_test::basic_cstring"* %agg.tmp36, i8* getelementptr inbounds ([24 x i8]* @.str, i32 0, i32 0), i32 23)
          to label %invoke.cont38 unwind label %lpad37

invoke.cont38:                                    ; preds = %invoke.cont35
  store i32 6, i32* %ref.tmp39, align 4
  %13 = bitcast %"class.std::basic_stringstream"* %ss to i8**
  %vtable40 = load i8** %13
  %vbase.offset.ptr41 = getelementptr i8* %vtable40, i64 -12
  %14 = bitcast i8* %vbase.offset.ptr41 to i32*
  %vbase.offset42 = load i32* %14
  %15 = bitcast %"class.std::basic_stringstream"* %ss to i8*
  %add.ptr43 = getelementptr inbounds i8* %15, i32 %vbase.offset42
  %16 = bitcast i8* %add.ptr43 to %"class.std::ios_base"*
  %call45 = invoke i32 @_ZNKSt8ios_base9precisionEv(%"class.std::ios_base"* %16)
          to label %invoke.cont44 unwind label %lpad37

invoke.cont44:                                    ; preds = %invoke.cont38
  store i32 %call45, i32* %ref.tmp46, align 4
  %call48 = invoke zeroext i1 @_ZN5boost10test_tools9tt_detail10check_frwdINS1_15equal_impl_frwdEiiEEbT_RKNS_9unit_test12lazy_ostreamENS5_13basic_cstringIKcEEjNS1_10tool_levelENS1_10check_typeERKT0_PSA_RKT1_SH_(%"class.boost::unit_test::lazy_ostream"* %12, %"class.boost::unit_test::basic_cstring"* byval align 4 %agg.tmp36, i32 103, i32 1, i32 2, i32* %ref.tmp39, i8* getelementptr inbounds ([2 x i8]* @.str9, i32 0, i32 0), i32* %ref.tmp46, i8* getelementptr inbounds ([15 x i8]* @.str10, i32 0, i32 0))
          to label %invoke.cont47 unwind label %lpad37

invoke.cont47:                                    ; preds = %invoke.cont44
  invoke void @_ZN5boost9unit_test17lazy_ostream_implIRA1_KcED1Ev(%"class.boost::unit_test::lazy_ostream_impl"* %ref.tmp32)
          to label %invoke.cont49 unwind label %lpad26

invoke.cont49:                                    ; preds = %invoke.cont47
  br label %do.cond51

do.cond51:                                        ; preds = %invoke.cont49
  %17 = load i8* @_ZN5boost10test_tools12_GLOBAL__N_110dummy_condE, align 1
  %tobool52 = trunc i8 %17 to i1
  br i1 %tobool52, label %do.body24, label %do.end53

do.end53:                                         ; preds = %do.cond51
  %18 = bitcast %"class.std::basic_stringstream"* %ss to i8*
  %add.ptr54 = getelementptr inbounds i8* %18, i32 8
  %19 = bitcast i8* %add.ptr54 to %"class.std::basic_ostream"*
  invoke void @_ZSt12setprecisioni(%"struct.std::_Setprecision"* sret %agg.tmp55, i32 4)
          to label %invoke.cont56 unwind label %lpad26

invoke.cont56:                                    ; preds = %do.end53
  %call58 = invoke %"class.std::basic_ostream"* @_ZStlsIcSt11char_traitsIcEERSt13basic_ostreamIT_T0_ES6_St13_Setprecision(%"class.std::basic_ostream"* %19, %"struct.std::_Setprecision"* byval align 4 %agg.tmp55)
          to label %invoke.cont57 unwind label %lpad26

invoke.cont57:                                    ; preds = %invoke.cont56
  br label %do.body59

do.body59:                                        ; preds = %do.cond85, %invoke.cont57
  %20 = load %"class.boost::unit_test::unit_test_log_t"** @_ZN5boost9unit_test12_GLOBAL__N_113unit_test_logE, align 4
  invoke void @_ZN5boost9unit_test13basic_cstringIKcEC1EPS2_j(%"class.boost::unit_test::basic_cstring"* %agg.tmp60, i8* getelementptr inbounds ([24 x i8]* @.str, i32 0, i32 0), i32 23)
          to label %invoke.cont61 unwind label %lpad26

invoke.cont61:                                    ; preds = %do.body59
  invoke void @_ZN5boost9unit_test13basic_cstringIKcEC1Ev(%"class.boost::unit_test::basic_cstring"* %agg.tmp62)
          to label %invoke.cont63 unwind label %lpad26

invoke.cont63:                                    ; preds = %invoke.cont61
  invoke void @_ZN5boost9unit_test15unit_test_log_t14set_checkpointENS0_13basic_cstringIKcEEjS4_(%"class.boost::unit_test::unit_test_log_t"* %20, %"class.boost::unit_test::basic_cstring"* byval align 4 %agg.tmp60, i32 106, %"class.boost::unit_test::basic_cstring"* byval align 4 %agg.tmp62)
          to label %invoke.cont64 unwind label %lpad26

invoke.cont64:                                    ; preds = %invoke.cont63
  %call68 = invoke %"class.boost::unit_test::lazy_ostream"* @_ZN5boost9unit_test12lazy_ostream8instanceEv()
          to label %invoke.cont67 unwind label %lpad26

invoke.cont67:                                    ; preds = %invoke.cont64
  invoke void @_ZN5boost9unit_testlsIA1_cEENS0_17lazy_ostream_implIRKT_EERKNS0_12lazy_ostreamES6_(%"class.boost::unit_test::lazy_ostream_impl"* sret %ref.tmp66, %"class.boost::unit_test::lazy_ostream"* %call68, [1 x i8]* @.str3)
          to label %invoke.cont69 unwind label %lpad26

invoke.cont69:                                    ; preds = %invoke.cont67
  %21 = bitcast %"class.boost::unit_test::lazy_ostream_impl"* %ref.tmp66 to %"class.boost::unit_test::lazy_ostream"*
  invoke void @_ZN5boost9unit_test13basic_cstringIKcEC1EPS2_j(%"class.boost::unit_test::basic_cstring"* %agg.tmp70, i8* getelementptr inbounds ([24 x i8]* @.str, i32 0, i32 0), i32 23)
          to label %invoke.cont72 unwind label %lpad71

invoke.cont72:                                    ; preds = %invoke.cont69
  store i32 4, i32* %ref.tmp73, align 4
  %22 = bitcast %"class.std::basic_stringstream"* %ss to i8**
  %vtable74 = load i8** %22
  %vbase.offset.ptr75 = getelementptr i8* %vtable74, i64 -12
  %23 = bitcast i8* %vbase.offset.ptr75 to i32*
  %vbase.offset76 = load i32* %23
  %24 = bitcast %"class.std::basic_stringstream"* %ss to i8*
  %add.ptr77 = getelementptr inbounds i8* %24, i32 %vbase.offset76
  %25 = bitcast i8* %add.ptr77 to %"class.std::ios_base"*
  %call79 = invoke i32 @_ZNKSt8ios_base9precisionEv(%"class.std::ios_base"* %25)
          to label %invoke.cont78 unwind label %lpad71

invoke.cont78:                                    ; preds = %invoke.cont72
  store i32 %call79, i32* %ref.tmp80, align 4
  %call82 = invoke zeroext i1 @_ZN5boost10test_tools9tt_detail10check_frwdINS1_15equal_impl_frwdEiiEEbT_RKNS_9unit_test12lazy_ostreamENS5_13basic_cstringIKcEEjNS1_10tool_levelENS1_10check_typeERKT0_PSA_RKT1_SH_(%"class.boost::unit_test::lazy_ostream"* %21, %"class.boost::unit_test::basic_cstring"* byval align 4 %agg.tmp70, i32 106, i32 1, i32 2, i32* %ref.tmp73, i8* getelementptr inbounds ([2 x i8]* @.str11, i32 0, i32 0), i32* %ref.tmp80, i8* getelementptr inbounds ([15 x i8]* @.str10, i32 0, i32 0))
          to label %invoke.cont81 unwind label %lpad71

invoke.cont81:                                    ; preds = %invoke.cont78
  invoke void @_ZN5boost9unit_test17lazy_ostream_implIRA1_KcED1Ev(%"class.boost::unit_test::lazy_ostream_impl"* %ref.tmp66)
          to label %invoke.cont83 unwind label %lpad26

invoke.cont83:                                    ; preds = %invoke.cont81
  br label %do.cond85

do.cond85:                                        ; preds = %invoke.cont83
  %26 = load i8* @_ZN5boost10test_tools12_GLOBAL__N_110dummy_condE, align 1
  %tobool86 = trunc i8 %26 to i1
  br i1 %tobool86, label %do.body59, label %do.end87

do.end87:                                         ; preds = %do.cond85
  invoke void @_ZN5boost2io19ios_precision_saverD1Ev(%"class.boost::io::ios_precision_saver"* %ips)
          to label %invoke.cont88 unwind label %lpad

invoke.cont88:                                    ; preds = %do.end87
  br label %do.body90

do.body90:                                        ; preds = %do.cond117, %invoke.cont88
  %27 = load %"class.boost::unit_test::unit_test_log_t"** @_ZN5boost9unit_test12_GLOBAL__N_113unit_test_logE, align 4
  invoke void @_ZN5boost9unit_test13basic_cstringIKcEC1EPS2_j(%"class.boost::unit_test::basic_cstring"* %agg.tmp91, i8* getelementptr inbounds ([24 x i8]* @.str, i32 0, i32 0), i32 23)
          to label %invoke.cont92 unwind label %lpad

invoke.cont92:                                    ; preds = %do.body90
  invoke void @_ZN5boost9unit_test13basic_cstringIKcEC1Ev(%"class.boost::unit_test::basic_cstring"* %agg.tmp93)
          to label %invoke.cont94 unwind label %lpad

invoke.cont94:                                    ; preds = %invoke.cont92
  invoke void @_ZN5boost9unit_test15unit_test_log_t14set_checkpointENS0_13basic_cstringIKcEEjS4_(%"class.boost::unit_test::unit_test_log_t"* %27, %"class.boost::unit_test::basic_cstring"* byval align 4 %agg.tmp91, i32 109, %"class.boost::unit_test::basic_cstring"* byval align 4 %agg.tmp93)
          to label %invoke.cont95 unwind label %lpad

invoke.cont95:                                    ; preds = %invoke.cont94
  %call99 = invoke %"class.boost::unit_test::lazy_ostream"* @_ZN5boost9unit_test12lazy_ostream8instanceEv()
          to label %invoke.cont98 unwind label %lpad

invoke.cont98:                                    ; preds = %invoke.cont95
  invoke void @_ZN5boost9unit_testlsIA1_cEENS0_17lazy_ostream_implIRKT_EERKNS0_12lazy_ostreamES6_(%"class.boost::unit_test::lazy_ostream_impl"* sret %ref.tmp97, %"class.boost::unit_test::lazy_ostream"* %call99, [1 x i8]* @.str3)
          to label %invoke.cont100 unwind label %lpad

invoke.cont100:                                   ; preds = %invoke.cont98
  %28 = bitcast %"class.boost::unit_test::lazy_ostream_impl"* %ref.tmp97 to %"class.boost::unit_test::lazy_ostream"*
  invoke void @_ZN5boost9unit_test13basic_cstringIKcEC1EPS2_j(%"class.boost::unit_test::basic_cstring"* %agg.tmp101, i8* getelementptr inbounds ([24 x i8]* @.str, i32 0, i32 0), i32 23)
          to label %invoke.cont103 unwind label %lpad102

invoke.cont103:                                   ; preds = %invoke.cont100
  store i32 6, i32* %ref.tmp104, align 4
  %29 = bitcast %"class.std::basic_stringstream"* %ss to i8**
  %vtable105 = load i8** %29
  %vbase.offset.ptr106 = getelementptr i8* %vtable105, i64 -12
  %30 = bitcast i8* %vbase.offset.ptr106 to i32*
  %vbase.offset107 = load i32* %30
  %31 = bitcast %"class.std::basic_stringstream"* %ss to i8*
  %add.ptr108 = getelementptr inbounds i8* %31, i32 %vbase.offset107
  %32 = bitcast i8* %add.ptr108 to %"class.std::ios_base"*
  %call110 = invoke i32 @_ZNKSt8ios_base9precisionEv(%"class.std::ios_base"* %32)
          to label %invoke.cont109 unwind label %lpad102

invoke.cont109:                                   ; preds = %invoke.cont103
  store i32 %call110, i32* %ref.tmp111, align 4
  %call113 = invoke zeroext i1 @_ZN5boost10test_tools9tt_detail10check_frwdINS1_15equal_impl_frwdEiiEEbT_RKNS_9unit_test12lazy_ostreamENS5_13basic_cstringIKcEEjNS1_10tool_levelENS1_10check_typeERKT0_PSA_RKT1_SH_(%"class.boost::unit_test::lazy_ostream"* %28, %"class.boost::unit_test::basic_cstring"* byval align 4 %agg.tmp101, i32 109, i32 1, i32 2, i32* %ref.tmp104, i8* getelementptr inbounds ([2 x i8]* @.str9, i32 0, i32 0), i32* %ref.tmp111, i8* getelementptr inbounds ([15 x i8]* @.str10, i32 0, i32 0))
          to label %invoke.cont112 unwind label %lpad102

invoke.cont112:                                   ; preds = %invoke.cont109
  invoke void @_ZN5boost9unit_test17lazy_ostream_implIRA1_KcED1Ev(%"class.boost::unit_test::lazy_ostream_impl"* %ref.tmp97)
          to label %invoke.cont114 unwind label %lpad

invoke.cont114:                                   ; preds = %invoke.cont112
  br label %do.cond117

do.cond117:                                       ; preds = %invoke.cont114
  %33 = load i8* @_ZN5boost10test_tools12_GLOBAL__N_110dummy_condE, align 1
  %tobool118 = trunc i8 %33 to i1
  br i1 %tobool118, label %do.body90, label %do.end119

do.end119:                                        ; preds = %do.cond117
  %34 = bitcast %"class.std::basic_stringstream"* %ss to i8**
  %vtable121 = load i8** %34
  %vbase.offset.ptr122 = getelementptr i8* %vtable121, i64 -12
  %35 = bitcast i8* %vbase.offset.ptr122 to i32*
  %vbase.offset123 = load i32* %35
  %36 = bitcast %"class.std::basic_stringstream"* %ss to i8*
  %add.ptr124 = getelementptr inbounds i8* %36, i32 %vbase.offset123
  %37 = bitcast i8* %add.ptr124 to %"class.std::ios_base"*
  store i32 8, i32* %ref.tmp125, align 4
  invoke void @_ZN5boost2io19ios_precision_saverC1ERSt8ios_baseRKi(%"class.boost::io::ios_precision_saver"* %ips120, %"class.std::ios_base"* %37, i32* %ref.tmp125)
          to label %invoke.cont126 unwind label %lpad

invoke.cont126:                                   ; preds = %do.end119
  br label %do.body127

do.body127:                                       ; preds = %do.cond155, %invoke.cont126
  %38 = load %"class.boost::unit_test::unit_test_log_t"** @_ZN5boost9unit_test12_GLOBAL__N_113unit_test_logE, align 4
  invoke void @_ZN5boost9unit_test13basic_cstringIKcEC1EPS2_j(%"class.boost::unit_test::basic_cstring"* %agg.tmp128, i8* getelementptr inbounds ([24 x i8]* @.str, i32 0, i32 0), i32 23)
          to label %invoke.cont130 unwind label %lpad129

invoke.cont130:                                   ; preds = %do.body127
  invoke void @_ZN5boost9unit_test13basic_cstringIKcEC1Ev(%"class.boost::unit_test::basic_cstring"* %agg.tmp131)
          to label %invoke.cont132 unwind label %lpad129

invoke.cont132:                                   ; preds = %invoke.cont130
  invoke void @_ZN5boost9unit_test15unit_test_log_t14set_checkpointENS0_13basic_cstringIKcEEjS4_(%"class.boost::unit_test::unit_test_log_t"* %38, %"class.boost::unit_test::basic_cstring"* byval align 4 %agg.tmp128, i32 114, %"class.boost::unit_test::basic_cstring"* byval align 4 %agg.tmp131)
          to label %invoke.cont133 unwind label %lpad129

invoke.cont133:                                   ; preds = %invoke.cont132
  %call137 = invoke %"class.boost::unit_test::lazy_ostream"* @_ZN5boost9unit_test12lazy_ostream8instanceEv()
          to label %invoke.cont136 unwind label %lpad129

invoke.cont136:                                   ; preds = %invoke.cont133
  invoke void @_ZN5boost9unit_testlsIA1_cEENS0_17lazy_ostream_implIRKT_EERKNS0_12lazy_ostreamES6_(%"class.boost::unit_test::lazy_ostream_impl"* sret %ref.tmp135, %"class.boost::unit_test::lazy_ostream"* %call137, [1 x i8]* @.str3)
          to label %invoke.cont138 unwind label %lpad129

invoke.cont138:                                   ; preds = %invoke.cont136
  %39 = bitcast %"class.boost::unit_test::lazy_ostream_impl"* %ref.tmp135 to %"class.boost::unit_test::lazy_ostream"*
  invoke void @_ZN5boost9unit_test13basic_cstringIKcEC1EPS2_j(%"class.boost::unit_test::basic_cstring"* %agg.tmp139, i8* getelementptr inbounds ([24 x i8]* @.str, i32 0, i32 0), i32 23)
          to label %invoke.cont141 unwind label %lpad140

invoke.cont141:                                   ; preds = %invoke.cont138
  store i32 8, i32* %ref.tmp142, align 4
  %40 = bitcast %"class.std::basic_stringstream"* %ss to i8**
  %vtable143 = load i8** %40
  %vbase.offset.ptr144 = getelementptr i8* %vtable143, i64 -12
  %41 = bitcast i8* %vbase.offset.ptr144 to i32*
  %vbase.offset145 = load i32* %41
  %42 = bitcast %"class.std::basic_stringstream"* %ss to i8*
  %add.ptr146 = getelementptr inbounds i8* %42, i32 %vbase.offset145
  %43 = bitcast i8* %add.ptr146 to %"class.std::ios_base"*
  %call148 = invoke i32 @_ZNKSt8ios_base9precisionEv(%"class.std::ios_base"* %43)
          to label %invoke.cont147 unwind label %lpad140

invoke.cont147:                                   ; preds = %invoke.cont141
  store i32 %call148, i32* %ref.tmp149, align 4
  %call151 = invoke zeroext i1 @_ZN5boost10test_tools9tt_detail10check_frwdINS1_15equal_impl_frwdEiiEEbT_RKNS_9unit_test12lazy_ostreamENS5_13basic_cstringIKcEEjNS1_10tool_levelENS1_10check_typeERKT0_PSA_RKT1_SH_(%"class.boost::unit_test::lazy_ostream"* %39, %"class.boost::unit_test::basic_cstring"* byval align 4 %agg.tmp139, i32 114, i32 1, i32 2, i32* %ref.tmp142, i8* getelementptr inbounds ([2 x i8]* @.str12, i32 0, i32 0), i32* %ref.tmp149, i8* getelementptr inbounds ([15 x i8]* @.str10, i32 0, i32 0))
          to label %invoke.cont150 unwind label %lpad140

invoke.cont150:                                   ; preds = %invoke.cont147
  invoke void @_ZN5boost9unit_test17lazy_ostream_implIRA1_KcED1Ev(%"class.boost::unit_test::lazy_ostream_impl"* %ref.tmp135)
          to label %invoke.cont152 unwind label %lpad129

invoke.cont152:                                   ; preds = %invoke.cont150
  br label %do.cond155

do.cond155:                                       ; preds = %invoke.cont152
  %44 = load i8* @_ZN5boost10test_tools12_GLOBAL__N_110dummy_condE, align 1
  %tobool156 = trunc i8 %44 to i1
  br i1 %tobool156, label %do.body127, label %do.end157

do.end157:                                        ; preds = %do.cond155
  %45 = bitcast %"class.std::basic_stringstream"* %ss to i8*
  %add.ptr158 = getelementptr inbounds i8* %45, i32 8
  %46 = bitcast i8* %add.ptr158 to %"class.std::basic_ostream"*
  invoke void @_ZSt12setprecisioni(%"struct.std::_Setprecision"* sret %agg.tmp159, i32 10)
          to label %invoke.cont160 unwind label %lpad129

invoke.cont160:                                   ; preds = %do.end157
  %call162 = invoke %"class.std::basic_ostream"* @_ZStlsIcSt11char_traitsIcEERSt13basic_ostreamIT_T0_ES6_St13_Setprecision(%"class.std::basic_ostream"* %46, %"struct.std::_Setprecision"* byval align 4 %agg.tmp159)
          to label %invoke.cont161 unwind label %lpad129

invoke.cont161:                                   ; preds = %invoke.cont160
  br label %do.body163

do.body163:                                       ; preds = %do.cond190, %invoke.cont161
  %47 = load %"class.boost::unit_test::unit_test_log_t"** @_ZN5boost9unit_test12_GLOBAL__N_113unit_test_logE, align 4
  invoke void @_ZN5boost9unit_test13basic_cstringIKcEC1EPS2_j(%"class.boost::unit_test::basic_cstring"* %agg.tmp164, i8* getelementptr inbounds ([24 x i8]* @.str, i32 0, i32 0), i32 23)
          to label %invoke.cont165 unwind label %lpad129

invoke.cont165:                                   ; preds = %do.body163
  invoke void @_ZN5boost9unit_test13basic_cstringIKcEC1Ev(%"class.boost::unit_test::basic_cstring"* %agg.tmp166)
          to label %invoke.cont167 unwind label %lpad129

invoke.cont167:                                   ; preds = %invoke.cont165
  invoke void @_ZN5boost9unit_test15unit_test_log_t14set_checkpointENS0_13basic_cstringIKcEEjS4_(%"class.boost::unit_test::unit_test_log_t"* %47, %"class.boost::unit_test::basic_cstring"* byval align 4 %agg.tmp164, i32 117, %"class.boost::unit_test::basic_cstring"* byval align 4 %agg.tmp166)
          to label %invoke.cont168 unwind label %lpad129

invoke.cont168:                                   ; preds = %invoke.cont167
  %call172 = invoke %"class.boost::unit_test::lazy_ostream"* @_ZN5boost9unit_test12lazy_ostream8instanceEv()
          to label %invoke.cont171 unwind label %lpad129

invoke.cont171:                                   ; preds = %invoke.cont168
  invoke void @_ZN5boost9unit_testlsIA1_cEENS0_17lazy_ostream_implIRKT_EERKNS0_12lazy_ostreamES6_(%"class.boost::unit_test::lazy_ostream_impl"* sret %ref.tmp170, %"class.boost::unit_test::lazy_ostream"* %call172, [1 x i8]* @.str3)
          to label %invoke.cont173 unwind label %lpad129

invoke.cont173:                                   ; preds = %invoke.cont171
  %48 = bitcast %"class.boost::unit_test::lazy_ostream_impl"* %ref.tmp170 to %"class.boost::unit_test::lazy_ostream"*
  invoke void @_ZN5boost9unit_test13basic_cstringIKcEC1EPS2_j(%"class.boost::unit_test::basic_cstring"* %agg.tmp174, i8* getelementptr inbounds ([24 x i8]* @.str, i32 0, i32 0), i32 23)
          to label %invoke.cont176 unwind label %lpad175

invoke.cont176:                                   ; preds = %invoke.cont173
  store i32 10, i32* %ref.tmp177, align 4
  %49 = bitcast %"class.std::basic_stringstream"* %ss to i8**
  %vtable178 = load i8** %49
  %vbase.offset.ptr179 = getelementptr i8* %vtable178, i64 -12
  %50 = bitcast i8* %vbase.offset.ptr179 to i32*
  %vbase.offset180 = load i32* %50
  %51 = bitcast %"class.std::basic_stringstream"* %ss to i8*
  %add.ptr181 = getelementptr inbounds i8* %51, i32 %vbase.offset180
  %52 = bitcast i8* %add.ptr181 to %"class.std::ios_base"*
  %call183 = invoke i32 @_ZNKSt8ios_base9precisionEv(%"class.std::ios_base"* %52)
          to label %invoke.cont182 unwind label %lpad175

invoke.cont182:                                   ; preds = %invoke.cont176
  store i32 %call183, i32* %ref.tmp184, align 4
  %call186 = invoke zeroext i1 @_ZN5boost10test_tools9tt_detail10check_frwdINS1_15equal_impl_frwdEiiEEbT_RKNS_9unit_test12lazy_ostreamENS5_13basic_cstringIKcEEjNS1_10tool_levelENS1_10check_typeERKT0_PSA_RKT1_SH_(%"class.boost::unit_test::lazy_ostream"* %48, %"class.boost::unit_test::basic_cstring"* byval align 4 %agg.tmp174, i32 117, i32 1, i32 2, i32* %ref.tmp177, i8* getelementptr inbounds ([3 x i8]* @.str13, i32 0, i32 0), i32* %ref.tmp184, i8* getelementptr inbounds ([15 x i8]* @.str10, i32 0, i32 0))
          to label %invoke.cont185 unwind label %lpad175

invoke.cont185:                                   ; preds = %invoke.cont182
  invoke void @_ZN5boost9unit_test17lazy_ostream_implIRA1_KcED1Ev(%"class.boost::unit_test::lazy_ostream_impl"* %ref.tmp170)
          to label %invoke.cont187 unwind label %lpad129

invoke.cont187:                                   ; preds = %invoke.cont185
  br label %do.cond190

do.cond190:                                       ; preds = %invoke.cont187
  %53 = load i8* @_ZN5boost10test_tools12_GLOBAL__N_110dummy_condE, align 1
  %tobool191 = trunc i8 %53 to i1
  br i1 %tobool191, label %do.body163, label %do.end192

do.end192:                                        ; preds = %do.cond190
  invoke void @_ZN5boost2io19ios_precision_saverD1Ev(%"class.boost::io::ios_precision_saver"* %ips120)
          to label %invoke.cont193 unwind label %lpad

invoke.cont193:                                   ; preds = %do.end192
  br label %do.body196

do.body196:                                       ; preds = %do.cond223, %invoke.cont193
  %54 = load %"class.boost::unit_test::unit_test_log_t"** @_ZN5boost9unit_test12_GLOBAL__N_113unit_test_logE, align 4
  invoke void @_ZN5boost9unit_test13basic_cstringIKcEC1EPS2_j(%"class.boost::unit_test::basic_cstring"* %agg.tmp197, i8* getelementptr inbounds ([24 x i8]* @.str, i32 0, i32 0), i32 23)
          to label %invoke.cont198 unwind label %lpad

invoke.cont198:                                   ; preds = %do.body196
  invoke void @_ZN5boost9unit_test13basic_cstringIKcEC1Ev(%"class.boost::unit_test::basic_cstring"* %agg.tmp199)
          to label %invoke.cont200 unwind label %lpad

invoke.cont200:                                   ; preds = %invoke.cont198
  invoke void @_ZN5boost9unit_test15unit_test_log_t14set_checkpointENS0_13basic_cstringIKcEEjS4_(%"class.boost::unit_test::unit_test_log_t"* %54, %"class.boost::unit_test::basic_cstring"* byval align 4 %agg.tmp197, i32 120, %"class.boost::unit_test::basic_cstring"* byval align 4 %agg.tmp199)
          to label %invoke.cont201 unwind label %lpad

invoke.cont201:                                   ; preds = %invoke.cont200
  %call205 = invoke %"class.boost::unit_test::lazy_ostream"* @_ZN5boost9unit_test12lazy_ostream8instanceEv()
          to label %invoke.cont204 unwind label %lpad

invoke.cont204:                                   ; preds = %invoke.cont201
  invoke void @_ZN5boost9unit_testlsIA1_cEENS0_17lazy_ostream_implIRKT_EERKNS0_12lazy_ostreamES6_(%"class.boost::unit_test::lazy_ostream_impl"* sret %ref.tmp203, %"class.boost::unit_test::lazy_ostream"* %call205, [1 x i8]* @.str3)
          to label %invoke.cont206 unwind label %lpad

invoke.cont206:                                   ; preds = %invoke.cont204
  %55 = bitcast %"class.boost::unit_test::lazy_ostream_impl"* %ref.tmp203 to %"class.boost::unit_test::lazy_ostream"*
  invoke void @_ZN5boost9unit_test13basic_cstringIKcEC1EPS2_j(%"class.boost::unit_test::basic_cstring"* %agg.tmp207, i8* getelementptr inbounds ([24 x i8]* @.str, i32 0, i32 0), i32 23)
          to label %invoke.cont209 unwind label %lpad208

invoke.cont209:                                   ; preds = %invoke.cont206
  store i32 6, i32* %ref.tmp210, align 4
  %56 = bitcast %"class.std::basic_stringstream"* %ss to i8**
  %vtable211 = load i8** %56
  %vbase.offset.ptr212 = getelementptr i8* %vtable211, i64 -12
  %57 = bitcast i8* %vbase.offset.ptr212 to i32*
  %vbase.offset213 = load i32* %57
  %58 = bitcast %"class.std::basic_stringstream"* %ss to i8*
  %add.ptr214 = getelementptr inbounds i8* %58, i32 %vbase.offset213
  %59 = bitcast i8* %add.ptr214 to %"class.std::ios_base"*
  %call216 = invoke i32 @_ZNKSt8ios_base9precisionEv(%"class.std::ios_base"* %59)
          to label %invoke.cont215 unwind label %lpad208

invoke.cont215:                                   ; preds = %invoke.cont209
  store i32 %call216, i32* %ref.tmp217, align 4
  %call219 = invoke zeroext i1 @_ZN5boost10test_tools9tt_detail10check_frwdINS1_15equal_impl_frwdEiiEEbT_RKNS_9unit_test12lazy_ostreamENS5_13basic_cstringIKcEEjNS1_10tool_levelENS1_10check_typeERKT0_PSA_RKT1_SH_(%"class.boost::unit_test::lazy_ostream"* %55, %"class.boost::unit_test::basic_cstring"* byval align 4 %agg.tmp207, i32 120, i32 1, i32 2, i32* %ref.tmp210, i8* getelementptr inbounds ([2 x i8]* @.str9, i32 0, i32 0), i32* %ref.tmp217, i8* getelementptr inbounds ([15 x i8]* @.str10, i32 0, i32 0))
          to label %invoke.cont218 unwind label %lpad208

invoke.cont218:                                   ; preds = %invoke.cont215
  invoke void @_ZN5boost9unit_test17lazy_ostream_implIRA1_KcED1Ev(%"class.boost::unit_test::lazy_ostream_impl"* %ref.tmp203)
          to label %invoke.cont220 unwind label %lpad

invoke.cont220:                                   ; preds = %invoke.cont218
  br label %do.cond223

do.cond223:                                       ; preds = %invoke.cont220
  %60 = load i8* @_ZN5boost10test_tools12_GLOBAL__N_110dummy_condE, align 1
  %tobool224 = trunc i8 %60 to i1
  br i1 %tobool224, label %do.body196, label %do.end225

do.end225:                                        ; preds = %do.cond223
  call void @_ZNSt18basic_stringstreamIcSt11char_traitsIcESaIcEED1Ev(%"class.std::basic_stringstream"* %ss)
  ret void

lpad:                                             ; preds = %invoke.cont218, %invoke.cont204, %invoke.cont201, %invoke.cont200, %invoke.cont198, %do.body196, %do.end192, %do.end119, %invoke.cont112, %invoke.cont98, %invoke.cont95, %invoke.cont94, %invoke.cont92, %do.body90, %do.end87, %do.end, %invoke.cont15, %invoke.cont5, %invoke.cont3, %invoke.cont2, %invoke.cont, %do.body
  %61 = landingpad { i8*, i32 } personality i8* bitcast (i32 (...)* @__gxx_personality_v0 to i8*)
          cleanup
  %62 = extractvalue { i8*, i32 } %61, 0
  store i8* %62, i8** %exn.slot
  %63 = extractvalue { i8*, i32 } %61, 1
  store i32 %63, i32* %ehselector.slot
  br label %ehcleanup226

lpad9:                                            ; preds = %invoke.cont12, %invoke.cont10, %invoke.cont7
  %64 = landingpad { i8*, i32 } personality i8* bitcast (i32 (...)* @__gxx_personality_v0 to i8*)
          cleanup
  %65 = extractvalue { i8*, i32 } %64, 0
  store i8* %65, i8** %exn.slot
  %66 = extractvalue { i8*, i32 } %64, 1
  store i32 %66, i32* %ehselector.slot
  invoke void @_ZN5boost9unit_test17lazy_ostream_implIRA1_KcED1Ev(%"class.boost::unit_test::lazy_ostream_impl"* %ref.tmp)
          to label %invoke.cont18 unwind label %terminate.lpad

invoke.cont18:                                    ; preds = %lpad9
  br label %ehcleanup226

lpad26:                                           ; preds = %invoke.cont81, %invoke.cont67, %invoke.cont64, %invoke.cont63, %invoke.cont61, %do.body59, %invoke.cont56, %do.end53, %invoke.cont47, %invoke.cont33, %invoke.cont30, %invoke.cont29, %invoke.cont27, %do.body24
  %67 = landingpad { i8*, i32 } personality i8* bitcast (i32 (...)* @__gxx_personality_v0 to i8*)
          cleanup
  %68 = extractvalue { i8*, i32 } %67, 0
  store i8* %68, i8** %exn.slot
  %69 = extractvalue { i8*, i32 } %67, 1
  store i32 %69, i32* %ehselector.slot
  br label %ehcleanup

lpad37:                                           ; preds = %invoke.cont44, %invoke.cont38, %invoke.cont35
  %70 = landingpad { i8*, i32 } personality i8* bitcast (i32 (...)* @__gxx_personality_v0 to i8*)
          cleanup
  %71 = extractvalue { i8*, i32 } %70, 0
  store i8* %71, i8** %exn.slot
  %72 = extractvalue { i8*, i32 } %70, 1
  store i32 %72, i32* %ehselector.slot
  invoke void @_ZN5boost9unit_test17lazy_ostream_implIRA1_KcED1Ev(%"class.boost::unit_test::lazy_ostream_impl"* %ref.tmp32)
          to label %invoke.cont50 unwind label %terminate.lpad

invoke.cont50:                                    ; preds = %lpad37
  br label %ehcleanup

lpad71:                                           ; preds = %invoke.cont78, %invoke.cont72, %invoke.cont69
  %73 = landingpad { i8*, i32 } personality i8* bitcast (i32 (...)* @__gxx_personality_v0 to i8*)
          cleanup
  %74 = extractvalue { i8*, i32 } %73, 0
  store i8* %74, i8** %exn.slot
  %75 = extractvalue { i8*, i32 } %73, 1
  store i32 %75, i32* %ehselector.slot
  invoke void @_ZN5boost9unit_test17lazy_ostream_implIRA1_KcED1Ev(%"class.boost::unit_test::lazy_ostream_impl"* %ref.tmp66)
          to label %invoke.cont84 unwind label %terminate.lpad

invoke.cont84:                                    ; preds = %lpad71
  br label %ehcleanup

ehcleanup:                                        ; preds = %invoke.cont84, %invoke.cont50, %lpad26
  invoke void @_ZN5boost2io19ios_precision_saverD1Ev(%"class.boost::io::ios_precision_saver"* %ips)
          to label %invoke.cont89 unwind label %terminate.lpad

invoke.cont89:                                    ; preds = %ehcleanup
  br label %ehcleanup226

lpad102:                                          ; preds = %invoke.cont109, %invoke.cont103, %invoke.cont100
  %76 = landingpad { i8*, i32 } personality i8* bitcast (i32 (...)* @__gxx_personality_v0 to i8*)
          cleanup
  %77 = extractvalue { i8*, i32 } %76, 0
  store i8* %77, i8** %exn.slot
  %78 = extractvalue { i8*, i32 } %76, 1
  store i32 %78, i32* %ehselector.slot
  invoke void @_ZN5boost9unit_test17lazy_ostream_implIRA1_KcED1Ev(%"class.boost::unit_test::lazy_ostream_impl"* %ref.tmp97)
          to label %invoke.cont116 unwind label %terminate.lpad

invoke.cont116:                                   ; preds = %lpad102
  br label %ehcleanup226

lpad129:                                          ; preds = %invoke.cont185, %invoke.cont171, %invoke.cont168, %invoke.cont167, %invoke.cont165, %do.body163, %invoke.cont160, %do.end157, %invoke.cont150, %invoke.cont136, %invoke.cont133, %invoke.cont132, %invoke.cont130, %do.body127
  %79 = landingpad { i8*, i32 } personality i8* bitcast (i32 (...)* @__gxx_personality_v0 to i8*)
          cleanup
  %80 = extractvalue { i8*, i32 } %79, 0
  store i8* %80, i8** %exn.slot
  %81 = extractvalue { i8*, i32 } %79, 1
  store i32 %81, i32* %ehselector.slot
  br label %ehcleanup194

lpad140:                                          ; preds = %invoke.cont147, %invoke.cont141, %invoke.cont138
  %82 = landingpad { i8*, i32 } personality i8* bitcast (i32 (...)* @__gxx_personality_v0 to i8*)
          cleanup
  %83 = extractvalue { i8*, i32 } %82, 0
  store i8* %83, i8** %exn.slot
  %84 = extractvalue { i8*, i32 } %82, 1
  store i32 %84, i32* %ehselector.slot
  invoke void @_ZN5boost9unit_test17lazy_ostream_implIRA1_KcED1Ev(%"class.boost::unit_test::lazy_ostream_impl"* %ref.tmp135)
          to label %invoke.cont154 unwind label %terminate.lpad

invoke.cont154:                                   ; preds = %lpad140
  br label %ehcleanup194

lpad175:                                          ; preds = %invoke.cont182, %invoke.cont176, %invoke.cont173
  %85 = landingpad { i8*, i32 } personality i8* bitcast (i32 (...)* @__gxx_personality_v0 to i8*)
          cleanup
  %86 = extractvalue { i8*, i32 } %85, 0
  store i8* %86, i8** %exn.slot
  %87 = extractvalue { i8*, i32 } %85, 1
  store i32 %87, i32* %ehselector.slot
  invoke void @_ZN5boost9unit_test17lazy_ostream_implIRA1_KcED1Ev(%"class.boost::unit_test::lazy_ostream_impl"* %ref.tmp170)
          to label %invoke.cont189 unwind label %terminate.lpad

invoke.cont189:                                   ; preds = %lpad175
  br label %ehcleanup194

ehcleanup194:                                     ; preds = %invoke.cont189, %invoke.cont154, %lpad129
  invoke void @_ZN5boost2io19ios_precision_saverD1Ev(%"class.boost::io::ios_precision_saver"* %ips120)
          to label %invoke.cont195 unwind label %terminate.lpad

invoke.cont195:                                   ; preds = %ehcleanup194
  br label %ehcleanup226

lpad208:                                          ; preds = %invoke.cont215, %invoke.cont209, %invoke.cont206
  %88 = landingpad { i8*, i32 } personality i8* bitcast (i32 (...)* @__gxx_personality_v0 to i8*)
          cleanup
  %89 = extractvalue { i8*, i32 } %88, 0
  store i8* %89, i8** %exn.slot
  %90 = extractvalue { i8*, i32 } %88, 1
  store i32 %90, i32* %ehselector.slot
  invoke void @_ZN5boost9unit_test17lazy_ostream_implIRA1_KcED1Ev(%"class.boost::unit_test::lazy_ostream_impl"* %ref.tmp203)
          to label %invoke.cont222 unwind label %terminate.lpad

invoke.cont222:                                   ; preds = %lpad208
  br label %ehcleanup226

ehcleanup226:                                     ; preds = %invoke.cont222, %invoke.cont195, %invoke.cont116, %invoke.cont89, %invoke.cont18, %lpad
  invoke void @_ZNSt18basic_stringstreamIcSt11char_traitsIcESaIcEED1Ev(%"class.std::basic_stringstream"* %ss)
          to label %invoke.cont227 unwind label %terminate.lpad

invoke.cont227:                                   ; preds = %ehcleanup226
  br label %eh.resume

eh.resume:                                        ; preds = %invoke.cont227
  %exn = load i8** %exn.slot
  %sel = load i32* %ehselector.slot
  %lpad.val = insertvalue { i8*, i32 } undef, i8* %exn, 0
  %lpad.val228 = insertvalue { i8*, i32 } %lpad.val, i32 %sel, 1
  resume { i8*, i32 } %lpad.val228

terminate.lpad:                                   ; preds = %ehcleanup226, %lpad208, %ehcleanup194, %lpad175, %lpad140, %lpad102, %ehcleanup, %lpad71, %lpad37, %lpad9
  %91 = landingpad { i8*, i32 } personality i8* bitcast (i32 (...)* @__gxx_personality_v0 to i8*)
          catch i8* null
  call void @_ZSt9terminatev() noreturn nounwind
  unreachable
}

define linkonce_odr zeroext i1 @_ZN5boost10test_tools9tt_detail10check_frwdINS1_15equal_impl_frwdEiiEEbT_RKNS_9unit_test12lazy_ostreamENS5_13basic_cstringIKcEEjNS1_10tool_levelENS1_10check_typeERKT0_PSA_RKT1_SH_(%"class.boost::unit_test::lazy_ostream"* %check_descr, %"class.boost::unit_test::basic_cstring"* byval align 4 %file_name, i32 %line_num, i32 %tl, i32 %ct, i32* %arg0, i8* %arg0_descr, i32* %arg1, i8* %arg1_descr) inlinehint {
entry:
  %P = alloca %"struct.boost::test_tools::tt_detail::equal_impl_frwd", align 1
  %check_descr.addr = alloca %"class.boost::unit_test::lazy_ostream"*, align 4
  %line_num.addr = alloca i32, align 4
  %tl.addr = alloca i32, align 4
  %ct.addr = alloca i32, align 4
  %arg0.addr = alloca i32*, align 4
  %arg0_descr.addr = alloca i8*, align 4
  %arg1.addr = alloca i32*, align 4
  %arg1_descr.addr = alloca i8*, align 4
  %ref.tmp = alloca %"class.boost::test_tools::predicate_result", align 4
  %agg.tmp = alloca %"class.boost::unit_test::basic_cstring", align 4
  %ref.tmp1 = alloca %"class.boost::unit_test::lazy_ostream_impl.33", align 4
  %exn.slot = alloca i8*
  %ehselector.slot = alloca i32
  %ref.tmp2 = alloca %"struct.boost::test_tools::tt_detail::print_helper_t.34", align 4
  %ref.tmp5 = alloca %"class.boost::unit_test::lazy_ostream_impl.33", align 4
  %ref.tmp9 = alloca %"struct.boost::test_tools::tt_detail::print_helper_t.34", align 4
  store %"class.boost::unit_test::lazy_ostream"* %check_descr, %"class.boost::unit_test::lazy_ostream"** %check_descr.addr, align 4
  store i32 %line_num, i32* %line_num.addr, align 4
  store i32 %tl, i32* %tl.addr, align 4
  store i32 %ct, i32* %ct.addr, align 4
  store i32* %arg0, i32** %arg0.addr, align 4
  store i8* %arg0_descr, i8** %arg0_descr.addr, align 4
  store i32* %arg1, i32** %arg1.addr, align 4
  store i8* %arg1_descr, i8** %arg1_descr.addr, align 4
  %0 = load i32** %arg0.addr, align 4
  %1 = load i32** %arg1.addr, align 4
  call void @_ZNK5boost10test_tools9tt_detail15equal_impl_frwdclIiiEENS0_16predicate_resultERKT_RKT0_(%"class.boost::test_tools::predicate_result"* sret %ref.tmp, %"struct.boost::test_tools::tt_detail::equal_impl_frwd"* %P, i32* %0, i32* %1)
  %2 = load %"class.boost::unit_test::lazy_ostream"** %check_descr.addr, align 4
  %3 = bitcast %"class.boost::unit_test::basic_cstring"* %agg.tmp to i8*
  %4 = bitcast %"class.boost::unit_test::basic_cstring"* %file_name to i8*
  call void @llvm.memcpy.p0i8.p0i8.i32(i8* %3, i8* %4, i32 8, i32 4, i1 false)
  %5 = load i32* %line_num.addr, align 4
  %6 = load i32* %tl.addr, align 4
  %7 = load i32* %ct.addr, align 4
  %8 = load i8** %arg0_descr.addr, align 4
  %call = invoke %"class.boost::unit_test::lazy_ostream"* @_ZN5boost9unit_test12lazy_ostream8instanceEv()
          to label %invoke.cont unwind label %lpad

invoke.cont:                                      ; preds = %entry
  %9 = load i32** %arg0.addr, align 4
  invoke void @_ZN5boost10test_tools9tt_detail12print_helperIiEENS1_14print_helper_tIT_EERKS4_(%"struct.boost::test_tools::tt_detail::print_helper_t.34"* sret %ref.tmp2, i32* %9)
          to label %invoke.cont3 unwind label %lpad

invoke.cont3:                                     ; preds = %invoke.cont
  invoke void @_ZN5boost9unit_testlsINS_10test_tools9tt_detail14print_helper_tIiEEEENS0_17lazy_ostream_implIRKT_EERKNS0_12lazy_ostreamES9_(%"class.boost::unit_test::lazy_ostream_impl.33"* sret %ref.tmp1, %"class.boost::unit_test::lazy_ostream"* %call, %"struct.boost::test_tools::tt_detail::print_helper_t.34"* %ref.tmp2)
          to label %invoke.cont4 unwind label %lpad

invoke.cont4:                                     ; preds = %invoke.cont3
  %10 = bitcast %"class.boost::unit_test::lazy_ostream_impl.33"* %ref.tmp1 to %"class.boost::unit_test::lazy_ostream"*
  %11 = load i8** %arg1_descr.addr, align 4
  %call8 = invoke %"class.boost::unit_test::lazy_ostream"* @_ZN5boost9unit_test12lazy_ostream8instanceEv()
          to label %invoke.cont7 unwind label %lpad6

invoke.cont7:                                     ; preds = %invoke.cont4
  %12 = load i32** %arg1.addr, align 4
  invoke void @_ZN5boost10test_tools9tt_detail12print_helperIiEENS1_14print_helper_tIT_EERKS4_(%"struct.boost::test_tools::tt_detail::print_helper_t.34"* sret %ref.tmp9, i32* %12)
          to label %invoke.cont10 unwind label %lpad6

invoke.cont10:                                    ; preds = %invoke.cont7
  invoke void @_ZN5boost9unit_testlsINS_10test_tools9tt_detail14print_helper_tIiEEEENS0_17lazy_ostream_implIRKT_EERKNS0_12lazy_ostreamES9_(%"class.boost::unit_test::lazy_ostream_impl.33"* sret %ref.tmp5, %"class.boost::unit_test::lazy_ostream"* %call8, %"struct.boost::test_tools::tt_detail::print_helper_t.34"* %ref.tmp9)
          to label %invoke.cont11 unwind label %lpad6

invoke.cont11:                                    ; preds = %invoke.cont10
  %13 = bitcast %"class.boost::unit_test::lazy_ostream_impl.33"* %ref.tmp5 to %"class.boost::unit_test::lazy_ostream"*
  %call14 = invoke zeroext i1 (%"class.boost::test_tools::predicate_result"*, %"class.boost::unit_test::lazy_ostream"*, %"class.boost::unit_test::basic_cstring"*, i32, i32, i32, i32, ...)* @_ZN5boost10test_tools9tt_detail10check_implERKNS0_16predicate_resultERKNS_9unit_test12lazy_ostreamENS5_13basic_cstringIKcEEjNS1_10tool_levelENS1_10check_typeEjz(%"class.boost::test_tools::predicate_result"* %ref.tmp, %"class.boost::unit_test::lazy_ostream"* %2, %"class.boost::unit_test::basic_cstring"* byval align 4 %agg.tmp, i32 %5, i32 %6, i32 %7, i32 2, i8* %8, %"class.boost::unit_test::lazy_ostream"* %10, i8* %11, %"class.boost::unit_test::lazy_ostream"* %13)
          to label %invoke.cont13 unwind label %lpad12

invoke.cont13:                                    ; preds = %invoke.cont11
  invoke void @_ZN5boost9unit_test17lazy_ostream_implIRKNS_10test_tools9tt_detail14print_helper_tIiEEED1Ev(%"class.boost::unit_test::lazy_ostream_impl.33"* %ref.tmp5)
          to label %invoke.cont15 unwind label %lpad6

invoke.cont15:                                    ; preds = %invoke.cont13
  invoke void @_ZN5boost9unit_test17lazy_ostream_implIRKNS_10test_tools9tt_detail14print_helper_tIiEEED1Ev(%"class.boost::unit_test::lazy_ostream_impl.33"* %ref.tmp1)
          to label %invoke.cont17 unwind label %lpad

invoke.cont17:                                    ; preds = %invoke.cont15
  call void @_ZN5boost10test_tools16predicate_resultD1Ev(%"class.boost::test_tools::predicate_result"* %ref.tmp)
  ret i1 %call14

lpad:                                             ; preds = %invoke.cont15, %invoke.cont3, %invoke.cont, %entry
  %14 = landingpad { i8*, i32 } personality i8* bitcast (i32 (...)* @__gxx_personality_v0 to i8*)
          cleanup
  %15 = extractvalue { i8*, i32 } %14, 0
  store i8* %15, i8** %exn.slot
  %16 = extractvalue { i8*, i32 } %14, 1
  store i32 %16, i32* %ehselector.slot
  br label %ehcleanup19

lpad6:                                            ; preds = %invoke.cont13, %invoke.cont10, %invoke.cont7, %invoke.cont4
  %17 = landingpad { i8*, i32 } personality i8* bitcast (i32 (...)* @__gxx_personality_v0 to i8*)
          cleanup
  %18 = extractvalue { i8*, i32 } %17, 0
  store i8* %18, i8** %exn.slot
  %19 = extractvalue { i8*, i32 } %17, 1
  store i32 %19, i32* %ehselector.slot
  br label %ehcleanup

lpad12:                                           ; preds = %invoke.cont11
  %20 = landingpad { i8*, i32 } personality i8* bitcast (i32 (...)* @__gxx_personality_v0 to i8*)
          cleanup
  %21 = extractvalue { i8*, i32 } %20, 0
  store i8* %21, i8** %exn.slot
  %22 = extractvalue { i8*, i32 } %20, 1
  store i32 %22, i32* %ehselector.slot
  invoke void @_ZN5boost9unit_test17lazy_ostream_implIRKNS_10test_tools9tt_detail14print_helper_tIiEEED1Ev(%"class.boost::unit_test::lazy_ostream_impl.33"* %ref.tmp5)
          to label %invoke.cont16 unwind label %terminate.lpad

invoke.cont16:                                    ; preds = %lpad12
  br label %ehcleanup

ehcleanup:                                        ; preds = %invoke.cont16, %lpad6
  invoke void @_ZN5boost9unit_test17lazy_ostream_implIRKNS_10test_tools9tt_detail14print_helper_tIiEEED1Ev(%"class.boost::unit_test::lazy_ostream_impl.33"* %ref.tmp1)
          to label %invoke.cont18 unwind label %terminate.lpad

invoke.cont18:                                    ; preds = %ehcleanup
  br label %ehcleanup19

ehcleanup19:                                      ; preds = %invoke.cont18, %lpad
  invoke void @_ZN5boost10test_tools16predicate_resultD1Ev(%"class.boost::test_tools::predicate_result"* %ref.tmp)
          to label %invoke.cont20 unwind label %terminate.lpad

invoke.cont20:                                    ; preds = %ehcleanup19
  br label %eh.resume

eh.resume:                                        ; preds = %invoke.cont20
  %exn = load i8** %exn.slot
  %sel = load i32* %ehselector.slot
  %lpad.val = insertvalue { i8*, i32 } undef, i8* %exn, 0
  %lpad.val21 = insertvalue { i8*, i32 } %lpad.val, i32 %sel, 1
  resume { i8*, i32 } %lpad.val21

terminate.lpad:                                   ; preds = %ehcleanup19, %ehcleanup, %lpad12
  %23 = landingpad { i8*, i32 } personality i8* bitcast (i32 (...)* @__gxx_personality_v0 to i8*)
          catch i8* null
  call void @_ZSt9terminatev() noreturn nounwind
  unreachable
}

define linkonce_odr i32 @_ZNKSt8ios_base9precisionEv(%"class.std::ios_base"* %this) nounwind align 2 {
entry:
  %this.addr = alloca %"class.std::ios_base"*, align 4
  store %"class.std::ios_base"* %this, %"class.std::ios_base"** %this.addr, align 4
  %this1 = load %"class.std::ios_base"** %this.addr
  %_M_precision = getelementptr inbounds %"class.std::ios_base"* %this1, i32 0, i32 1
  %0 = load i32* %_M_precision, align 4
  ret i32 %0
}

define linkonce_odr void @_ZN5boost2io19ios_precision_saverC1ERSt8ios_base(%"class.boost::io::ios_precision_saver"* %this, %"class.std::ios_base"* %s) unnamed_addr align 2 {
entry:
  %this.addr = alloca %"class.boost::io::ios_precision_saver"*, align 4
  %s.addr = alloca %"class.std::ios_base"*, align 4
  store %"class.boost::io::ios_precision_saver"* %this, %"class.boost::io::ios_precision_saver"** %this.addr, align 4
  store %"class.std::ios_base"* %s, %"class.std::ios_base"** %s.addr, align 4
  %this1 = load %"class.boost::io::ios_precision_saver"** %this.addr
  %0 = load %"class.std::ios_base"** %s.addr
  call void @_ZN5boost2io19ios_precision_saverC2ERSt8ios_base(%"class.boost::io::ios_precision_saver"* %this1, %"class.std::ios_base"* %0)
  ret void
}

declare %"class.std::basic_ostream"* @_ZStlsIcSt11char_traitsIcEERSt13basic_ostreamIT_T0_ES6_St13_Setprecision(%"class.std::basic_ostream"*, %"struct.std::_Setprecision"* byval align 4)

define linkonce_odr void @_ZSt12setprecisioni(%"struct.std::_Setprecision"* noalias sret %agg.result, i32 %__n) nounwind inlinehint {
entry:
  %__n.addr = alloca i32, align 4
  store i32 %__n, i32* %__n.addr, align 4
  %_M_n = getelementptr inbounds %"struct.std::_Setprecision"* %agg.result, i32 0, i32 0
  %0 = load i32* %__n.addr, align 4
  store i32 %0, i32* %_M_n, align 4
  ret void
}

define linkonce_odr void @_ZN5boost2io19ios_precision_saverD1Ev(%"class.boost::io::ios_precision_saver"* %this) unnamed_addr align 2 {
entry:
  %this.addr = alloca %"class.boost::io::ios_precision_saver"*, align 4
  store %"class.boost::io::ios_precision_saver"* %this, %"class.boost::io::ios_precision_saver"** %this.addr, align 4
  %this1 = load %"class.boost::io::ios_precision_saver"** %this.addr
  call void @_ZN5boost2io19ios_precision_saverD2Ev(%"class.boost::io::ios_precision_saver"* %this1)
  ret void
}

define linkonce_odr void @_ZN5boost2io19ios_precision_saverC1ERSt8ios_baseRKi(%"class.boost::io::ios_precision_saver"* %this, %"class.std::ios_base"* %s, i32* %a) unnamed_addr align 2 {
entry:
  %this.addr = alloca %"class.boost::io::ios_precision_saver"*, align 4
  %s.addr = alloca %"class.std::ios_base"*, align 4
  %a.addr = alloca i32*, align 4
  store %"class.boost::io::ios_precision_saver"* %this, %"class.boost::io::ios_precision_saver"** %this.addr, align 4
  store %"class.std::ios_base"* %s, %"class.std::ios_base"** %s.addr, align 4
  store i32* %a, i32** %a.addr, align 4
  %this1 = load %"class.boost::io::ios_precision_saver"** %this.addr
  %0 = load i32** %a.addr
  %1 = load %"class.std::ios_base"** %s.addr
  call void @_ZN5boost2io19ios_precision_saverC2ERSt8ios_baseRKi(%"class.boost::io::ios_precision_saver"* %this1, %"class.std::ios_base"* %1, i32* %0)
  ret void
}

define void @_Z25ios_width_saver_unit_testv() {
entry:
  %ss = alloca %"class.std::basic_stringstream", align 4
  %agg.tmp = alloca %"class.boost::unit_test::basic_cstring", align 4
  %exn.slot = alloca i8*
  %ehselector.slot = alloca i32
  %agg.tmp1 = alloca %"class.boost::unit_test::basic_cstring", align 4
  %agg.tmp4 = alloca %"struct.boost::test_tools::tt_detail::equal_impl_frwd", align 1
  %ref.tmp = alloca %"class.boost::unit_test::lazy_ostream_impl", align 4
  %agg.tmp8 = alloca %"class.boost::unit_test::basic_cstring", align 4
  %ref.tmp11 = alloca i32, align 4
  %ref.tmp14 = alloca i32, align 4
  %iws = alloca %"class.boost::io::ios_width_saver", align 4
  %agg.tmp25 = alloca %"class.boost::unit_test::basic_cstring", align 4
  %agg.tmp28 = alloca %"class.boost::unit_test::basic_cstring", align 4
  %agg.tmp31 = alloca %"struct.boost::test_tools::tt_detail::equal_impl_frwd", align 1
  %ref.tmp32 = alloca %"class.boost::unit_test::lazy_ostream_impl", align 4
  %agg.tmp36 = alloca %"class.boost::unit_test::basic_cstring", align 4
  %ref.tmp39 = alloca i32, align 4
  %ref.tmp46 = alloca i32, align 4
  %agg.tmp55 = alloca %"struct.std::_Setw", align 4
  %agg.tmp60 = alloca %"class.boost::unit_test::basic_cstring", align 4
  %agg.tmp62 = alloca %"class.boost::unit_test::basic_cstring", align 4
  %agg.tmp65 = alloca %"struct.boost::test_tools::tt_detail::equal_impl_frwd", align 1
  %ref.tmp66 = alloca %"class.boost::unit_test::lazy_ostream_impl", align 4
  %agg.tmp70 = alloca %"class.boost::unit_test::basic_cstring", align 4
  %ref.tmp73 = alloca i32, align 4
  %ref.tmp80 = alloca i32, align 4
  %agg.tmp91 = alloca %"class.boost::unit_test::basic_cstring", align 4
  %agg.tmp93 = alloca %"class.boost::unit_test::basic_cstring", align 4
  %agg.tmp96 = alloca %"struct.boost::test_tools::tt_detail::equal_impl_frwd", align 1
  %ref.tmp97 = alloca %"class.boost::unit_test::lazy_ostream_impl", align 4
  %agg.tmp101 = alloca %"class.boost::unit_test::basic_cstring", align 4
  %ref.tmp104 = alloca i32, align 4
  %ref.tmp111 = alloca i32, align 4
  %iws120 = alloca %"class.boost::io::ios_width_saver", align 4
  %ref.tmp125 = alloca i32, align 4
  %agg.tmp128 = alloca %"class.boost::unit_test::basic_cstring", align 4
  %agg.tmp131 = alloca %"class.boost::unit_test::basic_cstring", align 4
  %agg.tmp134 = alloca %"struct.boost::test_tools::tt_detail::equal_impl_frwd", align 1
  %ref.tmp135 = alloca %"class.boost::unit_test::lazy_ostream_impl", align 4
  %agg.tmp139 = alloca %"class.boost::unit_test::basic_cstring", align 4
  %ref.tmp142 = alloca i32, align 4
  %ref.tmp149 = alloca i32, align 4
  %agg.tmp159 = alloca %"struct.std::_Setw", align 4
  %agg.tmp164 = alloca %"class.boost::unit_test::basic_cstring", align 4
  %agg.tmp166 = alloca %"class.boost::unit_test::basic_cstring", align 4
  %agg.tmp169 = alloca %"struct.boost::test_tools::tt_detail::equal_impl_frwd", align 1
  %ref.tmp170 = alloca %"class.boost::unit_test::lazy_ostream_impl", align 4
  %agg.tmp174 = alloca %"class.boost::unit_test::basic_cstring", align 4
  %ref.tmp177 = alloca i32, align 4
  %ref.tmp184 = alloca i32, align 4
  %agg.tmp197 = alloca %"class.boost::unit_test::basic_cstring", align 4
  %agg.tmp199 = alloca %"class.boost::unit_test::basic_cstring", align 4
  %agg.tmp202 = alloca %"struct.boost::test_tools::tt_detail::equal_impl_frwd", align 1
  %ref.tmp203 = alloca %"class.boost::unit_test::lazy_ostream_impl", align 4
  %agg.tmp207 = alloca %"class.boost::unit_test::basic_cstring", align 4
  %ref.tmp210 = alloca i32, align 4
  %ref.tmp217 = alloca i32, align 4
  %call = call i32 @_ZStorSt13_Ios_OpenmodeS_(i32 16, i32 8)
  call void @_ZNSt18basic_stringstreamIcSt11char_traitsIcESaIcEEC1ESt13_Ios_Openmode(%"class.std::basic_stringstream"* %ss, i32 %call)
  br label %do.body

do.body:                                          ; preds = %do.cond, %entry
  %0 = load %"class.boost::unit_test::unit_test_log_t"** @_ZN5boost9unit_test12_GLOBAL__N_113unit_test_logE, align 4
  invoke void @_ZN5boost9unit_test13basic_cstringIKcEC1EPS2_j(%"class.boost::unit_test::basic_cstring"* %agg.tmp, i8* getelementptr inbounds ([24 x i8]* @.str, i32 0, i32 0), i32 23)
          to label %invoke.cont unwind label %lpad

invoke.cont:                                      ; preds = %do.body
  invoke void @_ZN5boost9unit_test13basic_cstringIKcEC1Ev(%"class.boost::unit_test::basic_cstring"* %agg.tmp1)
          to label %invoke.cont2 unwind label %lpad

invoke.cont2:                                     ; preds = %invoke.cont
  invoke void @_ZN5boost9unit_test15unit_test_log_t14set_checkpointENS0_13basic_cstringIKcEEjS4_(%"class.boost::unit_test::unit_test_log_t"* %0, %"class.boost::unit_test::basic_cstring"* byval align 4 %agg.tmp, i32 133, %"class.boost::unit_test::basic_cstring"* byval align 4 %agg.tmp1)
          to label %invoke.cont3 unwind label %lpad

invoke.cont3:                                     ; preds = %invoke.cont2
  %call6 = invoke %"class.boost::unit_test::lazy_ostream"* @_ZN5boost9unit_test12lazy_ostream8instanceEv()
          to label %invoke.cont5 unwind label %lpad

invoke.cont5:                                     ; preds = %invoke.cont3
  invoke void @_ZN5boost9unit_testlsIA1_cEENS0_17lazy_ostream_implIRKT_EERKNS0_12lazy_ostreamES6_(%"class.boost::unit_test::lazy_ostream_impl"* sret %ref.tmp, %"class.boost::unit_test::lazy_ostream"* %call6, [1 x i8]* @.str3)
          to label %invoke.cont7 unwind label %lpad

invoke.cont7:                                     ; preds = %invoke.cont5
  %1 = bitcast %"class.boost::unit_test::lazy_ostream_impl"* %ref.tmp to %"class.boost::unit_test::lazy_ostream"*
  invoke void @_ZN5boost9unit_test13basic_cstringIKcEC1EPS2_j(%"class.boost::unit_test::basic_cstring"* %agg.tmp8, i8* getelementptr inbounds ([24 x i8]* @.str, i32 0, i32 0), i32 23)
          to label %invoke.cont10 unwind label %lpad9

invoke.cont10:                                    ; preds = %invoke.cont7
  store i32 0, i32* %ref.tmp11, align 4
  %2 = bitcast %"class.std::basic_stringstream"* %ss to i8**
  %vtable = load i8** %2
  %vbase.offset.ptr = getelementptr i8* %vtable, i64 -12
  %3 = bitcast i8* %vbase.offset.ptr to i32*
  %vbase.offset = load i32* %3
  %4 = bitcast %"class.std::basic_stringstream"* %ss to i8*
  %add.ptr = getelementptr inbounds i8* %4, i32 %vbase.offset
  %5 = bitcast i8* %add.ptr to %"class.std::ios_base"*
  %call13 = invoke i32 @_ZNKSt8ios_base5widthEv(%"class.std::ios_base"* %5)
          to label %invoke.cont12 unwind label %lpad9

invoke.cont12:                                    ; preds = %invoke.cont10
  store i32 %call13, i32* %ref.tmp14, align 4
  %call16 = invoke zeroext i1 @_ZN5boost10test_tools9tt_detail10check_frwdINS1_15equal_impl_frwdEiiEEbT_RKNS_9unit_test12lazy_ostreamENS5_13basic_cstringIKcEEjNS1_10tool_levelENS1_10check_typeERKT0_PSA_RKT1_SH_(%"class.boost::unit_test::lazy_ostream"* %1, %"class.boost::unit_test::basic_cstring"* byval align 4 %agg.tmp8, i32 133, i32 1, i32 2, i32* %ref.tmp11, i8* getelementptr inbounds ([2 x i8]* @.str14, i32 0, i32 0), i32* %ref.tmp14, i8* getelementptr inbounds ([11 x i8]* @.str15, i32 0, i32 0))
          to label %invoke.cont15 unwind label %lpad9

invoke.cont15:                                    ; preds = %invoke.cont12
  invoke void @_ZN5boost9unit_test17lazy_ostream_implIRA1_KcED1Ev(%"class.boost::unit_test::lazy_ostream_impl"* %ref.tmp)
          to label %invoke.cont17 unwind label %lpad

invoke.cont17:                                    ; preds = %invoke.cont15
  br label %do.cond

do.cond:                                          ; preds = %invoke.cont17
  %6 = load i8* @_ZN5boost10test_tools12_GLOBAL__N_110dummy_condE, align 1
  %tobool = trunc i8 %6 to i1
  br i1 %tobool, label %do.body, label %do.end

do.end:                                           ; preds = %do.cond
  %7 = bitcast %"class.std::basic_stringstream"* %ss to i8**
  %vtable19 = load i8** %7
  %vbase.offset.ptr20 = getelementptr i8* %vtable19, i64 -12
  %8 = bitcast i8* %vbase.offset.ptr20 to i32*
  %vbase.offset21 = load i32* %8
  %9 = bitcast %"class.std::basic_stringstream"* %ss to i8*
  %add.ptr22 = getelementptr inbounds i8* %9, i32 %vbase.offset21
  %10 = bitcast i8* %add.ptr22 to %"class.std::ios_base"*
  invoke void @_ZN5boost2io15ios_width_saverC1ERSt8ios_base(%"class.boost::io::ios_width_saver"* %iws, %"class.std::ios_base"* %10)
          to label %invoke.cont23 unwind label %lpad

invoke.cont23:                                    ; preds = %do.end
  br label %do.body24

do.body24:                                        ; preds = %do.cond51, %invoke.cont23
  %11 = load %"class.boost::unit_test::unit_test_log_t"** @_ZN5boost9unit_test12_GLOBAL__N_113unit_test_logE, align 4
  invoke void @_ZN5boost9unit_test13basic_cstringIKcEC1EPS2_j(%"class.boost::unit_test::basic_cstring"* %agg.tmp25, i8* getelementptr inbounds ([24 x i8]* @.str, i32 0, i32 0), i32 23)
          to label %invoke.cont27 unwind label %lpad26

invoke.cont27:                                    ; preds = %do.body24
  invoke void @_ZN5boost9unit_test13basic_cstringIKcEC1Ev(%"class.boost::unit_test::basic_cstring"* %agg.tmp28)
          to label %invoke.cont29 unwind label %lpad26

invoke.cont29:                                    ; preds = %invoke.cont27
  invoke void @_ZN5boost9unit_test15unit_test_log_t14set_checkpointENS0_13basic_cstringIKcEEjS4_(%"class.boost::unit_test::unit_test_log_t"* %11, %"class.boost::unit_test::basic_cstring"* byval align 4 %agg.tmp25, i32 138, %"class.boost::unit_test::basic_cstring"* byval align 4 %agg.tmp28)
          to label %invoke.cont30 unwind label %lpad26

invoke.cont30:                                    ; preds = %invoke.cont29
  %call34 = invoke %"class.boost::unit_test::lazy_ostream"* @_ZN5boost9unit_test12lazy_ostream8instanceEv()
          to label %invoke.cont33 unwind label %lpad26

invoke.cont33:                                    ; preds = %invoke.cont30
  invoke void @_ZN5boost9unit_testlsIA1_cEENS0_17lazy_ostream_implIRKT_EERKNS0_12lazy_ostreamES6_(%"class.boost::unit_test::lazy_ostream_impl"* sret %ref.tmp32, %"class.boost::unit_test::lazy_ostream"* %call34, [1 x i8]* @.str3)
          to label %invoke.cont35 unwind label %lpad26

invoke.cont35:                                    ; preds = %invoke.cont33
  %12 = bitcast %"class.boost::unit_test::lazy_ostream_impl"* %ref.tmp32 to %"class.boost::unit_test::lazy_ostream"*
  invoke void @_ZN5boost9unit_test13basic_cstringIKcEC1EPS2_j(%"class.boost::unit_test::basic_cstring"* %agg.tmp36, i8* getelementptr inbounds ([24 x i8]* @.str, i32 0, i32 0), i32 23)
          to label %invoke.cont38 unwind label %lpad37

invoke.cont38:                                    ; preds = %invoke.cont35
  store i32 0, i32* %ref.tmp39, align 4
  %13 = bitcast %"class.std::basic_stringstream"* %ss to i8**
  %vtable40 = load i8** %13
  %vbase.offset.ptr41 = getelementptr i8* %vtable40, i64 -12
  %14 = bitcast i8* %vbase.offset.ptr41 to i32*
  %vbase.offset42 = load i32* %14
  %15 = bitcast %"class.std::basic_stringstream"* %ss to i8*
  %add.ptr43 = getelementptr inbounds i8* %15, i32 %vbase.offset42
  %16 = bitcast i8* %add.ptr43 to %"class.std::ios_base"*
  %call45 = invoke i32 @_ZNKSt8ios_base5widthEv(%"class.std::ios_base"* %16)
          to label %invoke.cont44 unwind label %lpad37

invoke.cont44:                                    ; preds = %invoke.cont38
  store i32 %call45, i32* %ref.tmp46, align 4
  %call48 = invoke zeroext i1 @_ZN5boost10test_tools9tt_detail10check_frwdINS1_15equal_impl_frwdEiiEEbT_RKNS_9unit_test12lazy_ostreamENS5_13basic_cstringIKcEEjNS1_10tool_levelENS1_10check_typeERKT0_PSA_RKT1_SH_(%"class.boost::unit_test::lazy_ostream"* %12, %"class.boost::unit_test::basic_cstring"* byval align 4 %agg.tmp36, i32 138, i32 1, i32 2, i32* %ref.tmp39, i8* getelementptr inbounds ([2 x i8]* @.str14, i32 0, i32 0), i32* %ref.tmp46, i8* getelementptr inbounds ([11 x i8]* @.str15, i32 0, i32 0))
          to label %invoke.cont47 unwind label %lpad37

invoke.cont47:                                    ; preds = %invoke.cont44
  invoke void @_ZN5boost9unit_test17lazy_ostream_implIRA1_KcED1Ev(%"class.boost::unit_test::lazy_ostream_impl"* %ref.tmp32)
          to label %invoke.cont49 unwind label %lpad26

invoke.cont49:                                    ; preds = %invoke.cont47
  br label %do.cond51

do.cond51:                                        ; preds = %invoke.cont49
  %17 = load i8* @_ZN5boost10test_tools12_GLOBAL__N_110dummy_condE, align 1
  %tobool52 = trunc i8 %17 to i1
  br i1 %tobool52, label %do.body24, label %do.end53

do.end53:                                         ; preds = %do.cond51
  %18 = bitcast %"class.std::basic_stringstream"* %ss to i8*
  %add.ptr54 = getelementptr inbounds i8* %18, i32 8
  %19 = bitcast i8* %add.ptr54 to %"class.std::basic_ostream"*
  invoke void @_ZSt4setwi(%"struct.std::_Setw"* sret %agg.tmp55, i32 4)
          to label %invoke.cont56 unwind label %lpad26

invoke.cont56:                                    ; preds = %do.end53
  %call58 = invoke %"class.std::basic_ostream"* @_ZStlsIcSt11char_traitsIcEERSt13basic_ostreamIT_T0_ES6_St5_Setw(%"class.std::basic_ostream"* %19, %"struct.std::_Setw"* byval align 4 %agg.tmp55)
          to label %invoke.cont57 unwind label %lpad26

invoke.cont57:                                    ; preds = %invoke.cont56
  br label %do.body59

do.body59:                                        ; preds = %do.cond85, %invoke.cont57
  %20 = load %"class.boost::unit_test::unit_test_log_t"** @_ZN5boost9unit_test12_GLOBAL__N_113unit_test_logE, align 4
  invoke void @_ZN5boost9unit_test13basic_cstringIKcEC1EPS2_j(%"class.boost::unit_test::basic_cstring"* %agg.tmp60, i8* getelementptr inbounds ([24 x i8]* @.str, i32 0, i32 0), i32 23)
          to label %invoke.cont61 unwind label %lpad26

invoke.cont61:                                    ; preds = %do.body59
  invoke void @_ZN5boost9unit_test13basic_cstringIKcEC1Ev(%"class.boost::unit_test::basic_cstring"* %agg.tmp62)
          to label %invoke.cont63 unwind label %lpad26

invoke.cont63:                                    ; preds = %invoke.cont61
  invoke void @_ZN5boost9unit_test15unit_test_log_t14set_checkpointENS0_13basic_cstringIKcEEjS4_(%"class.boost::unit_test::unit_test_log_t"* %20, %"class.boost::unit_test::basic_cstring"* byval align 4 %agg.tmp60, i32 141, %"class.boost::unit_test::basic_cstring"* byval align 4 %agg.tmp62)
          to label %invoke.cont64 unwind label %lpad26

invoke.cont64:                                    ; preds = %invoke.cont63
  %call68 = invoke %"class.boost::unit_test::lazy_ostream"* @_ZN5boost9unit_test12lazy_ostream8instanceEv()
          to label %invoke.cont67 unwind label %lpad26

invoke.cont67:                                    ; preds = %invoke.cont64
  invoke void @_ZN5boost9unit_testlsIA1_cEENS0_17lazy_ostream_implIRKT_EERKNS0_12lazy_ostreamES6_(%"class.boost::unit_test::lazy_ostream_impl"* sret %ref.tmp66, %"class.boost::unit_test::lazy_ostream"* %call68, [1 x i8]* @.str3)
          to label %invoke.cont69 unwind label %lpad26

invoke.cont69:                                    ; preds = %invoke.cont67
  %21 = bitcast %"class.boost::unit_test::lazy_ostream_impl"* %ref.tmp66 to %"class.boost::unit_test::lazy_ostream"*
  invoke void @_ZN5boost9unit_test13basic_cstringIKcEC1EPS2_j(%"class.boost::unit_test::basic_cstring"* %agg.tmp70, i8* getelementptr inbounds ([24 x i8]* @.str, i32 0, i32 0), i32 23)
          to label %invoke.cont72 unwind label %lpad71

invoke.cont72:                                    ; preds = %invoke.cont69
  store i32 4, i32* %ref.tmp73, align 4
  %22 = bitcast %"class.std::basic_stringstream"* %ss to i8**
  %vtable74 = load i8** %22
  %vbase.offset.ptr75 = getelementptr i8* %vtable74, i64 -12
  %23 = bitcast i8* %vbase.offset.ptr75 to i32*
  %vbase.offset76 = load i32* %23
  %24 = bitcast %"class.std::basic_stringstream"* %ss to i8*
  %add.ptr77 = getelementptr inbounds i8* %24, i32 %vbase.offset76
  %25 = bitcast i8* %add.ptr77 to %"class.std::ios_base"*
  %call79 = invoke i32 @_ZNKSt8ios_base5widthEv(%"class.std::ios_base"* %25)
          to label %invoke.cont78 unwind label %lpad71

invoke.cont78:                                    ; preds = %invoke.cont72
  store i32 %call79, i32* %ref.tmp80, align 4
  %call82 = invoke zeroext i1 @_ZN5boost10test_tools9tt_detail10check_frwdINS1_15equal_impl_frwdEiiEEbT_RKNS_9unit_test12lazy_ostreamENS5_13basic_cstringIKcEEjNS1_10tool_levelENS1_10check_typeERKT0_PSA_RKT1_SH_(%"class.boost::unit_test::lazy_ostream"* %21, %"class.boost::unit_test::basic_cstring"* byval align 4 %agg.tmp70, i32 141, i32 1, i32 2, i32* %ref.tmp73, i8* getelementptr inbounds ([2 x i8]* @.str11, i32 0, i32 0), i32* %ref.tmp80, i8* getelementptr inbounds ([11 x i8]* @.str15, i32 0, i32 0))
          to label %invoke.cont81 unwind label %lpad71

invoke.cont81:                                    ; preds = %invoke.cont78
  invoke void @_ZN5boost9unit_test17lazy_ostream_implIRA1_KcED1Ev(%"class.boost::unit_test::lazy_ostream_impl"* %ref.tmp66)
          to label %invoke.cont83 unwind label %lpad26

invoke.cont83:                                    ; preds = %invoke.cont81
  br label %do.cond85

do.cond85:                                        ; preds = %invoke.cont83
  %26 = load i8* @_ZN5boost10test_tools12_GLOBAL__N_110dummy_condE, align 1
  %tobool86 = trunc i8 %26 to i1
  br i1 %tobool86, label %do.body59, label %do.end87

do.end87:                                         ; preds = %do.cond85
  invoke void @_ZN5boost2io15ios_width_saverD1Ev(%"class.boost::io::ios_width_saver"* %iws)
          to label %invoke.cont88 unwind label %lpad

invoke.cont88:                                    ; preds = %do.end87
  br label %do.body90

do.body90:                                        ; preds = %do.cond117, %invoke.cont88
  %27 = load %"class.boost::unit_test::unit_test_log_t"** @_ZN5boost9unit_test12_GLOBAL__N_113unit_test_logE, align 4
  invoke void @_ZN5boost9unit_test13basic_cstringIKcEC1EPS2_j(%"class.boost::unit_test::basic_cstring"* %agg.tmp91, i8* getelementptr inbounds ([24 x i8]* @.str, i32 0, i32 0), i32 23)
          to label %invoke.cont92 unwind label %lpad

invoke.cont92:                                    ; preds = %do.body90
  invoke void @_ZN5boost9unit_test13basic_cstringIKcEC1Ev(%"class.boost::unit_test::basic_cstring"* %agg.tmp93)
          to label %invoke.cont94 unwind label %lpad

invoke.cont94:                                    ; preds = %invoke.cont92
  invoke void @_ZN5boost9unit_test15unit_test_log_t14set_checkpointENS0_13basic_cstringIKcEEjS4_(%"class.boost::unit_test::unit_test_log_t"* %27, %"class.boost::unit_test::basic_cstring"* byval align 4 %agg.tmp91, i32 144, %"class.boost::unit_test::basic_cstring"* byval align 4 %agg.tmp93)
          to label %invoke.cont95 unwind label %lpad

invoke.cont95:                                    ; preds = %invoke.cont94
  %call99 = invoke %"class.boost::unit_test::lazy_ostream"* @_ZN5boost9unit_test12lazy_ostream8instanceEv()
          to label %invoke.cont98 unwind label %lpad

invoke.cont98:                                    ; preds = %invoke.cont95
  invoke void @_ZN5boost9unit_testlsIA1_cEENS0_17lazy_ostream_implIRKT_EERKNS0_12lazy_ostreamES6_(%"class.boost::unit_test::lazy_ostream_impl"* sret %ref.tmp97, %"class.boost::unit_test::lazy_ostream"* %call99, [1 x i8]* @.str3)
          to label %invoke.cont100 unwind label %lpad

invoke.cont100:                                   ; preds = %invoke.cont98
  %28 = bitcast %"class.boost::unit_test::lazy_ostream_impl"* %ref.tmp97 to %"class.boost::unit_test::lazy_ostream"*
  invoke void @_ZN5boost9unit_test13basic_cstringIKcEC1EPS2_j(%"class.boost::unit_test::basic_cstring"* %agg.tmp101, i8* getelementptr inbounds ([24 x i8]* @.str, i32 0, i32 0), i32 23)
          to label %invoke.cont103 unwind label %lpad102

invoke.cont103:                                   ; preds = %invoke.cont100
  store i32 0, i32* %ref.tmp104, align 4
  %29 = bitcast %"class.std::basic_stringstream"* %ss to i8**
  %vtable105 = load i8** %29
  %vbase.offset.ptr106 = getelementptr i8* %vtable105, i64 -12
  %30 = bitcast i8* %vbase.offset.ptr106 to i32*
  %vbase.offset107 = load i32* %30
  %31 = bitcast %"class.std::basic_stringstream"* %ss to i8*
  %add.ptr108 = getelementptr inbounds i8* %31, i32 %vbase.offset107
  %32 = bitcast i8* %add.ptr108 to %"class.std::ios_base"*
  %call110 = invoke i32 @_ZNKSt8ios_base5widthEv(%"class.std::ios_base"* %32)
          to label %invoke.cont109 unwind label %lpad102

invoke.cont109:                                   ; preds = %invoke.cont103
  store i32 %call110, i32* %ref.tmp111, align 4
  %call113 = invoke zeroext i1 @_ZN5boost10test_tools9tt_detail10check_frwdINS1_15equal_impl_frwdEiiEEbT_RKNS_9unit_test12lazy_ostreamENS5_13basic_cstringIKcEEjNS1_10tool_levelENS1_10check_typeERKT0_PSA_RKT1_SH_(%"class.boost::unit_test::lazy_ostream"* %28, %"class.boost::unit_test::basic_cstring"* byval align 4 %agg.tmp101, i32 144, i32 1, i32 2, i32* %ref.tmp104, i8* getelementptr inbounds ([2 x i8]* @.str14, i32 0, i32 0), i32* %ref.tmp111, i8* getelementptr inbounds ([11 x i8]* @.str15, i32 0, i32 0))
          to label %invoke.cont112 unwind label %lpad102

invoke.cont112:                                   ; preds = %invoke.cont109
  invoke void @_ZN5boost9unit_test17lazy_ostream_implIRA1_KcED1Ev(%"class.boost::unit_test::lazy_ostream_impl"* %ref.tmp97)
          to label %invoke.cont114 unwind label %lpad

invoke.cont114:                                   ; preds = %invoke.cont112
  br label %do.cond117

do.cond117:                                       ; preds = %invoke.cont114
  %33 = load i8* @_ZN5boost10test_tools12_GLOBAL__N_110dummy_condE, align 1
  %tobool118 = trunc i8 %33 to i1
  br i1 %tobool118, label %do.body90, label %do.end119

do.end119:                                        ; preds = %do.cond117
  %34 = bitcast %"class.std::basic_stringstream"* %ss to i8**
  %vtable121 = load i8** %34
  %vbase.offset.ptr122 = getelementptr i8* %vtable121, i64 -12
  %35 = bitcast i8* %vbase.offset.ptr122 to i32*
  %vbase.offset123 = load i32* %35
  %36 = bitcast %"class.std::basic_stringstream"* %ss to i8*
  %add.ptr124 = getelementptr inbounds i8* %36, i32 %vbase.offset123
  %37 = bitcast i8* %add.ptr124 to %"class.std::ios_base"*
  store i32 8, i32* %ref.tmp125, align 4
  invoke void @_ZN5boost2io15ios_width_saverC1ERSt8ios_baseRKi(%"class.boost::io::ios_width_saver"* %iws120, %"class.std::ios_base"* %37, i32* %ref.tmp125)
          to label %invoke.cont126 unwind label %lpad

invoke.cont126:                                   ; preds = %do.end119
  br label %do.body127

do.body127:                                       ; preds = %do.cond155, %invoke.cont126
  %38 = load %"class.boost::unit_test::unit_test_log_t"** @_ZN5boost9unit_test12_GLOBAL__N_113unit_test_logE, align 4
  invoke void @_ZN5boost9unit_test13basic_cstringIKcEC1EPS2_j(%"class.boost::unit_test::basic_cstring"* %agg.tmp128, i8* getelementptr inbounds ([24 x i8]* @.str, i32 0, i32 0), i32 23)
          to label %invoke.cont130 unwind label %lpad129

invoke.cont130:                                   ; preds = %do.body127
  invoke void @_ZN5boost9unit_test13basic_cstringIKcEC1Ev(%"class.boost::unit_test::basic_cstring"* %agg.tmp131)
          to label %invoke.cont132 unwind label %lpad129

invoke.cont132:                                   ; preds = %invoke.cont130
  invoke void @_ZN5boost9unit_test15unit_test_log_t14set_checkpointENS0_13basic_cstringIKcEEjS4_(%"class.boost::unit_test::unit_test_log_t"* %38, %"class.boost::unit_test::basic_cstring"* byval align 4 %agg.tmp128, i32 149, %"class.boost::unit_test::basic_cstring"* byval align 4 %agg.tmp131)
          to label %invoke.cont133 unwind label %lpad129

invoke.cont133:                                   ; preds = %invoke.cont132
  %call137 = invoke %"class.boost::unit_test::lazy_ostream"* @_ZN5boost9unit_test12lazy_ostream8instanceEv()
          to label %invoke.cont136 unwind label %lpad129

invoke.cont136:                                   ; preds = %invoke.cont133
  invoke void @_ZN5boost9unit_testlsIA1_cEENS0_17lazy_ostream_implIRKT_EERKNS0_12lazy_ostreamES6_(%"class.boost::unit_test::lazy_ostream_impl"* sret %ref.tmp135, %"class.boost::unit_test::lazy_ostream"* %call137, [1 x i8]* @.str3)
          to label %invoke.cont138 unwind label %lpad129

invoke.cont138:                                   ; preds = %invoke.cont136
  %39 = bitcast %"class.boost::unit_test::lazy_ostream_impl"* %ref.tmp135 to %"class.boost::unit_test::lazy_ostream"*
  invoke void @_ZN5boost9unit_test13basic_cstringIKcEC1EPS2_j(%"class.boost::unit_test::basic_cstring"* %agg.tmp139, i8* getelementptr inbounds ([24 x i8]* @.str, i32 0, i32 0), i32 23)
          to label %invoke.cont141 unwind label %lpad140

invoke.cont141:                                   ; preds = %invoke.cont138
  store i32 8, i32* %ref.tmp142, align 4
  %40 = bitcast %"class.std::basic_stringstream"* %ss to i8**
  %vtable143 = load i8** %40
  %vbase.offset.ptr144 = getelementptr i8* %vtable143, i64 -12
  %41 = bitcast i8* %vbase.offset.ptr144 to i32*
  %vbase.offset145 = load i32* %41
  %42 = bitcast %"class.std::basic_stringstream"* %ss to i8*
  %add.ptr146 = getelementptr inbounds i8* %42, i32 %vbase.offset145
  %43 = bitcast i8* %add.ptr146 to %"class.std::ios_base"*
  %call148 = invoke i32 @_ZNKSt8ios_base5widthEv(%"class.std::ios_base"* %43)
          to label %invoke.cont147 unwind label %lpad140

invoke.cont147:                                   ; preds = %invoke.cont141
  store i32 %call148, i32* %ref.tmp149, align 4
  %call151 = invoke zeroext i1 @_ZN5boost10test_tools9tt_detail10check_frwdINS1_15equal_impl_frwdEiiEEbT_RKNS_9unit_test12lazy_ostreamENS5_13basic_cstringIKcEEjNS1_10tool_levelENS1_10check_typeERKT0_PSA_RKT1_SH_(%"class.boost::unit_test::lazy_ostream"* %39, %"class.boost::unit_test::basic_cstring"* byval align 4 %agg.tmp139, i32 149, i32 1, i32 2, i32* %ref.tmp142, i8* getelementptr inbounds ([2 x i8]* @.str12, i32 0, i32 0), i32* %ref.tmp149, i8* getelementptr inbounds ([11 x i8]* @.str15, i32 0, i32 0))
          to label %invoke.cont150 unwind label %lpad140

invoke.cont150:                                   ; preds = %invoke.cont147
  invoke void @_ZN5boost9unit_test17lazy_ostream_implIRA1_KcED1Ev(%"class.boost::unit_test::lazy_ostream_impl"* %ref.tmp135)
          to label %invoke.cont152 unwind label %lpad129

invoke.cont152:                                   ; preds = %invoke.cont150
  br label %do.cond155

do.cond155:                                       ; preds = %invoke.cont152
  %44 = load i8* @_ZN5boost10test_tools12_GLOBAL__N_110dummy_condE, align 1
  %tobool156 = trunc i8 %44 to i1
  br i1 %tobool156, label %do.body127, label %do.end157

do.end157:                                        ; preds = %do.cond155
  %45 = bitcast %"class.std::basic_stringstream"* %ss to i8*
  %add.ptr158 = getelementptr inbounds i8* %45, i32 8
  %46 = bitcast i8* %add.ptr158 to %"class.std::basic_ostream"*
  invoke void @_ZSt4setwi(%"struct.std::_Setw"* sret %agg.tmp159, i32 10)
          to label %invoke.cont160 unwind label %lpad129

invoke.cont160:                                   ; preds = %do.end157
  %call162 = invoke %"class.std::basic_ostream"* @_ZStlsIcSt11char_traitsIcEERSt13basic_ostreamIT_T0_ES6_St5_Setw(%"class.std::basic_ostream"* %46, %"struct.std::_Setw"* byval align 4 %agg.tmp159)
          to label %invoke.cont161 unwind label %lpad129

invoke.cont161:                                   ; preds = %invoke.cont160
  br label %do.body163

do.body163:                                       ; preds = %do.cond190, %invoke.cont161
  %47 = load %"class.boost::unit_test::unit_test_log_t"** @_ZN5boost9unit_test12_GLOBAL__N_113unit_test_logE, align 4
  invoke void @_ZN5boost9unit_test13basic_cstringIKcEC1EPS2_j(%"class.boost::unit_test::basic_cstring"* %agg.tmp164, i8* getelementptr inbounds ([24 x i8]* @.str, i32 0, i32 0), i32 23)
          to label %invoke.cont165 unwind label %lpad129

invoke.cont165:                                   ; preds = %do.body163
  invoke void @_ZN5boost9unit_test13basic_cstringIKcEC1Ev(%"class.boost::unit_test::basic_cstring"* %agg.tmp166)
          to label %invoke.cont167 unwind label %lpad129

invoke.cont167:                                   ; preds = %invoke.cont165
  invoke void @_ZN5boost9unit_test15unit_test_log_t14set_checkpointENS0_13basic_cstringIKcEEjS4_(%"class.boost::unit_test::unit_test_log_t"* %47, %"class.boost::unit_test::basic_cstring"* byval align 4 %agg.tmp164, i32 152, %"class.boost::unit_test::basic_cstring"* byval align 4 %agg.tmp166)
          to label %invoke.cont168 unwind label %lpad129

invoke.cont168:                                   ; preds = %invoke.cont167
  %call172 = invoke %"class.boost::unit_test::lazy_ostream"* @_ZN5boost9unit_test12lazy_ostream8instanceEv()
          to label %invoke.cont171 unwind label %lpad129

invoke.cont171:                                   ; preds = %invoke.cont168
  invoke void @_ZN5boost9unit_testlsIA1_cEENS0_17lazy_ostream_implIRKT_EERKNS0_12lazy_ostreamES6_(%"class.boost::unit_test::lazy_ostream_impl"* sret %ref.tmp170, %"class.boost::unit_test::lazy_ostream"* %call172, [1 x i8]* @.str3)
          to label %invoke.cont173 unwind label %lpad129

invoke.cont173:                                   ; preds = %invoke.cont171
  %48 = bitcast %"class.boost::unit_test::lazy_ostream_impl"* %ref.tmp170 to %"class.boost::unit_test::lazy_ostream"*
  invoke void @_ZN5boost9unit_test13basic_cstringIKcEC1EPS2_j(%"class.boost::unit_test::basic_cstring"* %agg.tmp174, i8* getelementptr inbounds ([24 x i8]* @.str, i32 0, i32 0), i32 23)
          to label %invoke.cont176 unwind label %lpad175

invoke.cont176:                                   ; preds = %invoke.cont173
  store i32 10, i32* %ref.tmp177, align 4
  %49 = bitcast %"class.std::basic_stringstream"* %ss to i8**
  %vtable178 = load i8** %49
  %vbase.offset.ptr179 = getelementptr i8* %vtable178, i64 -12
  %50 = bitcast i8* %vbase.offset.ptr179 to i32*
  %vbase.offset180 = load i32* %50
  %51 = bitcast %"class.std::basic_stringstream"* %ss to i8*
  %add.ptr181 = getelementptr inbounds i8* %51, i32 %vbase.offset180
  %52 = bitcast i8* %add.ptr181 to %"class.std::ios_base"*
  %call183 = invoke i32 @_ZNKSt8ios_base5widthEv(%"class.std::ios_base"* %52)
          to label %invoke.cont182 unwind label %lpad175

invoke.cont182:                                   ; preds = %invoke.cont176
  store i32 %call183, i32* %ref.tmp184, align 4
  %call186 = invoke zeroext i1 @_ZN5boost10test_tools9tt_detail10check_frwdINS1_15equal_impl_frwdEiiEEbT_RKNS_9unit_test12lazy_ostreamENS5_13basic_cstringIKcEEjNS1_10tool_levelENS1_10check_typeERKT0_PSA_RKT1_SH_(%"class.boost::unit_test::lazy_ostream"* %48, %"class.boost::unit_test::basic_cstring"* byval align 4 %agg.tmp174, i32 152, i32 1, i32 2, i32* %ref.tmp177, i8* getelementptr inbounds ([3 x i8]* @.str13, i32 0, i32 0), i32* %ref.tmp184, i8* getelementptr inbounds ([11 x i8]* @.str15, i32 0, i32 0))
          to label %invoke.cont185 unwind label %lpad175

invoke.cont185:                                   ; preds = %invoke.cont182
  invoke void @_ZN5boost9unit_test17lazy_ostream_implIRA1_KcED1Ev(%"class.boost::unit_test::lazy_ostream_impl"* %ref.tmp170)
          to label %invoke.cont187 unwind label %lpad129

invoke.cont187:                                   ; preds = %invoke.cont185
  br label %do.cond190

do.cond190:                                       ; preds = %invoke.cont187
  %53 = load i8* @_ZN5boost10test_tools12_GLOBAL__N_110dummy_condE, align 1
  %tobool191 = trunc i8 %53 to i1
  br i1 %tobool191, label %do.body163, label %do.end192

do.end192:                                        ; preds = %do.cond190
  invoke void @_ZN5boost2io15ios_width_saverD1Ev(%"class.boost::io::ios_width_saver"* %iws120)
          to label %invoke.cont193 unwind label %lpad

invoke.cont193:                                   ; preds = %do.end192
  br label %do.body196

do.body196:                                       ; preds = %do.cond223, %invoke.cont193
  %54 = load %"class.boost::unit_test::unit_test_log_t"** @_ZN5boost9unit_test12_GLOBAL__N_113unit_test_logE, align 4
  invoke void @_ZN5boost9unit_test13basic_cstringIKcEC1EPS2_j(%"class.boost::unit_test::basic_cstring"* %agg.tmp197, i8* getelementptr inbounds ([24 x i8]* @.str, i32 0, i32 0), i32 23)
          to label %invoke.cont198 unwind label %lpad

invoke.cont198:                                   ; preds = %do.body196
  invoke void @_ZN5boost9unit_test13basic_cstringIKcEC1Ev(%"class.boost::unit_test::basic_cstring"* %agg.tmp199)
          to label %invoke.cont200 unwind label %lpad

invoke.cont200:                                   ; preds = %invoke.cont198
  invoke void @_ZN5boost9unit_test15unit_test_log_t14set_checkpointENS0_13basic_cstringIKcEEjS4_(%"class.boost::unit_test::unit_test_log_t"* %54, %"class.boost::unit_test::basic_cstring"* byval align 4 %agg.tmp197, i32 155, %"class.boost::unit_test::basic_cstring"* byval align 4 %agg.tmp199)
          to label %invoke.cont201 unwind label %lpad

invoke.cont201:                                   ; preds = %invoke.cont200
  %call205 = invoke %"class.boost::unit_test::lazy_ostream"* @_ZN5boost9unit_test12lazy_ostream8instanceEv()
          to label %invoke.cont204 unwind label %lpad

invoke.cont204:                                   ; preds = %invoke.cont201
  invoke void @_ZN5boost9unit_testlsIA1_cEENS0_17lazy_ostream_implIRKT_EERKNS0_12lazy_ostreamES6_(%"class.boost::unit_test::lazy_ostream_impl"* sret %ref.tmp203, %"class.boost::unit_test::lazy_ostream"* %call205, [1 x i8]* @.str3)
          to label %invoke.cont206 unwind label %lpad

invoke.cont206:                                   ; preds = %invoke.cont204
  %55 = bitcast %"class.boost::unit_test::lazy_ostream_impl"* %ref.tmp203 to %"class.boost::unit_test::lazy_ostream"*
  invoke void @_ZN5boost9unit_test13basic_cstringIKcEC1EPS2_j(%"class.boost::unit_test::basic_cstring"* %agg.tmp207, i8* getelementptr inbounds ([24 x i8]* @.str, i32 0, i32 0), i32 23)
          to label %invoke.cont209 unwind label %lpad208

invoke.cont209:                                   ; preds = %invoke.cont206
  store i32 0, i32* %ref.tmp210, align 4
  %56 = bitcast %"class.std::basic_stringstream"* %ss to i8**
  %vtable211 = load i8** %56
  %vbase.offset.ptr212 = getelementptr i8* %vtable211, i64 -12
  %57 = bitcast i8* %vbase.offset.ptr212 to i32*
  %vbase.offset213 = load i32* %57
  %58 = bitcast %"class.std::basic_stringstream"* %ss to i8*
  %add.ptr214 = getelementptr inbounds i8* %58, i32 %vbase.offset213
  %59 = bitcast i8* %add.ptr214 to %"class.std::ios_base"*
  %call216 = invoke i32 @_ZNKSt8ios_base5widthEv(%"class.std::ios_base"* %59)
          to label %invoke.cont215 unwind label %lpad208

invoke.cont215:                                   ; preds = %invoke.cont209
  store i32 %call216, i32* %ref.tmp217, align 4
  %call219 = invoke zeroext i1 @_ZN5boost10test_tools9tt_detail10check_frwdINS1_15equal_impl_frwdEiiEEbT_RKNS_9unit_test12lazy_ostreamENS5_13basic_cstringIKcEEjNS1_10tool_levelENS1_10check_typeERKT0_PSA_RKT1_SH_(%"class.boost::unit_test::lazy_ostream"* %55, %"class.boost::unit_test::basic_cstring"* byval align 4 %agg.tmp207, i32 155, i32 1, i32 2, i32* %ref.tmp210, i8* getelementptr inbounds ([2 x i8]* @.str14, i32 0, i32 0), i32* %ref.tmp217, i8* getelementptr inbounds ([11 x i8]* @.str15, i32 0, i32 0))
          to label %invoke.cont218 unwind label %lpad208

invoke.cont218:                                   ; preds = %invoke.cont215
  invoke void @_ZN5boost9unit_test17lazy_ostream_implIRA1_KcED1Ev(%"class.boost::unit_test::lazy_ostream_impl"* %ref.tmp203)
          to label %invoke.cont220 unwind label %lpad

invoke.cont220:                                   ; preds = %invoke.cont218
  br label %do.cond223

do.cond223:                                       ; preds = %invoke.cont220
  %60 = load i8* @_ZN5boost10test_tools12_GLOBAL__N_110dummy_condE, align 1
  %tobool224 = trunc i8 %60 to i1
  br i1 %tobool224, label %do.body196, label %do.end225

do.end225:                                        ; preds = %do.cond223
  call void @_ZNSt18basic_stringstreamIcSt11char_traitsIcESaIcEED1Ev(%"class.std::basic_stringstream"* %ss)
  ret void

lpad:                                             ; preds = %invoke.cont218, %invoke.cont204, %invoke.cont201, %invoke.cont200, %invoke.cont198, %do.body196, %do.end192, %do.end119, %invoke.cont112, %invoke.cont98, %invoke.cont95, %invoke.cont94, %invoke.cont92, %do.body90, %do.end87, %do.end, %invoke.cont15, %invoke.cont5, %invoke.cont3, %invoke.cont2, %invoke.cont, %do.body
  %61 = landingpad { i8*, i32 } personality i8* bitcast (i32 (...)* @__gxx_personality_v0 to i8*)
          cleanup
  %62 = extractvalue { i8*, i32 } %61, 0
  store i8* %62, i8** %exn.slot
  %63 = extractvalue { i8*, i32 } %61, 1
  store i32 %63, i32* %ehselector.slot
  br label %ehcleanup226

lpad9:                                            ; preds = %invoke.cont12, %invoke.cont10, %invoke.cont7
  %64 = landingpad { i8*, i32 } personality i8* bitcast (i32 (...)* @__gxx_personality_v0 to i8*)
          cleanup
  %65 = extractvalue { i8*, i32 } %64, 0
  store i8* %65, i8** %exn.slot
  %66 = extractvalue { i8*, i32 } %64, 1
  store i32 %66, i32* %ehselector.slot
  invoke void @_ZN5boost9unit_test17lazy_ostream_implIRA1_KcED1Ev(%"class.boost::unit_test::lazy_ostream_impl"* %ref.tmp)
          to label %invoke.cont18 unwind label %terminate.lpad

invoke.cont18:                                    ; preds = %lpad9
  br label %ehcleanup226

lpad26:                                           ; preds = %invoke.cont81, %invoke.cont67, %invoke.cont64, %invoke.cont63, %invoke.cont61, %do.body59, %invoke.cont56, %do.end53, %invoke.cont47, %invoke.cont33, %invoke.cont30, %invoke.cont29, %invoke.cont27, %do.body24
  %67 = landingpad { i8*, i32 } personality i8* bitcast (i32 (...)* @__gxx_personality_v0 to i8*)
          cleanup
  %68 = extractvalue { i8*, i32 } %67, 0
  store i8* %68, i8** %exn.slot
  %69 = extractvalue { i8*, i32 } %67, 1
  store i32 %69, i32* %ehselector.slot
  br label %ehcleanup

lpad37:                                           ; preds = %invoke.cont44, %invoke.cont38, %invoke.cont35
  %70 = landingpad { i8*, i32 } personality i8* bitcast (i32 (...)* @__gxx_personality_v0 to i8*)
          cleanup
  %71 = extractvalue { i8*, i32 } %70, 0
  store i8* %71, i8** %exn.slot
  %72 = extractvalue { i8*, i32 } %70, 1
  store i32 %72, i32* %ehselector.slot
  invoke void @_ZN5boost9unit_test17lazy_ostream_implIRA1_KcED1Ev(%"class.boost::unit_test::lazy_ostream_impl"* %ref.tmp32)
          to label %invoke.cont50 unwind label %terminate.lpad

invoke.cont50:                                    ; preds = %lpad37
  br label %ehcleanup

lpad71:                                           ; preds = %invoke.cont78, %invoke.cont72, %invoke.cont69
  %73 = landingpad { i8*, i32 } personality i8* bitcast (i32 (...)* @__gxx_personality_v0 to i8*)
          cleanup
  %74 = extractvalue { i8*, i32 } %73, 0
  store i8* %74, i8** %exn.slot
  %75 = extractvalue { i8*, i32 } %73, 1
  store i32 %75, i32* %ehselector.slot
  invoke void @_ZN5boost9unit_test17lazy_ostream_implIRA1_KcED1Ev(%"class.boost::unit_test::lazy_ostream_impl"* %ref.tmp66)
          to label %invoke.cont84 unwind label %terminate.lpad

invoke.cont84:                                    ; preds = %lpad71
  br label %ehcleanup

ehcleanup:                                        ; preds = %invoke.cont84, %invoke.cont50, %lpad26
  invoke void @_ZN5boost2io15ios_width_saverD1Ev(%"class.boost::io::ios_width_saver"* %iws)
          to label %invoke.cont89 unwind label %terminate.lpad

invoke.cont89:                                    ; preds = %ehcleanup
  br label %ehcleanup226

lpad102:                                          ; preds = %invoke.cont109, %invoke.cont103, %invoke.cont100
  %76 = landingpad { i8*, i32 } personality i8* bitcast (i32 (...)* @__gxx_personality_v0 to i8*)
          cleanup
  %77 = extractvalue { i8*, i32 } %76, 0
  store i8* %77, i8** %exn.slot
  %78 = extractvalue { i8*, i32 } %76, 1
  store i32 %78, i32* %ehselector.slot
  invoke void @_ZN5boost9unit_test17lazy_ostream_implIRA1_KcED1Ev(%"class.boost::unit_test::lazy_ostream_impl"* %ref.tmp97)
          to label %invoke.cont116 unwind label %terminate.lpad

invoke.cont116:                                   ; preds = %lpad102
  br label %ehcleanup226

lpad129:                                          ; preds = %invoke.cont185, %invoke.cont171, %invoke.cont168, %invoke.cont167, %invoke.cont165, %do.body163, %invoke.cont160, %do.end157, %invoke.cont150, %invoke.cont136, %invoke.cont133, %invoke.cont132, %invoke.cont130, %do.body127
  %79 = landingpad { i8*, i32 } personality i8* bitcast (i32 (...)* @__gxx_personality_v0 to i8*)
          cleanup
  %80 = extractvalue { i8*, i32 } %79, 0
  store i8* %80, i8** %exn.slot
  %81 = extractvalue { i8*, i32 } %79, 1
  store i32 %81, i32* %ehselector.slot
  br label %ehcleanup194

lpad140:                                          ; preds = %invoke.cont147, %invoke.cont141, %invoke.cont138
  %82 = landingpad { i8*, i32 } personality i8* bitcast (i32 (...)* @__gxx_personality_v0 to i8*)
          cleanup
  %83 = extractvalue { i8*, i32 } %82, 0
  store i8* %83, i8** %exn.slot
  %84 = extractvalue { i8*, i32 } %82, 1
  store i32 %84, i32* %ehselector.slot
  invoke void @_ZN5boost9unit_test17lazy_ostream_implIRA1_KcED1Ev(%"class.boost::unit_test::lazy_ostream_impl"* %ref.tmp135)
          to label %invoke.cont154 unwind label %terminate.lpad

invoke.cont154:                                   ; preds = %lpad140
  br label %ehcleanup194

lpad175:                                          ; preds = %invoke.cont182, %invoke.cont176, %invoke.cont173
  %85 = landingpad { i8*, i32 } personality i8* bitcast (i32 (...)* @__gxx_personality_v0 to i8*)
          cleanup
  %86 = extractvalue { i8*, i32 } %85, 0
  store i8* %86, i8** %exn.slot
  %87 = extractvalue { i8*, i32 } %85, 1
  store i32 %87, i32* %ehselector.slot
  invoke void @_ZN5boost9unit_test17lazy_ostream_implIRA1_KcED1Ev(%"class.boost::unit_test::lazy_ostream_impl"* %ref.tmp170)
          to label %invoke.cont189 unwind label %terminate.lpad

invoke.cont189:                                   ; preds = %lpad175
  br label %ehcleanup194

ehcleanup194:                                     ; preds = %invoke.cont189, %invoke.cont154, %lpad129
  invoke void @_ZN5boost2io15ios_width_saverD1Ev(%"class.boost::io::ios_width_saver"* %iws120)
          to label %invoke.cont195 unwind label %terminate.lpad

invoke.cont195:                                   ; preds = %ehcleanup194
  br label %ehcleanup226

lpad208:                                          ; preds = %invoke.cont215, %invoke.cont209, %invoke.cont206
  %88 = landingpad { i8*, i32 } personality i8* bitcast (i32 (...)* @__gxx_personality_v0 to i8*)
          cleanup
  %89 = extractvalue { i8*, i32 } %88, 0
  store i8* %89, i8** %exn.slot
  %90 = extractvalue { i8*, i32 } %88, 1
  store i32 %90, i32* %ehselector.slot
  invoke void @_ZN5boost9unit_test17lazy_ostream_implIRA1_KcED1Ev(%"class.boost::unit_test::lazy_ostream_impl"* %ref.tmp203)
          to label %invoke.cont222 unwind label %terminate.lpad

invoke.cont222:                                   ; preds = %lpad208
  br label %ehcleanup226

ehcleanup226:                                     ; preds = %invoke.cont222, %invoke.cont195, %invoke.cont116, %invoke.cont89, %invoke.cont18, %lpad
  invoke void @_ZNSt18basic_stringstreamIcSt11char_traitsIcESaIcEED1Ev(%"class.std::basic_stringstream"* %ss)
          to label %invoke.cont227 unwind label %terminate.lpad

invoke.cont227:                                   ; preds = %ehcleanup226
  br label %eh.resume

eh.resume:                                        ; preds = %invoke.cont227
  %exn = load i8** %exn.slot
  %sel = load i32* %ehselector.slot
  %lpad.val = insertvalue { i8*, i32 } undef, i8* %exn, 0
  %lpad.val228 = insertvalue { i8*, i32 } %lpad.val, i32 %sel, 1
  resume { i8*, i32 } %lpad.val228

terminate.lpad:                                   ; preds = %ehcleanup226, %lpad208, %ehcleanup194, %lpad175, %lpad140, %lpad102, %ehcleanup, %lpad71, %lpad37, %lpad9
  %91 = landingpad { i8*, i32 } personality i8* bitcast (i32 (...)* @__gxx_personality_v0 to i8*)
          catch i8* null
  call void @_ZSt9terminatev() noreturn nounwind
  unreachable
}

define linkonce_odr i32 @_ZNKSt8ios_base5widthEv(%"class.std::ios_base"* %this) nounwind align 2 {
entry:
  %this.addr = alloca %"class.std::ios_base"*, align 4
  store %"class.std::ios_base"* %this, %"class.std::ios_base"** %this.addr, align 4
  %this1 = load %"class.std::ios_base"** %this.addr
  %_M_width = getelementptr inbounds %"class.std::ios_base"* %this1, i32 0, i32 2
  %0 = load i32* %_M_width, align 4
  ret i32 %0
}

define linkonce_odr void @_ZN5boost2io15ios_width_saverC1ERSt8ios_base(%"class.boost::io::ios_width_saver"* %this, %"class.std::ios_base"* %s) unnamed_addr align 2 {
entry:
  %this.addr = alloca %"class.boost::io::ios_width_saver"*, align 4
  %s.addr = alloca %"class.std::ios_base"*, align 4
  store %"class.boost::io::ios_width_saver"* %this, %"class.boost::io::ios_width_saver"** %this.addr, align 4
  store %"class.std::ios_base"* %s, %"class.std::ios_base"** %s.addr, align 4
  %this1 = load %"class.boost::io::ios_width_saver"** %this.addr
  %0 = load %"class.std::ios_base"** %s.addr
  call void @_ZN5boost2io15ios_width_saverC2ERSt8ios_base(%"class.boost::io::ios_width_saver"* %this1, %"class.std::ios_base"* %0)
  ret void
}

declare %"class.std::basic_ostream"* @_ZStlsIcSt11char_traitsIcEERSt13basic_ostreamIT_T0_ES6_St5_Setw(%"class.std::basic_ostream"*, %"struct.std::_Setw"* byval align 4)

define linkonce_odr void @_ZSt4setwi(%"struct.std::_Setw"* noalias sret %agg.result, i32 %__n) nounwind inlinehint {
entry:
  %__n.addr = alloca i32, align 4
  store i32 %__n, i32* %__n.addr, align 4
  %_M_n = getelementptr inbounds %"struct.std::_Setw"* %agg.result, i32 0, i32 0
  %0 = load i32* %__n.addr, align 4
  store i32 %0, i32* %_M_n, align 4
  ret void
}

define linkonce_odr void @_ZN5boost2io15ios_width_saverD1Ev(%"class.boost::io::ios_width_saver"* %this) unnamed_addr align 2 {
entry:
  %this.addr = alloca %"class.boost::io::ios_width_saver"*, align 4
  store %"class.boost::io::ios_width_saver"* %this, %"class.boost::io::ios_width_saver"** %this.addr, align 4
  %this1 = load %"class.boost::io::ios_width_saver"** %this.addr
  call void @_ZN5boost2io15ios_width_saverD2Ev(%"class.boost::io::ios_width_saver"* %this1)
  ret void
}

define linkonce_odr void @_ZN5boost2io15ios_width_saverC1ERSt8ios_baseRKi(%"class.boost::io::ios_width_saver"* %this, %"class.std::ios_base"* %s, i32* %a) unnamed_addr align 2 {
entry:
  %this.addr = alloca %"class.boost::io::ios_width_saver"*, align 4
  %s.addr = alloca %"class.std::ios_base"*, align 4
  %a.addr = alloca i32*, align 4
  store %"class.boost::io::ios_width_saver"* %this, %"class.boost::io::ios_width_saver"** %this.addr, align 4
  store %"class.std::ios_base"* %s, %"class.std::ios_base"** %s.addr, align 4
  store i32* %a, i32** %a.addr, align 4
  %this1 = load %"class.boost::io::ios_width_saver"** %this.addr
  %0 = load i32** %a.addr
  %1 = load %"class.std::ios_base"** %s.addr
  call void @_ZN5boost2io15ios_width_saverC2ERSt8ios_baseRKi(%"class.boost::io::ios_width_saver"* %this1, %"class.std::ios_base"* %1, i32* %0)
  ret void
}

define void @_Z27ios_iostate_saver_unit_testv() {
entry:
  %ss = alloca %"class.std::basic_stringstream", align 4
  %agg.tmp = alloca %"class.boost::unit_test::basic_cstring", align 4
  %exn.slot = alloca i8*
  %ehselector.slot = alloca i32
  %agg.tmp1 = alloca %"class.boost::unit_test::basic_cstring", align 4
  %agg.tmp4 = alloca %"struct.boost::test_tools::tt_detail::equal_impl_frwd", align 1
  %ref.tmp = alloca %"class.boost::unit_test::lazy_ostream_impl", align 4
  %agg.tmp8 = alloca %"class.boost::unit_test::basic_cstring", align 4
  %ref.tmp13 = alloca i32, align 4
  %agg.tmp19 = alloca %"class.boost::unit_test::basic_cstring", align 4
  %agg.tmp21 = alloca %"class.boost::unit_test::basic_cstring", align 4
  %ref.tmp24 = alloca %"class.boost::test_tools::predicate_result", align 4
  %ref.tmp32 = alloca %"class.boost::unit_test::lazy_ostream_impl.0", align 4
  %ref.tmp36 = alloca %"class.boost::unit_test::basic_cstring", align 4
  %agg.tmp39 = alloca %"class.boost::unit_test::basic_cstring", align 4
  %iis = alloca %"class.boost::io::basic_ios_iostate_saver", align 4
  %c = alloca i8, align 1
  %agg.tmp57 = alloca %"class.boost::unit_test::basic_cstring", align 4
  %agg.tmp60 = alloca %"class.boost::unit_test::basic_cstring", align 4
  %agg.tmp63 = alloca %"struct.boost::test_tools::tt_detail::equal_impl_frwd", align 1
  %ref.tmp64 = alloca %"class.boost::unit_test::lazy_ostream_impl", align 4
  %agg.tmp68 = alloca %"class.boost::unit_test::basic_cstring", align 4
  %ref.tmp77 = alloca i32, align 4
  %agg.tmp87 = alloca %"class.boost::unit_test::basic_cstring", align 4
  %agg.tmp89 = alloca %"class.boost::unit_test::basic_cstring", align 4
  %ref.tmp92 = alloca %"class.boost::test_tools::predicate_result", align 4
  %ref.tmp100 = alloca %"class.boost::unit_test::lazy_ostream_impl.0", align 4
  %ref.tmp104 = alloca %"class.boost::unit_test::basic_cstring", align 4
  %agg.tmp107 = alloca %"class.boost::unit_test::basic_cstring", align 4
  %agg.tmp124 = alloca %"class.boost::unit_test::basic_cstring", align 4
  %agg.tmp126 = alloca %"class.boost::unit_test::basic_cstring", align 4
  %agg.tmp129 = alloca %"struct.boost::test_tools::tt_detail::equal_impl_frwd", align 1
  %ref.tmp130 = alloca %"class.boost::unit_test::lazy_ostream_impl", align 4
  %agg.tmp134 = alloca %"class.boost::unit_test::basic_cstring", align 4
  %ref.tmp139 = alloca i32, align 4
  %ref.tmp146 = alloca i32, align 4
  %agg.tmp156 = alloca %"class.boost::unit_test::basic_cstring", align 4
  %agg.tmp158 = alloca %"class.boost::unit_test::basic_cstring", align 4
  %ref.tmp161 = alloca %"class.boost::test_tools::predicate_result", align 4
  %ref.tmp169 = alloca %"class.boost::unit_test::lazy_ostream_impl.0", align 4
  %ref.tmp173 = alloca %"class.boost::unit_test::basic_cstring", align 4
  %agg.tmp176 = alloca %"class.boost::unit_test::basic_cstring", align 4
  %agg.tmp191 = alloca %"class.boost::unit_test::basic_cstring", align 4
  %agg.tmp193 = alloca %"class.boost::unit_test::basic_cstring", align 4
  %ref.tmp196 = alloca %"class.boost::test_tools::predicate_result", align 4
  %ref.tmp204 = alloca %"class.boost::unit_test::lazy_ostream_impl.0", align 4
  %ref.tmp208 = alloca %"class.boost::unit_test::basic_cstring", align 4
  %agg.tmp211 = alloca %"class.boost::unit_test::basic_cstring", align 4
  %agg.tmp226 = alloca %"class.boost::unit_test::basic_cstring", align 4
  %agg.tmp228 = alloca %"class.boost::unit_test::basic_cstring", align 4
  %ref.tmp231 = alloca %"class.boost::test_tools::predicate_result", align 4
  %ref.tmp239 = alloca %"class.boost::unit_test::lazy_ostream_impl.0", align 4
  %ref.tmp243 = alloca %"class.boost::unit_test::basic_cstring", align 4
  %agg.tmp246 = alloca %"class.boost::unit_test::basic_cstring", align 4
  %agg.tmp264 = alloca %"class.boost::unit_test::basic_cstring", align 4
  %agg.tmp266 = alloca %"class.boost::unit_test::basic_cstring", align 4
  %agg.tmp269 = alloca %"struct.boost::test_tools::tt_detail::equal_impl_frwd", align 1
  %ref.tmp270 = alloca %"class.boost::unit_test::lazy_ostream_impl", align 4
  %agg.tmp274 = alloca %"class.boost::unit_test::basic_cstring", align 4
  %ref.tmp283 = alloca i32, align 4
  %agg.tmp293 = alloca %"class.boost::unit_test::basic_cstring", align 4
  %agg.tmp295 = alloca %"class.boost::unit_test::basic_cstring", align 4
  %ref.tmp298 = alloca %"class.boost::test_tools::predicate_result", align 4
  %ref.tmp306 = alloca %"class.boost::unit_test::lazy_ostream_impl.0", align 4
  %ref.tmp310 = alloca %"class.boost::unit_test::basic_cstring", align 4
  %agg.tmp313 = alloca %"class.boost::unit_test::basic_cstring", align 4
  %iis327 = alloca %"class.boost::io::basic_ios_iostate_saver", align 4
  %agg.tmp334 = alloca %"class.boost::unit_test::basic_cstring", align 4
  %agg.tmp337 = alloca %"class.boost::unit_test::basic_cstring", align 4
  %agg.tmp340 = alloca %"struct.boost::test_tools::tt_detail::equal_impl_frwd", align 1
  %ref.tmp341 = alloca %"class.boost::unit_test::lazy_ostream_impl", align 4
  %agg.tmp345 = alloca %"class.boost::unit_test::basic_cstring", align 4
  %ref.tmp354 = alloca i32, align 4
  %agg.tmp364 = alloca %"class.boost::unit_test::basic_cstring", align 4
  %agg.tmp366 = alloca %"class.boost::unit_test::basic_cstring", align 4
  %ref.tmp369 = alloca %"class.boost::test_tools::predicate_result", align 4
  %ref.tmp377 = alloca %"class.boost::unit_test::lazy_ostream_impl.0", align 4
  %ref.tmp381 = alloca %"class.boost::unit_test::basic_cstring", align 4
  %agg.tmp384 = alloca %"class.boost::unit_test::basic_cstring", align 4
  %agg.tmp404 = alloca %"class.boost::unit_test::basic_cstring", align 4
  %agg.tmp406 = alloca %"class.boost::unit_test::basic_cstring", align 4
  %agg.tmp409 = alloca %"struct.boost::test_tools::tt_detail::equal_impl_frwd", align 1
  %ref.tmp410 = alloca %"class.boost::unit_test::lazy_ostream_impl", align 4
  %agg.tmp414 = alloca %"class.boost::unit_test::basic_cstring", align 4
  %ref.tmp419 = alloca i32, align 4
  %ref.tmp426 = alloca i32, align 4
  %agg.tmp436 = alloca %"class.boost::unit_test::basic_cstring", align 4
  %agg.tmp438 = alloca %"class.boost::unit_test::basic_cstring", align 4
  %ref.tmp441 = alloca %"class.boost::test_tools::predicate_result", align 4
  %ref.tmp449 = alloca %"class.boost::unit_test::lazy_ostream_impl.0", align 4
  %ref.tmp453 = alloca %"class.boost::unit_test::basic_cstring", align 4
  %agg.tmp456 = alloca %"class.boost::unit_test::basic_cstring", align 4
  %agg.tmp471 = alloca %"class.boost::unit_test::basic_cstring", align 4
  %agg.tmp473 = alloca %"class.boost::unit_test::basic_cstring", align 4
  %ref.tmp476 = alloca %"class.boost::test_tools::predicate_result", align 4
  %ref.tmp484 = alloca %"class.boost::unit_test::lazy_ostream_impl.0", align 4
  %ref.tmp488 = alloca %"class.boost::unit_test::basic_cstring", align 4
  %agg.tmp491 = alloca %"class.boost::unit_test::basic_cstring", align 4
  %agg.tmp506 = alloca %"class.boost::unit_test::basic_cstring", align 4
  %agg.tmp508 = alloca %"class.boost::unit_test::basic_cstring", align 4
  %ref.tmp511 = alloca %"class.boost::test_tools::predicate_result", align 4
  %ref.tmp519 = alloca %"class.boost::unit_test::lazy_ostream_impl.0", align 4
  %ref.tmp523 = alloca %"class.boost::unit_test::basic_cstring", align 4
  %agg.tmp526 = alloca %"class.boost::unit_test::basic_cstring", align 4
  %agg.tmp544 = alloca %"class.boost::unit_test::basic_cstring", align 4
  %agg.tmp546 = alloca %"class.boost::unit_test::basic_cstring", align 4
  %agg.tmp549 = alloca %"struct.boost::test_tools::tt_detail::equal_impl_frwd", align 1
  %ref.tmp550 = alloca %"class.boost::unit_test::lazy_ostream_impl", align 4
  %agg.tmp554 = alloca %"class.boost::unit_test::basic_cstring", align 4
  %ref.tmp563 = alloca i32, align 4
  %agg.tmp573 = alloca %"class.boost::unit_test::basic_cstring", align 4
  %agg.tmp575 = alloca %"class.boost::unit_test::basic_cstring", align 4
  %ref.tmp578 = alloca %"class.boost::test_tools::predicate_result", align 4
  %ref.tmp586 = alloca %"class.boost::unit_test::lazy_ostream_impl.0", align 4
  %ref.tmp590 = alloca %"class.boost::unit_test::basic_cstring", align 4
  %agg.tmp593 = alloca %"class.boost::unit_test::basic_cstring", align 4
  %call = call i32 @_ZStorSt13_Ios_OpenmodeS_(i32 16, i32 8)
  call void @_ZNSt18basic_stringstreamIcSt11char_traitsIcESaIcEEC1ESt13_Ios_Openmode(%"class.std::basic_stringstream"* %ss, i32 %call)
  br label %do.body

do.body:                                          ; preds = %do.cond, %entry
  %0 = load %"class.boost::unit_test::unit_test_log_t"** @_ZN5boost9unit_test12_GLOBAL__N_113unit_test_logE, align 4
  invoke void @_ZN5boost9unit_test13basic_cstringIKcEC1EPS2_j(%"class.boost::unit_test::basic_cstring"* %agg.tmp, i8* getelementptr inbounds ([24 x i8]* @.str, i32 0, i32 0), i32 23)
          to label %invoke.cont unwind label %lpad

invoke.cont:                                      ; preds = %do.body
  invoke void @_ZN5boost9unit_test13basic_cstringIKcEC1Ev(%"class.boost::unit_test::basic_cstring"* %agg.tmp1)
          to label %invoke.cont2 unwind label %lpad

invoke.cont2:                                     ; preds = %invoke.cont
  invoke void @_ZN5boost9unit_test15unit_test_log_t14set_checkpointENS0_13basic_cstringIKcEEjS4_(%"class.boost::unit_test::unit_test_log_t"* %0, %"class.boost::unit_test::basic_cstring"* byval align 4 %agg.tmp, i32 168, %"class.boost::unit_test::basic_cstring"* byval align 4 %agg.tmp1)
          to label %invoke.cont3 unwind label %lpad

invoke.cont3:                                     ; preds = %invoke.cont2
  %call6 = invoke %"class.boost::unit_test::lazy_ostream"* @_ZN5boost9unit_test12lazy_ostream8instanceEv()
          to label %invoke.cont5 unwind label %lpad

invoke.cont5:                                     ; preds = %invoke.cont3
  invoke void @_ZN5boost9unit_testlsIA1_cEENS0_17lazy_ostream_implIRKT_EERKNS0_12lazy_ostreamES6_(%"class.boost::unit_test::lazy_ostream_impl"* sret %ref.tmp, %"class.boost::unit_test::lazy_ostream"* %call6, [1 x i8]* @.str3)
          to label %invoke.cont7 unwind label %lpad

invoke.cont7:                                     ; preds = %invoke.cont5
  %1 = bitcast %"class.boost::unit_test::lazy_ostream_impl"* %ref.tmp to %"class.boost::unit_test::lazy_ostream"*
  invoke void @_ZN5boost9unit_test13basic_cstringIKcEC1EPS2_j(%"class.boost::unit_test::basic_cstring"* %agg.tmp8, i8* getelementptr inbounds ([24 x i8]* @.str, i32 0, i32 0), i32 23)
          to label %invoke.cont10 unwind label %lpad9

invoke.cont10:                                    ; preds = %invoke.cont7
  %2 = bitcast %"class.std::basic_stringstream"* %ss to i8**
  %vtable = load i8** %2
  %vbase.offset.ptr = getelementptr i8* %vtable, i64 -12
  %3 = bitcast i8* %vbase.offset.ptr to i32*
  %vbase.offset = load i32* %3
  %4 = bitcast %"class.std::basic_stringstream"* %ss to i8*
  %add.ptr = getelementptr inbounds i8* %4, i32 %vbase.offset
  %5 = bitcast i8* %add.ptr to %"class.std::basic_ios"*
  %call12 = invoke i32 @_ZNKSt9basic_iosIcSt11char_traitsIcEE7rdstateEv(%"class.std::basic_ios"* %5)
          to label %invoke.cont11 unwind label %lpad9

invoke.cont11:                                    ; preds = %invoke.cont10
  store i32 %call12, i32* %ref.tmp13, align 4
  %call15 = invoke zeroext i1 @_ZN5boost10test_tools9tt_detail10check_frwdINS1_15equal_impl_frwdESt12_Ios_IostateS4_EEbT_RKNS_9unit_test12lazy_ostreamENS6_13basic_cstringIKcEEjNS1_10tool_levelENS1_10check_typeERKT0_PSB_RKT1_SI_(%"class.boost::unit_test::lazy_ostream"* %1, %"class.boost::unit_test::basic_cstring"* byval align 4 %agg.tmp8, i32 168, i32 1, i32 2, i32* @_ZNSt8ios_base7goodbitE, i8* getelementptr inbounds ([18 x i8]* @.str16, i32 0, i32 0), i32* %ref.tmp13, i8* getelementptr inbounds ([13 x i8]* @.str17, i32 0, i32 0))
          to label %invoke.cont14 unwind label %lpad9

invoke.cont14:                                    ; preds = %invoke.cont11
  invoke void @_ZN5boost9unit_test17lazy_ostream_implIRA1_KcED1Ev(%"class.boost::unit_test::lazy_ostream_impl"* %ref.tmp)
          to label %invoke.cont16 unwind label %lpad

invoke.cont16:                                    ; preds = %invoke.cont14
  br label %do.cond

do.cond:                                          ; preds = %invoke.cont16
  %6 = load i8* @_ZN5boost10test_tools12_GLOBAL__N_110dummy_condE, align 1
  %tobool = trunc i8 %6 to i1
  br i1 %tobool, label %do.body, label %do.end

do.end:                                           ; preds = %do.cond
  br label %do.body18

do.body18:                                        ; preds = %do.cond48, %do.end
  %7 = load %"class.boost::unit_test::unit_test_log_t"** @_ZN5boost9unit_test12_GLOBAL__N_113unit_test_logE, align 4
  invoke void @_ZN5boost9unit_test13basic_cstringIKcEC1EPS2_j(%"class.boost::unit_test::basic_cstring"* %agg.tmp19, i8* getelementptr inbounds ([24 x i8]* @.str, i32 0, i32 0), i32 23)
          to label %invoke.cont20 unwind label %lpad

invoke.cont20:                                    ; preds = %do.body18
  invoke void @_ZN5boost9unit_test13basic_cstringIKcEC1Ev(%"class.boost::unit_test::basic_cstring"* %agg.tmp21)
          to label %invoke.cont22 unwind label %lpad

invoke.cont22:                                    ; preds = %invoke.cont20
  invoke void @_ZN5boost9unit_test15unit_test_log_t14set_checkpointENS0_13basic_cstringIKcEEjS4_(%"class.boost::unit_test::unit_test_log_t"* %7, %"class.boost::unit_test::basic_cstring"* byval align 4 %agg.tmp19, i32 169, %"class.boost::unit_test::basic_cstring"* byval align 4 %agg.tmp21)
          to label %invoke.cont23 unwind label %lpad

invoke.cont23:                                    ; preds = %invoke.cont22
  %8 = bitcast %"class.std::basic_stringstream"* %ss to i8**
  %vtable25 = load i8** %8
  %vbase.offset.ptr26 = getelementptr i8* %vtable25, i64 -12
  %9 = bitcast i8* %vbase.offset.ptr26 to i32*
  %vbase.offset27 = load i32* %9
  %10 = bitcast %"class.std::basic_stringstream"* %ss to i8*
  %add.ptr28 = getelementptr inbounds i8* %10, i32 %vbase.offset27
  %11 = bitcast i8* %add.ptr28 to %"class.std::basic_ios"*
  %call30 = invoke zeroext i1 @_ZNKSt9basic_iosIcSt11char_traitsIcEE4goodEv(%"class.std::basic_ios"* %11)
          to label %invoke.cont29 unwind label %lpad

invoke.cont29:                                    ; preds = %invoke.cont23
  invoke void @_ZN5boost10test_tools16predicate_resultC1Eb(%"class.boost::test_tools::predicate_result"* %ref.tmp24, i1 zeroext %call30)
          to label %invoke.cont31 unwind label %lpad

invoke.cont31:                                    ; preds = %invoke.cont29
