; ModuleID = 'johnson-eg.cpp'
target datalayout = "e-p:32:32:32-i1:8:8-i8:8:8-i16:16:16-i32:32:32-i64:32:64-f32:32:32-f64:32:64-v64:64:64-v128:128:128-a0:0:64-f80:32:32-n8:16:32-S128"
target triple = "i386-pc-linux-gnu"

%"class.std::ios_base::Init" = type { i8 }
%"class.boost::detail::make_property_map_from_arg_pack_gen" = type { i32 }
%"class.std::basic_ostream" = type { i32 (...)**, %"class.std::basic_ios" }
%"class.std::basic_ios" = type { %"class.std::ios_base", %"class.std::basic_ostream"*, i8, i8, %"class.std::basic_streambuf"*, %"class.std::ctype"*, %"class.std::num_put"*, %"class.std::num_get"* }
%"class.std::ios_base" = type { i32 (...)**, i32, i32, i32, i32, i32, %"struct.std::ios_base::_Callback_list"*, %"struct.std::ios_base::_Words", [8 x %"struct.std::ios_base::_Words"], i32, %"struct.std::ios_base::_Words"*, %"class.std::locale" }
%"struct.std::ios_base::_Callback_list" = type { %"struct.std::ios_base::_Callback_list"*, void (i32, %"class.std::ios_base"*, i32)*, i32, i32 }
%"struct.std::ios_base::_Words" = type { i8*, i32 }
%"class.std::locale" = type { %"class.std::locale::_Impl"* }
%"class.std::locale::_Impl" = type { i32, %"class.std::locale::facet"**, i32, %"class.std::locale::facet"**, i8** }
%"class.std::locale::facet" = type { i32 (...)**, i32 }
%"class.std::basic_streambuf" = type { i32 (...)**, i8*, i8*, i8*, i8*, i8*, i8*, %"class.std::locale" }
%"class.std::ctype" = type { %"class.std::locale::facet", %struct.__locale_struct*, i8, i32*, i32*, i16*, i8, [256 x i8], [256 x i8], i8 }
%struct.__locale_struct = type { [13 x %struct.__locale_data*], i16*, i32*, i32*, [13 x i8*] }
%struct.__locale_data = type opaque
%"class.std::num_put" = type { %"class.std::locale::facet" }
%"class.std::num_get" = type { %"class.std::locale::facet" }
%"struct.std::pair" = type { i32, i32 }
%"class.boost::adjacency_list" = type { %"class.boost::vec_adj_list_impl", %"class.boost::scoped_ptr" }
%"class.boost::vec_adj_list_impl" = type { %"class.std::list", %"class.std::vector" }
%"class.std::list" = type { %"class.std::_List_base" }
%"class.std::_List_base" = type { %"struct.std::_List_base<boost::list_edge<unsigned int, boost::property<boost::edge_weight_t, int, boost::property<boost::edge_weight2_t, int, boost::no_property> > >, std::allocator<boost::list_edge<unsigned int, boost::property<boost::edge_weight_t, int, boost::property<boost::edge_weight2_t, int, boost::no_property> > > > >::_List_impl" }
%"struct.std::_List_base<boost::list_edge<unsigned int, boost::property<boost::edge_weight_t, int, boost::property<boost::edge_weight2_t, int, boost::no_property> > >, std::allocator<boost::list_edge<unsigned int, boost::property<boost::edge_weight_t, int, boost::property<boost::edge_weight2_t, int, boost::no_property> > > > >::_List_impl" = type { %"struct.std::__detail::_List_node_base" }
%"struct.std::__detail::_List_node_base" = type { %"struct.std::__detail::_List_node_base"*, %"struct.std::__detail::_List_node_base"* }
%"class.std::vector" = type { %"struct.std::_Vector_base" }
%"struct.std::_Vector_base" = type { %"struct.std::_Vector_base<boost::detail::adj_list_gen<boost::adjacency_list<boost::vecS, boost::vecS, boost::directedS, boost::no_property, boost::property<boost::edge_weight_t, int, boost::property<boost::edge_weight2_t, int, boost::no_property> >, boost::no_property, boost::listS>, boost::vecS, boost::vecS, boost::directedS, boost::no_property, boost::property<boost::edge_weight_t, int, boost::property<boost::edge_weight2_t, int, boost::no_property> >, boost::no_property, boost::listS>::config::stored_vertex, std::allocator<boost::detail::adj_list_gen<boost::adjacency_list<boost::vecS, boost::vecS, boost::directedS, boost::no_property, boost::property<boost::edge_weight_t, int, boost::property<boost::edge_weight2_t, int, boost::no_property> >, boost::no_property, boost::listS>, boost::vecS, boost::vecS, boost::directedS, boost::no_property, boost::property<boost::edge_weight_t, int, boost::property<boost::edge_weight2_t, int, boost::no_property> >, boost::no_property, boost::listS>::config::stored_vertex> >::_Vector_impl" }
%"struct.std::_Vector_base<boost::detail::adj_list_gen<boost::adjacency_list<boost::vecS, boost::vecS, boost::directedS, boost::no_property, boost::property<boost::edge_weight_t, int, boost::property<boost::edge_weight2_t, int, boost::no_property> >, boost::no_property, boost::listS>, boost::vecS, boost::vecS, boost::directedS, boost::no_property, boost::property<boost::edge_weight_t, int, boost::property<boost::edge_weight2_t, int, boost::no_property> >, boost::no_property, boost::listS>::config::stored_vertex, std::allocator<boost::detail::adj_list_gen<boost::adjacency_list<boost::vecS, boost::vecS, boost::directedS, boost::no_property, boost::property<boost::edge_weight_t, int, boost::property<boost::edge_weight2_t, int, boost::no_property> >, boost::no_property, boost::listS>, boost::vecS, boost::vecS, boost::directedS, boost::no_property, boost::property<boost::edge_weight_t, int, boost::property<boost::edge_weight2_t, int, boost::no_property> >, boost::no_property, boost::listS>::config::stored_vertex> >::_Vector_impl" = type { %"struct.boost::detail::adj_list_gen<boost::adjacency_list<boost::vecS, boost::vecS, boost::directedS, boost::no_property, boost::property<boost::edge_weight_t, int, boost::property<boost::edge_weight2_t, int, boost::no_property> >, boost::no_property, boost::listS>, boost::vecS, boost::vecS, boost::directedS, boost::no_property, boost::property<boost::edge_weight_t, int, boost::property<boost::edge_weight2_t, int, boost::no_property> >, boost::no_property, boost::listS>::config::stored_vertex"*, %"struct.boost::detail::adj_list_gen<boost::adjacency_list<boost::vecS, boost::vecS, boost::directedS, boost::no_property, boost::property<boost::edge_weight_t, int, boost::property<boost::edge_weight2_t, int, boost::no_property> >, boost::no_property, boost::listS>, boost::vecS, boost::vecS, boost::directedS, boost::no_property, boost::property<boost::edge_weight_t, int, boost::property<boost::edge_weight2_t, int, boost::no_property> >, boost::no_property, boost::listS>::config::stored_vertex"*, %"struct.boost::detail::adj_list_gen<boost::adjacency_list<boost::vecS, boost::vecS, boost::directedS, boost::no_property, boost::property<boost::edge_weight_t, int, boost::property<boost::edge_weight2_t, int, boost::no_property> >, boost::no_property, boost::listS>, boost::vecS, boost::vecS, boost::directedS, boost::no_property, boost::property<boost::edge_weight_t, int, boost::property<boost::edge_weight2_t, int, boost::no_property> >, boost::no_property, boost::listS>::config::stored_vertex"* }
%"struct.boost::detail::adj_list_gen<boost::adjacency_list<boost::vecS, boost::vecS, boost::directedS, boost::no_property, boost::property<boost::edge_weight_t, int, boost::property<boost::edge_weight2_t, int, boost::no_property> >, boost::no_property, boost::listS>, boost::vecS, boost::vecS, boost::directedS, boost::no_property, boost::property<boost::edge_weight_t, int, boost::property<boost::edge_weight2_t, int, boost::no_property> >, boost::no_property, boost::listS>::config::stored_vertex" = type { %"struct.boost::detail::adj_list_gen<boost::adjacency_list<boost::vecS, boost::vecS, boost::directedS, boost::no_property, boost::property<boost::edge_weight_t, int, boost::property<boost::edge_weight2_t, int, boost::no_property> >, boost::no_property, boost::listS>, boost::vecS, boost::vecS, boost::directedS, boost::no_property, boost::property<boost::edge_weight_t, int, boost::property<boost::edge_weight2_t, int, boost::no_property> >, boost::no_property, boost::listS>::config::rand_stored_vertex" }
%"struct.boost::detail::adj_list_gen<boost::adjacency_list<boost::vecS, boost::vecS, boost::directedS, boost::no_property, boost::property<boost::edge_weight_t, int, boost::property<boost::edge_weight2_t, int, boost::no_property> >, boost::no_property, boost::listS>, boost::vecS, boost::vecS, boost::directedS, boost::no_property, boost::property<boost::edge_weight_t, int, boost::property<boost::edge_weight2_t, int, boost::no_property> >, boost::no_property, boost::listS>::config::rand_stored_vertex" = type { %"class.std::vector.11", %"struct.boost::no_property" }
%"class.std::vector.11" = type { %"struct.std::_Vector_base.12" }
%"struct.std::_Vector_base.12" = type { %"struct.std::_Vector_base<boost::detail::stored_edge_property<unsigned int, boost::property<boost::edge_weight_t, int, boost::property<boost::edge_weight2_t, int, boost::no_property> > >, std::allocator<boost::detail::stored_edge_property<unsigned int, boost::property<boost::edge_weight_t, int, boost::property<boost::edge_weight2_t, int, boost::no_property> > > > >::_Vector_impl" }
%"struct.std::_Vector_base<boost::detail::stored_edge_property<unsigned int, boost::property<boost::edge_weight_t, int, boost::property<boost::edge_weight2_t, int, boost::no_property> > >, std::allocator<boost::detail::stored_edge_property<unsigned int, boost::property<boost::edge_weight_t, int, boost::property<boost::edge_weight2_t, int, boost::no_property> > > > >::_Vector_impl" = type { %"class.boost::detail::stored_edge_property"*, %"class.boost::detail::stored_edge_property"*, %"class.boost::detail::stored_edge_property"* }
%"class.boost::detail::stored_edge_property" = type { %"class.boost::detail::stored_edge", %"class.std::auto_ptr" }
%"class.boost::detail::stored_edge" = type { i32 }
%"class.std::auto_ptr" = type { %"struct.boost::property"* }
%"struct.boost::property" = type { i32, %"struct.boost::property.16" }
%"struct.boost::property.16" = type { i32, %"struct.boost::no_property" }
%"struct.boost::no_property" = type { i8 }
%"class.boost::scoped_ptr" = type { %"struct.boost::no_property"* }
%"struct.boost::adj_list_edge_property_map" = type { i32 }
%"class.boost::detail::adj_list_edge_iterator" = type { %"class.boost::range_detail::integer_iterator", %"class.boost::range_detail::integer_iterator", %"class.boost::range_detail::integer_iterator", %"class.boost::optional", %"class.boost::adjacency_list"* }
%"class.boost::range_detail::integer_iterator" = type { i32 }
%"class.boost::optional" = type { %"class.boost::optional_detail::optional_base" }
%"class.boost::optional_detail::optional_base" = type { i8, [3 x i8], %"class.boost::optional_detail::aligned_storage" }
%"class.boost::optional_detail::aligned_storage" = type { %"union.boost::optional_detail::aligned_storage<std::pair<boost::detail::out_edge_iter<__gnu_cxx::__normal_iterator<boost::detail::stored_edge_property<unsigned int, boost::property<boost::edge_weight_t, int, boost::property<boost::edge_weight2_t, int, boost::no_property> > > *, std::vector<boost::detail::stored_edge_property<unsigned int, boost::property<boost::edge_weight_t, int, boost::property<boost::edge_weight2_t, int, boost::no_property> > >, std::allocator<boost::detail::stored_edge_property<unsigned int, boost::property<boost::edge_weight_t, int, boost::property<boost::edge_weight2_t, int, boost::no_property> > > > > >, unsigned int, boost::detail::edge_desc_impl<boost::directed_tag, unsigned int>, int>, boost::detail::out_edge_iter<__gnu_cxx::__normal_iterator<boost::detail::stored_edge_property<unsigned int, boost::property<boost::edge_weight_t, int, boost::property<boost::edge_weight2_t, int, boost::no_property> > > *, std::vector<boost::detail::stored_edge_property<unsigned int, boost::property<boost::edge_weight_t, int, boost::property<boost::edge_weight2_t, int, boost::no_property> > >, std::allocator<boost::detail::stored_edge_property<unsigned int, boost::property<boost::edge_weight_t, int, boost::property<boost::edge_weight2_t, int, boost::no_property> > > > > >, unsigned int, boost::detail::edge_desc_impl<boost::directed_tag, unsigned int>, int> > >::dummy_u" }
%"union.boost::optional_detail::aligned_storage<std::pair<boost::detail::out_edge_iter<__gnu_cxx::__normal_iterator<boost::detail::stored_edge_property<unsigned int, boost::property<boost::edge_weight_t, int, boost::property<boost::edge_weight2_t, int, boost::no_property> > > *, std::vector<boost::detail::stored_edge_property<unsigned int, boost::property<boost::edge_weight_t, int, boost::property<boost::edge_weight2_t, int, boost::no_property> > >, std::allocator<boost::detail::stored_edge_property<unsigned int, boost::property<boost::edge_weight_t, int, boost::property<boost::edge_weight2_t, int, boost::no_property> > > > > >, unsigned int, boost::detail::edge_desc_impl<boost::directed_tag, unsigned int>, int>, boost::detail::out_edge_iter<__gnu_cxx::__normal_iterator<boost::detail::stored_edge_property<unsigned int, boost::property<boost::edge_weight_t, int, boost::property<boost::edge_weight2_t, int, boost::no_property> > > *, std::vector<boost::detail::stored_edge_property<unsigned int, boost::property<boost::edge_weight_t, int, boost::property<boost::edge_weight2_t, int, boost::no_property> > >, std::allocator<boost::detail::stored_edge_property<unsigned int, boost::property<boost::edge_weight_t, int, boost::property<boost::edge_weight2_t, int, boost::no_property> > > > > >, unsigned int, boost::detail::edge_desc_impl<boost::directed_tag, unsigned int>, int> > >::dummy_u" = type { [16 x i8] }
%"class.boost::tuples::tuple" = type { %"struct.boost::tuples::cons" }
%"struct.boost::tuples::cons" = type { %"class.boost::detail::adj_list_edge_iterator"*, %"struct.boost::tuples::cons.3" }
%"struct.boost::tuples::cons.3" = type { %"class.boost::detail::adj_list_edge_iterator"* }
%"struct.std::pair.4" = type { %"class.boost::detail::adj_list_edge_iterator", %"class.boost::detail::adj_list_edge_iterator" }
%"class.boost::detail::edge_desc_impl" = type { %"struct.boost::detail::edge_base", i8* }
%"struct.boost::detail::edge_base" = type { i32, i32 }
%"class.std::vector.5" = type { %"struct.std::_Vector_base.6" }
%"struct.std::_Vector_base.6" = type { %"struct.std::_Vector_base<int, std::allocator<int> >::_Vector_impl" }
%"struct.std::_Vector_base<int, std::allocator<int> >::_Vector_impl" = type { i32*, i32*, i32* }
%"class.std::allocator.7" = type { i8 }
%"struct.boost::bgl_named_params" = type { i32*, %"struct.boost::no_property" }
%"struct.std::_Setw" = type { i32 }
%"class.std::basic_ofstream" = type { %"class.std::basic_ostream.base", %"class.std::basic_filebuf", %"class.std::basic_ios" }
%"class.std::basic_ostream.base" = type { i32 (...)** }
%"class.std::basic_filebuf" = type { %"class.std::basic_streambuf", %union.pthread_mutex_t, %"class.std::__basic_file", i32, %struct.__mbstate_t, %struct.__mbstate_t, %struct.__mbstate_t, i8*, i32, i8, i8, i8, i8, i8*, i8*, i8, %"class.std::codecvt"*, i8*, i32, i8*, i8* }
%union.pthread_mutex_t = type { %"struct.<anonymous union>::__pthread_mutex_s" }
%"struct.<anonymous union>::__pthread_mutex_s" = type { i32, i32, i32, i32, i32, %union.anon }
%union.anon = type { i32 }
%"class.std::__basic_file" = type { %struct._IO_FILE*, i8 }
%struct._IO_FILE = type { i32, i8*, i8*, i8*, i8*, i8*, i8*, i8*, i8*, i8*, i8*, i8*, %struct._IO_marker*, %struct._IO_FILE*, i32, i32, i32, i16, i8, [1 x i8], i8*, i64, i8*, i8*, i8*, i8*, i32, i32, [40 x i8] }
%struct._IO_marker = type { %struct._IO_marker*, %struct._IO_FILE*, i32 }
%struct.__mbstate_t = type { i32, %union.anon.10 }
%union.anon.10 = type { i32 }
%"class.std::codecvt" = type { %"class.std::__codecvt_abstract_base", %struct.__locale_struct* }
%"class.std::__codecvt_abstract_base" = type { %"class.std::locale::facet" }
%"struct.boost::adj_list_helper" = type { i8 }
%"struct.boost::directed_edges_helper" = type { i8 }
%"struct.boost::edge_property_tag" = type { i8 }
%"class.boost::integer_range" = type { %"class.boost::iterator_range" }
%"class.boost::iterator_range" = type { %"class.boost::range_detail::integer_iterator", %"class.boost::range_detail::integer_iterator" }
%"class.boost::iterator_facade" = type { i8 }
%"struct.std::pair.62" = type { %"struct.boost::detail::out_edge_iter", %"struct.boost::detail::out_edge_iter" }
%"struct.boost::detail::out_edge_iter" = type { %"class.boost::iterator_adaptor", i32 }
%"class.boost::iterator_adaptor" = type { %"class.__gnu_cxx::__normal_iterator" }
%"class.__gnu_cxx::__normal_iterator" = type { %"class.boost::detail::stored_edge_property"* }
%"class.boost::iterator_facade.63" = type { i8 }
%"struct.boost::adj_list_edge_property_map.17" = type { i32 }
%"struct.boost::vec_adj_list_vertex_id_map" = type { i8 }
%"struct.boost::param_not_found" = type { i8 }
%"struct.std::less" = type { i8 }
%"struct.boost::distance_compare_t" = type { i8 }
%"struct.boost::closed_plus" = type { i32 }
%"struct.boost::distance_combine_t" = type { i8 }
%"struct.boost::distance_inf_t" = type { i8 }
%"struct.boost::distance_zero_t" = type { i8 }
%"struct.mpl_::bool_" = type { i8 }
%"struct.boost::vertex_property_tag" = type { i8 }
%"struct.boost::put_get_helper.19" = type { i8 }
%"struct.boost::put_get_helper.18" = type { i8 }
%"class.boost::adjacency_list.20" = type { %"class.boost::vec_adj_list_impl.21", %"class.boost::scoped_ptr" }
%"class.boost::vec_adj_list_impl.21" = type { %"class.std::list", %"class.std::vector.25" }
%"class.std::vector.25" = type { %"struct.std::_Vector_base.26" }
%"struct.std::_Vector_base.26" = type { %"struct.std::_Vector_base<boost::detail::adj_list_gen<boost::adjacency_list<boost::vecS, boost::vecS, boost::directedS, boost::property<boost::vertex_distance_t, int, boost::no_property>, boost::property<boost::edge_weight_t, int, boost::property<boost::edge_weight2_t, int, boost::no_property> >, boost::no_property, boost::listS>, boost::vecS, boost::vecS, boost::directedS, boost::property<boost::vertex_distance_t, int, boost::no_property>, boost::property<boost::edge_weight_t, int, boost::property<boost::edge_weight2_t, int, boost::no_property> >, boost::no_property, boost::listS>::config::stored_vertex, std::allocator<boost::detail::adj_list_gen<boost::adjacency_list<boost::vecS, boost::vecS, boost::directedS, boost::property<boost::vertex_distance_t, int, boost::no_property>, boost::property<boost::edge_weight_t, int, boost::property<boost::edge_weight2_t, int, boost::no_property> >, boost::no_property, boost::listS>, boost::vecS, boost::vecS, boost::directedS, boost::property<boost::vertex_distance_t, int, boost::no_property>, boost::property<boost::edge_weight_t, int, boost::property<boost::edge_weight2_t, int, boost::no_property> >, boost::no_property, boost::listS>::config::stored_vertex> >::_Vector_impl" }
%"struct.std::_Vector_base<boost::detail::adj_list_gen<boost::adjacency_list<boost::vecS, boost::vecS, boost::directedS, boost::property<boost::vertex_distance_t, int, boost::no_property>, boost::property<boost::edge_weight_t, int, boost::property<boost::edge_weight2_t, int, boost::no_property> >, boost::no_property, boost::listS>, boost::vecS, boost::vecS, boost::directedS, boost::property<boost::vertex_distance_t, int, boost::no_property>, boost::property<boost::edge_weight_t, int, boost::property<boost::edge_weight2_t, int, boost::no_property> >, boost::no_property, boost::listS>::config::stored_vertex, std::allocator<boost::detail::adj_list_gen<boost::adjacency_list<boost::vecS, boost::vecS, boost::directedS, boost::property<boost::vertex_distance_t, int, boost::no_property>, boost::property<boost::edge_weight_t, int, boost::property<boost::edge_weight2_t, int, boost::no_property> >, boost::no_property, boost::listS>, boost::vecS, boost::vecS, boost::directedS, boost::property<boost::vertex_distance_t, int, boost::no_property>, boost::property<boost::edge_weight_t, int, boost::property<boost::edge_weight2_t, int, boost::no_property> >, boost::no_property, boost::listS>::config::stored_vertex> >::_Vector_impl" = type { %"struct.boost::detail::adj_list_gen<boost::adjacency_list<boost::vecS, boost::vecS, boost::directedS, boost::property<boost::vertex_distance_t, int, boost::no_property>, boost::property<boost::edge_weight_t, int, boost::property<boost::edge_weight2_t, int, boost::no_property> >, boost::no_property, boost::listS>, boost::vecS, boost::vecS, boost::directedS, boost::property<boost::vertex_distance_t, int, boost::no_property>, boost::property<boost::edge_weight_t, int, boost::property<boost::edge_weight2_t, int, boost::no_property> >, boost::no_property, boost::listS>::config::stored_vertex"*, %"struct.boost::detail::adj_list_gen<boost::adjacency_list<boost::vecS, boost::vecS, boost::directedS, boost::property<boost::vertex_distance_t, int, boost::no_property>, boost::property<boost::edge_weight_t, int, boost::property<boost::edge_weight2_t, int, boost::no_property> >, boost::no_property, boost::listS>, boost::vecS, boost::vecS, boost::directedS, boost::property<boost::vertex_distance_t, int, boost::no_property>, boost::property<boost::edge_weight_t, int, boost::property<boost::edge_weight2_t, int, boost::no_property> >, boost::no_property, boost::listS>::config::stored_vertex"*, %"struct.boost::detail::adj_list_gen<boost::adjacency_list<boost::vecS, boost::vecS, boost::directedS, boost::property<boost::vertex_distance_t, int, boost::no_property>, boost::property<boost::edge_weight_t, int, boost::property<boost::edge_weight2_t, int, boost::no_property> >, boost::no_property, boost::listS>, boost::vecS, boost::vecS, boost::directedS, boost::property<boost::vertex_distance_t, int, boost::no_property>, boost::property<boost::edge_weight_t, int, boost::property<boost::edge_weight2_t, int, boost::no_property> >, boost::no_property, boost::listS>::config::stored_vertex"* }
%"struct.boost::detail::adj_list_gen<boost::adjacency_list<boost::vecS, boost::vecS, boost::directedS, boost::property<boost::vertex_distance_t, int, boost::no_property>, boost::property<boost::edge_weight_t, int, boost::property<boost::edge_weight2_t, int, boost::no_property> >, boost::no_property, boost::listS>, boost::vecS, boost::vecS, boost::directedS, boost::property<boost::vertex_distance_t, int, boost::no_property>, boost::property<boost::edge_weight_t, int, boost::property<boost::edge_weight2_t, int, boost::no_property> >, boost::no_property, boost::listS>::config::stored_vertex" = type { %"struct.boost::detail::adj_list_gen<boost::adjacency_list<boost::vecS, boost::vecS, boost::directedS, boost::property<boost::vertex_distance_t, int, boost::no_property>, boost::property<boost::edge_weight_t, int, boost::property<boost::edge_weight2_t, int, boost::no_property> >, boost::no_property, boost::listS>, boost::vecS, boost::vecS, boost::directedS, boost::property<boost::vertex_distance_t, int, boost::no_property>, boost::property<boost::edge_weight_t, int, boost::property<boost::edge_weight2_t, int, boost::no_property> >, boost::no_property, boost::listS>::config::rand_stored_vertex" }
%"struct.boost::detail::adj_list_gen<boost::adjacency_list<boost::vecS, boost::vecS, boost::directedS, boost::property<boost::vertex_distance_t, int, boost::no_property>, boost::property<boost::edge_weight_t, int, boost::property<boost::edge_weight2_t, int, boost::no_property> >, boost::no_property, boost::listS>, boost::vecS, boost::vecS, boost::directedS, boost::property<boost::vertex_distance_t, int, boost::no_property>, boost::property<boost::edge_weight_t, int, boost::property<boost::edge_weight2_t, int, boost::no_property> >, boost::no_property, boost::listS>::config::rand_stored_vertex" = type { %"class.std::vector.11", %"struct.boost::property.30" }
%"struct.boost::property.30" = type { i32, %"struct.boost::no_property" }
%"struct.boost::adj_list_edge_property_map.32" = type { i32 }
%"struct.boost::vec_adj_list_vertex_property_map" = type { %"class.boost::adjacency_list.20"*, i32 }
%"struct.boost::vec_adj_list_vertex_id_map.35" = type { i8 }
%"class.std::vector.37" = type { %"struct.std::_Vector_base.38" }
%"struct.std::_Vector_base.38" = type { %"struct.std::_Vector_base<unsigned int, std::allocator<unsigned int> >::_Vector_impl" }
%"struct.std::_Vector_base<unsigned int, std::allocator<unsigned int> >::_Vector_impl" = type { i32*, i32*, i32* }
%"class.std::allocator.39" = type { i8 }
%"struct.std::pair.42" = type { %"class.boost::range_detail::integer_iterator", %"class.boost::range_detail::integer_iterator" }
%"class.boost::tuples::tuple.43" = type { %"struct.boost::tuples::cons.44" }
%"struct.boost::tuples::cons.44" = type { %"class.boost::range_detail::integer_iterator"*, %"struct.boost::tuples::cons.45" }
%"struct.boost::tuples::cons.45" = type { %"class.boost::range_detail::integer_iterator"* }
%"class.boost::tuples::tuple.46" = type { %"struct.boost::tuples::cons.47" }
%"struct.boost::tuples::cons.47" = type { %"class.boost::detail::edge_desc_impl"*, %"struct.boost::tuples::cons.48" }
%"struct.boost::tuples::cons.48" = type { i8* }
%"struct.std::pair.49" = type { %"class.boost::detail::edge_desc_impl", i8 }
%"class.boost::detail::adj_list_edge_iterator.50" = type { %"class.boost::range_detail::integer_iterator", %"class.boost::range_detail::integer_iterator", %"class.boost::range_detail::integer_iterator", %"class.boost::optional", %"class.boost::adjacency_list.20"* }
%"class.boost::shared_array_property_map" = type { %"class.boost::shared_array", %"struct.boost::vec_adj_list_vertex_id_map.35" }
%"class.boost::shared_array" = type { i32*, %"class.boost::detail::shared_count" }
%"class.boost::detail::shared_count" = type { %"class.boost::detail::sp_counted_base"* }
%"class.boost::detail::sp_counted_base" = type { i32 (...)**, i32, i32 }
%"class.boost::dummy_property_map" = type { i32 }
%"class.boost::bellman_visitor" = type { %"struct.boost::null_visitor" }
%"struct.boost::null_visitor" = type { i8 }
%"class.boost::tuples::tuple.53" = type { %"struct.boost::tuples::cons.54" }
%"struct.boost::tuples::cons.54" = type { %"class.boost::detail::adj_list_edge_iterator.50"*, %"struct.boost::tuples::cons.55" }
%"struct.boost::tuples::cons.55" = type { %"class.boost::detail::adj_list_edge_iterator.50"* }
%"struct.std::pair.56" = type { %"class.boost::detail::adj_list_edge_iterator.50", %"class.boost::detail::adj_list_edge_iterator.50" }
%"class.boost::dijkstra_visitor" = type { %"class.boost::bfs_visitor" }
%"class.boost::bfs_visitor" = type { %"struct.boost::null_visitor" }
%"struct.boost::adj_list_helper.22" = type { i8 }
%"struct.boost::put_get_helper" = type { i8 }
%"struct.boost::put_get_helper.34" = type { i8 }
%"struct.boost::put_get_helper.51" = type { i8 }
%"struct.boost::directed_edges_helper.24" = type { i8 }
%"struct.boost::put_get_helper.33" = type { i8 }
%"struct.boost::put_get_helper.36" = type { i8 }
%"struct.boost::is_convertible.78" = type { i8 }
%"struct.boost::bgl_named_params.65" = type { i8, %"struct.boost::no_property" }
%"struct.boost::graph::detail::no_parameter" = type { i8 }
%"struct.std::_List_node" = type { %"struct.std::__detail::_List_node_base", %"struct.boost::list_edge" }
%"struct.boost::list_edge" = type { %"struct.boost::detail::edge_base.57", %"struct.boost::property" }
%"struct.boost::detail::edge_base.57" = type { i32, i32 }
%"class.std::allocator.58" = type { i8 }
%"class.__gnu_cxx::new_allocator.59" = type { i8 }
%"class.std::allocator" = type { i8 }
%"class.__gnu_cxx::new_allocator" = type { i8 }
%"class.std::allocator.27" = type { i8 }
%"class.__gnu_cxx::new_allocator.28" = type { i8 }
%"class.std::allocator.13" = type { i8 }
%"class.__gnu_cxx::new_allocator.14" = type { i8 }
%"class.__gnu_cxx::new_allocator.40" = type { i8 }
%"struct.mpl_::bool_.61" = type { i8 }
%"struct.boost::integral_constant" = type { i8 }
%union.anon.64 = type { i8* }
%"struct.boost::two_bit_color_map" = type { i32, %"struct.boost::vec_adj_list_vertex_id_map.35", %"class.boost::shared_array.66" }
%"class.boost::shared_array.66" = type { i8*, %"class.boost::detail::shared_count" }
%"struct.boost::graph::bfs_visitor_event_not_overridden" = type { i8 }
%"struct.boost::put_get_helper.52" = type { i8 }
%"struct.boost::on_initialize_vertex" = type { i8 }
%"struct.boost::detail::dummy_pmap_reference" = type { i8 }
%"class.boost::indirect_cmp" = type { %"struct.boost::vec_adj_list_vertex_property_map", %"struct.std::less" }
%"class.boost::scoped_array" = type { i32* }
%"class.boost::iterator_property_map" = type { i32*, %"struct.boost::vec_adj_list_vertex_id_map.35" }
%"class.boost::d_ary_heap_indirect" = type { %"struct.std::less", %"class.std::vector.37", %"struct.boost::vec_adj_list_vertex_property_map", %"class.boost::iterator_property_map" }
%"struct.boost::detail::dijkstra_bfs_visitor" = type { %"class.boost::dijkstra_visitor", %"class.boost::d_ary_heap_indirect"*, %"struct.boost::adj_list_edge_property_map.32", %"class.boost::dummy_property_map", %"struct.boost::vec_adj_list_vertex_property_map", %"struct.boost::closed_plus", %"struct.std::less", i32 }
%"class.boost::tuples::tuple.68" = type { %"struct.boost::tuples::cons.69" }
%"struct.boost::tuples::cons.69" = type { %"struct.boost::detail::out_edge_iter"*, %"struct.boost::tuples::cons.70" }
%"struct.boost::tuples::cons.70" = type { %"struct.boost::detail::out_edge_iter"* }
%"struct.boost::put_get_helper.67" = type { i8 }
%"struct.boost::is_convertible" = type { i8 }
%"struct.boost::negative_edge" = type { %"struct.boost::bad_graph" }
%"struct.boost::bad_graph" = type { %"class.std::invalid_argument" }
%"class.std::invalid_argument" = type { %"class.std::logic_error" }
%"class.std::logic_error" = type { %"class.std::exception", %"class.std::basic_string" }
%"class.std::exception" = type { i32 (...)** }
%"class.std::basic_string" = type { %"struct.std::basic_string<char, std::char_traits<char>, std::allocator<char> >::_Alloc_hider" }
%"struct.std::basic_string<char, std::char_traits<char>, std::allocator<char> >::_Alloc_hider" = type { i8* }
%"struct.boost::on_finish_vertex" = type { i8 }
%"struct.boost::on_edge_relaxed" = type { i8 }
%"struct.boost::on_edge_not_relaxed" = type { i8 }
%"struct.boost::exception_detail::error_info_injector" = type { %"struct.boost::negative_edge", %"class.boost::exception" }
%"class.boost::exception" = type { i32 (...)**, %"class.boost::exception_detail::refcount_ptr", i8*, i8*, i32 }
%"class.boost::exception_detail::refcount_ptr" = type { %"struct.boost::exception_detail::error_info_container"* }
%"struct.boost::exception_detail::error_info_container" = type { i32 (...)** }
%"class.boost::exception_detail::clone_impl" = type { %"struct.boost::exception_detail::error_info_injector", %"class.boost::exception_detail::clone_base" }
%"class.boost::exception_detail::clone_base" = type { i32 (...)** }
%"struct.boost::on_examine_edge" = type { i8 }
%"class.std::allocator.71" = type { i8 }
%"struct.boost::exception_detail::clone_impl<boost::exception_detail::error_info_injector<boost::negative_edge> >::clone_tag" = type { i8 }
%"struct.boost::tuples::null_type" = type { i8 }
%"struct.boost::on_examine_vertex" = type { i8 }
%"class.__gnu_cxx::__normal_iterator.76" = type { i32* }
%"class.__gnu_cxx::__normal_iterator.75" = type { i32* }
%"struct.boost::on_discover_vertex" = type { i8 }
%"struct.boost::RandomAccessIteratorConcept" = type { %"struct.boost::RandomAccessIterator" }
%"struct.boost::RandomAccessIterator" = type { %"struct.boost::BidirectionalIterator", %"struct.boost::Comparable", i32*, i32*, i32*, i32*, i32 }
%"struct.boost::BidirectionalIterator" = type { %"struct.boost::ForwardIterator", i32* }
%"struct.boost::ForwardIterator" = type { %"struct.boost::InputIterator", i32* }
%"struct.boost::InputIterator" = type { %"struct.boost::Assignable", %"struct.boost::EqualityComparable", i32* }
%"struct.boost::Assignable" = type { i32*, i32* }
%"struct.boost::EqualityComparable" = type { i32*, i32* }
%"struct.boost::Comparable" = type { i32*, i32* }
%"struct.boost::checked_array_deleter" = type { i8 }
%"class.boost::detail::sp_counted_impl_pd" = type { %"class.boost::detail::sp_counted_base", i8*, %"struct.boost::checked_array_deleter" }
%"class.std::type_info" = type { i32 (...)**, i8* }
%union.anon.77 = type { i8* }
%"struct.boost::optional_detail::optional_tag" = type { i8 }
%"struct.boost::on_edge_not_minimized" = type { i8 }
%"struct.boost::on_edge_minimized" = type { i8 }
%"struct.boost::checked_array_deleter.79" = type { i8 }
%"class.boost::detail::sp_counted_impl_pd.80" = type { %"class.boost::detail::sp_counted_base", i32*, %"struct.boost::checked_array_deleter.79" }
%"struct.boost::directed_graph_helper.23" = type { i8 }
%"class.__gnu_cxx::__normal_iterator.84" = type { %"struct.boost::detail::adj_list_gen<boost::adjacency_list<boost::vecS, boost::vecS, boost::directedS, boost::property<boost::vertex_distance_t, int, boost::no_property>, boost::property<boost::edge_weight_t, int, boost::property<boost::edge_weight2_t, int, boost::no_property> >, boost::no_property, boost::listS>, boost::vecS, boost::vecS, boost::directedS, boost::property<boost::vertex_distance_t, int, boost::no_property>, boost::property<boost::edge_weight_t, int, boost::property<boost::edge_weight2_t, int, boost::no_property> >, boost::no_property, boost::listS>::config::stored_vertex"* }
%"class.boost::tuples::tuple.81" = type { %"struct.boost::tuples::cons.82" }
%"struct.boost::tuples::cons.82" = type { %"class.__gnu_cxx::__normal_iterator"*, %"struct.boost::tuples::cons.48" }
%"struct.std::pair.83" = type { %"class.__gnu_cxx::__normal_iterator", i8 }
%"struct.boost::graph_detail::back_insertion_sequence_tag" = type { %"struct.boost::graph_detail::sequence_tag" }
%"struct.boost::graph_detail::sequence_tag" = type { %"struct.boost::graph_detail::forward_container_tag" }
%"struct.boost::graph_detail::forward_container_tag" = type { i32 (...)** }
%"struct.boost::graph_detail::vector_tag" = type { %"struct.boost::graph_detail::random_access_container_tag", %"struct.boost::graph_detail::back_insertion_sequence_tag" }
%"struct.boost::graph_detail::random_access_container_tag" = type { %"struct.boost::graph_detail::reversible_container_tag" }
%"struct.boost::graph_detail::reversible_container_tag" = type { %"struct.boost::graph_detail::forward_container_tag" }
%"struct.boost::equality_comparable1" = type { i8 }
%"struct.boost::graph_detail::container_tag" = type { i8 }
%"class.__gnu_cxx::__normal_iterator.85" = type { %"class.boost::detail::stored_edge_property"* }
%"struct.boost::graph::maybe_named_graph.31" = type { i8 }
%"struct.boost::graph::maybe_named_graph" = type { i8 }
%"class.std::allocator.0" = type { i8 }
%"class.__gnu_cxx::new_allocator.1" = type { i8 }
%"struct.boost::directed_graph_helper" = type { i8 }
%"class.__gnu_cxx::__normal_iterator.86" = type { %"struct.boost::detail::adj_list_gen<boost::adjacency_list<boost::vecS, boost::vecS, boost::directedS, boost::no_property, boost::property<boost::edge_weight_t, int, boost::property<boost::edge_weight2_t, int, boost::no_property> >, boost::no_property, boost::listS>, boost::vecS, boost::vecS, boost::directedS, boost::no_property, boost::property<boost::edge_weight_t, int, boost::property<boost::edge_weight2_t, int, boost::no_property> >, boost::no_property, boost::listS>::config::stored_vertex"* }
%"class.__gnu_cxx::new_allocator.8" = type { i8 }
%"struct.std::__true_type" = type { i8 }

@_ZStL8__ioinit = internal global %"class.std::ios_base::Init" zeroinitializer, align 1
@__dso_handle = external global i8
@_ZN5boost6detailL28make_color_map_from_arg_packE = internal global %"class.boost::detail::make_property_map_from_arg_pack_gen" zeroinitializer, align 4
@_ZZ4mainE7weights = private unnamed_addr constant [14 x i32] [i32 0, i32 0, i32 0, i32 0, i32 0, i32 3, i32 -4, i32 8, i32 1, i32 7, i32 4, i32 -5, i32 2, i32 6], align 4
@_ZSt4cout = external global %"class.std::basic_ostream"
@.str = private unnamed_addr constant [8 x i8] c"       \00", align 1
@.str2 = private unnamed_addr constant [5 x i8] c" -> \00", align 1
@.str3 = private unnamed_addr constant [4 x i8] c"inf\00", align 1
@.str4 = private unnamed_addr constant [20 x i8] c"figs/johnson-eg.dot\00", align 1
@.str5 = private unnamed_addr constant [13 x i8] c"digraph A {\0A\00", align 1
@.str6 = private unnamed_addr constant [14 x i8] c"  rankdir=LR\0A\00", align 1
@.str7 = private unnamed_addr constant [12 x i8] c"size=\225,3\22\0A\00", align 1
@.str8 = private unnamed_addr constant [14 x i8] c"ratio=\22fill\22\0A\00", align 1
@.str9 = private unnamed_addr constant [20 x i8] c"edge[style=\22bold\22]\0A\00", align 1
@.str10 = private unnamed_addr constant [22 x i8] c"node[shape=\22circle\22]\0A\00", align 1
@.str11 = private unnamed_addr constant [8 x i8] c"[label=\00", align 1
@.str12 = private unnamed_addr constant [3 x i8] c"]\0A\00", align 1
@.str13 = private unnamed_addr constant [3 x i8] c"}\0A\00", align 1
@_ZZN5boost3getINS_26vec_adj_list_vertex_id_mapINS_8propertyINS_17vertex_distance_tEiNS_11no_propertyEEEjEEEENS_18two_bit_color_typeERKNS_17two_bit_color_mapIT_EENS_15property_traitsIS9_E8key_typeEE17elements_per_char = linkonce_odr constant i32 4, align 4
@.str14 = private unnamed_addr constant [22 x i8] c"(std::size_t)i < pm.n\00", align 1
@.str15 = private unnamed_addr constant [60 x i8] c"/home/thomas/boost_1_52_0/boost/graph/two_bit_color_map.hpp\00", align 1
@__PRETTY_FUNCTION__._ZN5boost3getINS_26vec_adj_list_vertex_id_mapINS_8propertyINS_17vertex_distance_tEiNS_11no_propertyEEEjEEEENS_18two_bit_color_typeERKNS_17two_bit_color_mapIT_EENS_15property_traitsIS9_E8key_typeE = private unnamed_addr constant [249 x i8] c"boost::two_bit_color_type boost::get(const two_bit_color_map<IndexMap> &, typename property_traits<IndexMap>::key_type) [IndexMap = boost::vec_adj_list_vertex_id_map<boost::property<boost::vertex_distance_t, int, boost::no_property>, unsigned int>]\00", align 1
@.str16 = private unnamed_addr constant [56 x i8] c"The graph may not contain an edge with negative weight.\00", align 1
@_ZTVN5boost13negative_edgeE = linkonce_odr unnamed_addr constant [5 x i8*] [i8* null, i8* bitcast ({ i8*, i8*, i8* }* @_ZTIN5boost13negative_edgeE to i8*), i8* bitcast (void (%"struct.boost::negative_edge"*)* @_ZN5boost13negative_edgeD1Ev to i8*), i8* bitcast (void (%"struct.boost::negative_edge"*)* @_ZN5boost13negative_edgeD0Ev to i8*), i8* bitcast (i8* (%"class.std::logic_error"*)* @_ZNKSt11logic_error4whatEv to i8*)]
@_ZTVN10__cxxabiv120__si_class_type_infoE = external global i8*
@_ZTSN5boost13negative_edgeE = linkonce_odr constant [24 x i8] c"N5boost13negative_edgeE\00"
@_ZTSN5boost9bad_graphE = linkonce_odr constant [19 x i8] c"N5boost9bad_graphE\00"
@_ZTISt16invalid_argument = external constant i8*
@_ZTIN5boost9bad_graphE = linkonce_odr unnamed_addr constant { i8*, i8*, i8* } { i8* bitcast (i8** getelementptr inbounds (i8** @_ZTVN10__cxxabiv120__si_class_type_infoE, i32 2) to i8*), i8* getelementptr inbounds ([19 x i8]* @_ZTSN5boost9bad_graphE, i32 0, i32 0), i8* bitcast (i8** @_ZTISt16invalid_argument to i8*) }
@_ZTIN5boost13negative_edgeE = linkonce_odr unnamed_addr constant { i8*, i8*, i8* } { i8* bitcast (i8** getelementptr inbounds (i8** @_ZTVN10__cxxabiv120__si_class_type_infoE, i32 2) to i8*), i8* getelementptr inbounds ([24 x i8]* @_ZTSN5boost13negative_edgeE, i32 0, i32 0), i8* bitcast ({ i8*, i8*, i8* }* @_ZTIN5boost9bad_graphE to i8*) }
@_ZTVN5boost9bad_graphE = linkonce_odr unnamed_addr constant [5 x i8*] [i8* null, i8* bitcast ({ i8*, i8*, i8* }* @_ZTIN5boost9bad_graphE to i8*), i8* bitcast (void (%"struct.boost::bad_graph"*)* @_ZN5boost9bad_graphD1Ev to i8*), i8* bitcast (void (%"struct.boost::bad_graph"*)* @_ZN5boost9bad_graphD0Ev to i8*), i8* bitcast (i8* (%"class.std::logic_error"*)* @_ZNKSt11logic_error4whatEv to i8*)]
@_ZTVN10__cxxabiv121__vmi_class_type_infoE = external global i8*
@_ZTSN5boost16exception_detail10clone_implINS0_19error_info_injectorINS_13negative_edgeEEEEE = linkonce_odr constant [88 x i8] c"N5boost16exception_detail10clone_implINS0_19error_info_injectorINS_13negative_edgeEEEEE\00"
@_ZTSN5boost16exception_detail19error_info_injectorINS_13negative_edgeEEE = linkonce_odr constant [69 x i8] c"N5boost16exception_detail19error_info_injectorINS_13negative_edgeEEE\00"
@_ZTVN10__cxxabiv117__class_type_infoE = external global i8*
@_ZTSN5boost9exceptionE = linkonce_odr constant [19 x i8] c"N5boost9exceptionE\00"
@_ZTIN5boost9exceptionE = linkonce_odr unnamed_addr constant { i8*, i8* } { i8* bitcast (i8** getelementptr inbounds (i8** @_ZTVN10__cxxabiv117__class_type_infoE, i32 2) to i8*), i8* getelementptr inbounds ([19 x i8]* @_ZTSN5boost9exceptionE, i32 0, i32 0) }
@_ZTIN5boost16exception_detail19error_info_injectorINS_13negative_edgeEEE = linkonce_odr unnamed_addr constant { i8*, i8*, i32, i32, i8*, i32, i8*, i32 } { i8* bitcast (i8** getelementptr inbounds (i8** @_ZTVN10__cxxabiv121__vmi_class_type_infoE, i32 2) to i8*), i8* getelementptr inbounds ([69 x i8]* @_ZTSN5boost16exception_detail19error_info_injectorINS_13negative_edgeEEE, i32 0, i32 0), i32 0, i32 2, i8* bitcast ({ i8*, i8*, i8* }* @_ZTIN5boost13negative_edgeE to i8*), i32 2, i8* bitcast ({ i8*, i8* }* @_ZTIN5boost9exceptionE to i8*), i32 2050 }
@_ZTSN5boost16exception_detail10clone_baseE = linkonce_odr constant [39 x i8] c"N5boost16exception_detail10clone_baseE\00"
@_ZTIN5boost16exception_detail10clone_baseE = linkonce_odr unnamed_addr constant { i8*, i8* } { i8* bitcast (i8** getelementptr inbounds (i8** @_ZTVN10__cxxabiv117__class_type_infoE, i32 2) to i8*), i8* getelementptr inbounds ([39 x i8]* @_ZTSN5boost16exception_detail10clone_baseE, i32 0, i32 0) }
@_ZTIN5boost16exception_detail10clone_implINS0_19error_info_injectorINS_13negative_edgeEEEEE = linkonce_odr unnamed_addr constant { i8*, i8*, i32, i32, i8*, i32, i8*, i32 } { i8* bitcast (i8** getelementptr inbounds (i8** @_ZTVN10__cxxabiv121__vmi_class_type_infoE, i32 2) to i8*), i8* getelementptr inbounds ([88 x i8]* @_ZTSN5boost16exception_detail10clone_implINS0_19error_info_injectorINS_13negative_edgeEEEEE, i32 0, i32 0), i32 0, i32 2, i8* bitcast ({ i8*, i8*, i32, i32, i8*, i32, i8*, i32 }* @_ZTIN5boost16exception_detail19error_info_injectorINS_13negative_edgeEEE to i8*), i32 2, i8* bitcast ({ i8*, i8* }* @_ZTIN5boost16exception_detail10clone_baseE to i8*), i32 -3069 }
@_ZTVN5boost9exceptionE = linkonce_odr unnamed_addr constant [4 x i8*] [i8* null, i8* bitcast ({ i8*, i8* }* @_ZTIN5boost9exceptionE to i8*), i8* bitcast (void ()* @__cxa_pure_virtual to i8*), i8* bitcast (void ()* @__cxa_pure_virtual to i8*)]
@_ZTVN5boost16exception_detail10clone_implINS0_19error_info_injectorINS_13negative_edgeEEEEE = linkonce_odr unnamed_addr constant [21 x i8*] [i8* inttoptr (i32 28 to i8*), i8* null, i8* bitcast ({ i8*, i8*, i32, i32, i8*, i32, i8*, i32 }* @_ZTIN5boost16exception_detail10clone_implINS0_19error_info_injectorINS_13negative_edgeEEEEE to i8*), i8* bitcast (void (%"class.boost::exception_detail::clone_impl"*)* @_ZN5boost16exception_detail10clone_implINS0_19error_info_injectorINS_13negative_edgeEEEED1Ev to i8*), i8* bitcast (void (%"class.boost::exception_detail::clone_impl"*)* @_ZN5boost16exception_detail10clone_implINS0_19error_info_injectorINS_13negative_edgeEEEED0Ev to i8*), i8* bitcast (i8* (%"class.std::logic_error"*)* @_ZNKSt11logic_error4whatEv to i8*), i8* bitcast (%"class.boost::exception_detail::clone_base"* (%"class.boost::exception_detail::clone_impl"*)* @_ZNK5boost16exception_detail10clone_implINS0_19error_info_injectorINS_13negative_edgeEEEE5cloneEv to i8*), i8* bitcast (void (%"class.boost::exception_detail::clone_impl"*)* @_ZNK5boost16exception_detail10clone_implINS0_19error_info_injectorINS_13negative_edgeEEEE7rethrowEv to i8*), i8* inttoptr (i32 -8 to i8*), i8* bitcast ({ i8*, i8*, i32, i32, i8*, i32, i8*, i32 }* @_ZTIN5boost16exception_detail10clone_implINS0_19error_info_injectorINS_13negative_edgeEEEEE to i8*), i8* bitcast (void (%"class.boost::exception_detail::clone_impl"*)* @_ZThn8_N5boost16exception_detail10clone_implINS0_19error_info_injectorINS_13negative_edgeEEEED1Ev to i8*), i8* bitcast (void (%"class.boost::exception_detail::clone_impl"*)* @_ZThn8_N5boost16exception_detail10clone_implINS0_19error_info_injectorINS_13negative_edgeEEEED0Ev to i8*), i8* inttoptr (i32 -28 to i8*), i8* inttoptr (i32 -28 to i8*), i8* inttoptr (i32 -28 to i8*), i8* inttoptr (i32 -28 to i8*), i8* bitcast ({ i8*, i8*, i32, i32, i8*, i32, i8*, i32 }* @_ZTIN5boost16exception_detail10clone_implINS0_19error_info_injectorINS_13negative_edgeEEEEE to i8*), i8* bitcast (%"class.boost::exception_detail::clone_base"* (%"class.boost::exception_detail::clone_impl"*)* @_ZTv0_n12_NK5boost16exception_detail10clone_implINS0_19error_info_injectorINS_13negative_edgeEEEE5cloneEv to i8*), i8* bitcast (void (%"class.boost::exception_detail::clone_impl"*)* @_ZTv0_n16_NK5boost16exception_detail10clone_implINS0_19error_info_injectorINS_13negative_edgeEEEE7rethrowEv to i8*), i8* bitcast (void (%"class.boost::exception_detail::clone_impl"*)* @_ZTv0_n20_N5boost16exception_detail10clone_implINS0_19error_info_injectorINS_13negative_edgeEEEED1Ev to i8*), i8* bitcast (void (%"class.boost::exception_detail::clone_impl"*)* @_ZTv0_n20_N5boost16exception_detail10clone_implINS0_19error_info_injectorINS_13negative_edgeEEEED0Ev to i8*)]
@_ZTTN5boost16exception_detail10clone_implINS0_19error_info_injectorINS_13negative_edgeEEEEE = linkonce_odr unnamed_addr constant [2 x i8*] [i8* bitcast (i8** getelementptr inbounds ([21 x i8*]* @_ZTVN5boost16exception_detail10clone_implINS0_19error_info_injectorINS_13negative_edgeEEEEE, i64 0, i64 3) to i8*), i8* bitcast (i8** getelementptr inbounds ([21 x i8*]* @_ZTVN5boost16exception_detail10clone_implINS0_19error_info_injectorINS_13negative_edgeEEEEE, i64 0, i64 17) to i8*)]
@_ZTVN5boost16exception_detail19error_info_injectorINS_13negative_edgeEEE = linkonce_odr unnamed_addr constant [9 x i8*] [i8* null, i8* bitcast ({ i8*, i8*, i32, i32, i8*, i32, i8*, i32 }* @_ZTIN5boost16exception_detail19error_info_injectorINS_13negative_edgeEEE to i8*), i8* bitcast (void (%"struct.boost::exception_detail::error_info_injector"*)* @_ZN5boost16exception_detail19error_info_injectorINS_13negative_edgeEED1Ev to i8*), i8* bitcast (void (%"struct.boost::exception_detail::error_info_injector"*)* @_ZN5boost16exception_detail19error_info_injectorINS_13negative_edgeEED0Ev to i8*), i8* bitcast (i8* (%"class.std::logic_error"*)* @_ZNKSt11logic_error4whatEv to i8*), i8* inttoptr (i32 -8 to i8*), i8* bitcast ({ i8*, i8*, i32, i32, i8*, i32, i8*, i32 }* @_ZTIN5boost16exception_detail19error_info_injectorINS_13negative_edgeEEE to i8*), i8* bitcast (void (%"struct.boost::exception_detail::error_info_injector"*)* @_ZThn8_N5boost16exception_detail19error_info_injectorINS_13negative_edgeEED1Ev to i8*), i8* bitcast (void (%"struct.boost::exception_detail::error_info_injector"*)* @_ZThn8_N5boost16exception_detail19error_info_injectorINS_13negative_edgeEED0Ev to i8*)]
@_ZTVSt16invalid_argument = external unnamed_addr constant [5 x i8*]
@_ZTVSt11logic_error = external unnamed_addr constant [5 x i8*]
@_ZTVSt9exception = external unnamed_addr constant [5 x i8*]
@_ZTVN5boost16exception_detail10clone_baseE = linkonce_odr unnamed_addr constant [6 x i8*] [i8* null, i8* bitcast ({ i8*, i8* }* @_ZTIN5boost16exception_detail10clone_baseE to i8*), i8* bitcast (void ()* @__cxa_pure_virtual to i8*), i8* bitcast (void ()* @__cxa_pure_virtual to i8*), i8* bitcast (void (%"class.boost::exception_detail::clone_base"*)* @_ZN5boost16exception_detail10clone_baseD1Ev to i8*), i8* bitcast (void (%"class.boost::exception_detail::clone_base"*)* @_ZN5boost16exception_detail10clone_baseD0Ev to i8*)]
@.str17 = private unnamed_addr constant [22 x i8] c"vector::_M_insert_aux\00", align 1
@.str18 = private unnamed_addr constant [18 x i8] c"p == 0 || p != px\00", align 1
@.str19 = private unnamed_addr constant [59 x i8] c"/home/thomas/boost_1_52_0/boost/smart_ptr/scoped_array.hpp\00", align 1
@__PRETTY_FUNCTION__._ZN5boost12scoped_arrayIjE5resetEPj = private unnamed_addr constant [70 x i8] c"void boost::scoped_array<unsigned int>::reset(T *) [T = unsigned int]\00", align 1
@_ZZN5boost3putINS_26vec_adj_list_vertex_id_mapINS_8propertyINS_17vertex_distance_tEiNS_11no_propertyEEEjEEEEvRKNS_17two_bit_color_mapIT_EENS_15property_traitsIS8_E8key_typeENS_18two_bit_color_typeEE17elements_per_char = linkonce_odr constant i32 4, align 4
@__PRETTY_FUNCTION__._ZN5boost3putINS_26vec_adj_list_vertex_id_mapINS_8propertyINS_17vertex_distance_tEiNS_11no_propertyEEEjEEEEvRKNS_17two_bit_color_mapIT_EENS_15property_traitsIS8_E8key_typeENS_18two_bit_color_typeE = private unnamed_addr constant [255 x i8] c"void boost::put(const two_bit_color_map<IndexMap> &, typename property_traits<IndexMap>::key_type, boost::two_bit_color_type) [IndexMap = boost::vec_adj_list_vertex_id_map<boost::property<boost::vertex_distance_t, int, boost::no_property>, unsigned int>]\00", align 1
@.str20 = private unnamed_addr constant [24 x i8] c"value >= 0 && value < 4\00", align 1
@_ZTVN5boost6detail18sp_counted_impl_pdIPhNS_21checked_array_deleterIhEEEE = linkonce_odr unnamed_addr constant [7 x i8*] [i8* null, i8* bitcast ({ i8*, i8*, i8* }* @_ZTIN5boost6detail18sp_counted_impl_pdIPhNS_21checked_array_deleterIhEEEE to i8*), i8* bitcast (void (%"class.boost::detail::sp_counted_impl_pd"*)* @_ZN5boost6detail18sp_counted_impl_pdIPhNS_21checked_array_deleterIhEEED1Ev to i8*), i8* bitcast (void (%"class.boost::detail::sp_counted_impl_pd"*)* @_ZN5boost6detail18sp_counted_impl_pdIPhNS_21checked_array_deleterIhEEED0Ev to i8*), i8* bitcast (void (%"class.boost::detail::sp_counted_impl_pd"*)* @_ZN5boost6detail18sp_counted_impl_pdIPhNS_21checked_array_deleterIhEEE7disposeEv to i8*), i8* bitcast (void (%"class.boost::detail::sp_counted_base"*)* @_ZN5boost6detail15sp_counted_base7destroyEv to i8*), i8* bitcast (i8* (%"class.boost::detail::sp_counted_impl_pd"*, %"class.std::type_info"*)* @_ZN5boost6detail18sp_counted_impl_pdIPhNS_21checked_array_deleterIhEEE11get_deleterERKSt9type_info to i8*)]
@_ZTSN5boost6detail18sp_counted_impl_pdIPhNS_21checked_array_deleterIhEEEE = linkonce_odr constant [70 x i8] c"N5boost6detail18sp_counted_impl_pdIPhNS_21checked_array_deleterIhEEEE\00"
@_ZTSN5boost6detail15sp_counted_baseE = linkonce_odr constant [33 x i8] c"N5boost6detail15sp_counted_baseE\00"
@_ZTIN5boost6detail15sp_counted_baseE = linkonce_odr unnamed_addr constant { i8*, i8* } { i8* bitcast (i8** getelementptr inbounds (i8** @_ZTVN10__cxxabiv117__class_type_infoE, i32 2) to i8*), i8* getelementptr inbounds ([33 x i8]* @_ZTSN5boost6detail15sp_counted_baseE, i32 0, i32 0) }
@_ZTIN5boost6detail18sp_counted_impl_pdIPhNS_21checked_array_deleterIhEEEE = linkonce_odr unnamed_addr constant { i8*, i8*, i8* } { i8* bitcast (i8** getelementptr inbounds (i8** @_ZTVN10__cxxabiv120__si_class_type_infoE, i32 2) to i8*), i8* getelementptr inbounds ([70 x i8]* @_ZTSN5boost6detail18sp_counted_impl_pdIPhNS_21checked_array_deleterIhEEEE, i32 0, i32 0), i8* bitcast ({ i8*, i8* }* @_ZTIN5boost6detail15sp_counted_baseE to i8*) }
@_ZTSN5boost21checked_array_deleterIhEE = linkonce_odr constant [35 x i8] c"N5boost21checked_array_deleterIhEE\00"
@_ZTIN5boost21checked_array_deleterIhEE = linkonce_odr unnamed_addr constant { i8*, i8* } { i8* bitcast (i8** getelementptr inbounds (i8** @_ZTVN10__cxxabiv117__class_type_infoE, i32 2) to i8*), i8* getelementptr inbounds ([35 x i8]* @_ZTSN5boost21checked_array_deleterIhEE, i32 0, i32 0) }
@_ZTVN5boost6detail15sp_counted_baseE = linkonce_odr unnamed_addr constant [7 x i8*] [i8* null, i8* bitcast ({ i8*, i8* }* @_ZTIN5boost6detail15sp_counted_baseE to i8*), i8* bitcast (void (%"class.boost::detail::sp_counted_base"*)* @_ZN5boost6detail15sp_counted_baseD1Ev to i8*), i8* bitcast (void (%"class.boost::detail::sp_counted_base"*)* @_ZN5boost6detail15sp_counted_baseD0Ev to i8*), i8* bitcast (void ()* @__cxa_pure_virtual to i8*), i8* bitcast (void (%"class.boost::detail::sp_counted_base"*)* @_ZN5boost6detail15sp_counted_base7destroyEv to i8*), i8* bitcast (void ()* @__cxa_pure_virtual to i8*)]
@.str21 = private unnamed_addr constant [23 x i8] c"this->is_initialized()\00", align 1
@.str22 = private unnamed_addr constant [54 x i8] c"/home/thomas/boost_1_52_0/boost/optional/optional.hpp\00", align 1
@__PRETTY_FUNCTION__._ZN5boost8optionalISt4pairINS_6detail13out_edge_iterIN9__gnu_cxx17__normal_iteratorIPNS2_20stored_edge_propertyIjNS_8propertyINS_13edge_weight_tEiNS7_INS_14edge_weight2_tEiNS_11no_propertyEEEEEEESt6vectorISD_SaISD_EEEEjNS2_14edge_desc_implINS_12directed_tagEjEEiEESM_EEptEv = private unnamed_addr constant [2733 x i8] c"pointer_type boost::optional<std::pair<boost::detail::out_edge_iter<__gnu_cxx::__normal_iterator<boost::detail::stored_edge_property<unsigned int, boost::property<boost::edge_weight_t, int, boost::property<boost::edge_weight2_t, int, boost::no_property> > > *, std::vector<boost::detail::stored_edge_property<unsigned int, boost::property<boost::edge_weight_t, int, boost::property<boost::edge_weight2_t, int, boost::no_property> > >, std::allocator<boost::detail::stored_edge_property<unsigned int, boost::property<boost::edge_weight_t, int, boost::property<boost::edge_weight2_t, int, boost::no_property> > > > > >, unsigned int, boost::detail::edge_desc_impl<boost::directed_tag, unsigned int>, int>, boost::detail::out_edge_iter<__gnu_cxx::__normal_iterator<boost::detail::stored_edge_property<unsigned int, boost::property<boost::edge_weight_t, int, boost::property<boost::edge_weight2_t, int, boost::no_property> > > *, std::vector<boost::detail::stored_edge_property<unsigned int, boost::property<boost::edge_weight_t, int, boost::property<boost::edge_weight2_t, int, boost::no_property> > >, std::allocator<boost::detail::stored_edge_property<unsigned int, boost::property<boost::edge_weight_t, int, boost::property<boost::edge_weight2_t, int, boost::no_property> > > > > >, unsigned int, boost::detail::edge_desc_impl<boost::directed_tag, unsigned int>, int> > >::operator->() [T = std::pair<boost::detail::out_edge_iter<__gnu_cxx::__normal_iterator<boost::detail::stored_edge_property<unsigned int, boost::property<boost::edge_weight_t, int, boost::property<boost::edge_weight2_t, int, boost::no_property> > > *, std::vector<boost::detail::stored_edge_property<unsigned int, boost::property<boost::edge_weight_t, int, boost::property<boost::edge_weight2_t, int, boost::no_property> > >, std::allocator<boost::detail::stored_edge_property<unsigned int, boost::property<boost::edge_weight_t, int, boost::property<boost::edge_weight2_t, int, boost::no_property> > > > > >, unsigned int, boost::detail::edge_desc_impl<boost::directed_tag, unsigned int>, int>, boost::detail::out_edge_iter<__gnu_cxx::__normal_iterator<boost::detail::stored_edge_property<unsigned int, boost::property<boost::edge_weight_t, int, boost::property<boost::edge_weight2_t, int, boost::no_property> > > *, std::vector<boost::detail::stored_edge_property<unsigned int, boost::property<boost::edge_weight_t, int, boost::property<boost::edge_weight2_t, int, boost::no_property> > >, std::allocator<boost::detail::stored_edge_property<unsigned int, boost::property<boost::edge_weight_t, int, boost::property<boost::edge_weight2_t, int, boost::no_property> > > > > >, unsigned int, boost::detail::edge_desc_impl<boost::directed_tag, unsigned int>, int> >]\00", align 1
@.str23 = private unnamed_addr constant [8 x i8] c"px != 0\00", align 1
@.str24 = private unnamed_addr constant [59 x i8] c"/home/thomas/boost_1_52_0/boost/smart_ptr/shared_array.hpp\00", align 1
@__PRETTY_FUNCTION__._ZNK5boost12shared_arrayIiEixEi = private unnamed_addr constant [72 x i8] c"T &boost::shared_array<int>::operator[](std::ptrdiff_t) const [T = int]\00", align 1
@.str25 = private unnamed_addr constant [7 x i8] c"i >= 0\00", align 1
@__PRETTY_FUNCTION__._ZNK5boost8optionalISt4pairINS_6detail13out_edge_iterIN9__gnu_cxx17__normal_iteratorIPNS2_20stored_edge_propertyIjNS_8propertyINS_13edge_weight_tEiNS7_INS_14edge_weight2_tEiNS_11no_propertyEEEEEEESt6vectorISD_SaISD_EEEEjNS2_14edge_desc_implINS_12directed_tagEjEEiEESM_EEptEv = private unnamed_addr constant [2745 x i8] c"pointer_const_type boost::optional<std::pair<boost::detail::out_edge_iter<__gnu_cxx::__normal_iterator<boost::detail::stored_edge_property<unsigned int, boost::property<boost::edge_weight_t, int, boost::property<boost::edge_weight2_t, int, boost::no_property> > > *, std::vector<boost::detail::stored_edge_property<unsigned int, boost::property<boost::edge_weight_t, int, boost::property<boost::edge_weight2_t, int, boost::no_property> > >, std::allocator<boost::detail::stored_edge_property<unsigned int, boost::property<boost::edge_weight_t, int, boost::property<boost::edge_weight2_t, int, boost::no_property> > > > > >, unsigned int, boost::detail::edge_desc_impl<boost::directed_tag, unsigned int>, int>, boost::detail::out_edge_iter<__gnu_cxx::__normal_iterator<boost::detail::stored_edge_property<unsigned int, boost::property<boost::edge_weight_t, int, boost::property<boost::edge_weight2_t, int, boost::no_property> > > *, std::vector<boost::detail::stored_edge_property<unsigned int, boost::property<boost::edge_weight_t, int, boost::property<boost::edge_weight2_t, int, boost::no_property> > >, std::allocator<boost::detail::stored_edge_property<unsigned int, boost::property<boost::edge_weight_t, int, boost::property<boost::edge_weight2_t, int, boost::no_property> > > > > >, unsigned int, boost::detail::edge_desc_impl<boost::directed_tag, unsigned int>, int> > >::operator->() const [T = std::pair<boost::detail::out_edge_iter<__gnu_cxx::__normal_iterator<boost::detail::stored_edge_property<unsigned int, boost::property<boost::edge_weight_t, int, boost::property<boost::edge_weight2_t, int, boost::no_property> > > *, std::vector<boost::detail::stored_edge_property<unsigned int, boost::property<boost::edge_weight_t, int, boost::property<boost::edge_weight2_t, int, boost::no_property> > >, std::allocator<boost::detail::stored_edge_property<unsigned int, boost::property<boost::edge_weight_t, int, boost::property<boost::edge_weight2_t, int, boost::no_property> > > > > >, unsigned int, boost::detail::edge_desc_impl<boost::directed_tag, unsigned int>, int>, boost::detail::out_edge_iter<__gnu_cxx::__normal_iterator<boost::detail::stored_edge_property<unsigned int, boost::property<boost::edge_weight_t, int, boost::property<boost::edge_weight2_t, int, boost::no_property> > > *, std::vector<boost::detail::stored_edge_property<unsigned int, boost::property<boost::edge_weight_t, int, boost::property<boost::edge_weight2_t, int, boost::no_property> > >, std::allocator<boost::detail::stored_edge_property<unsigned int, boost::property<boost::edge_weight_t, int, boost::property<boost::edge_weight2_t, int, boost::no_property> > > > > >, unsigned int, boost::detail::edge_desc_impl<boost::directed_tag, unsigned int>, int> >]\00", align 1
@_ZTVN5boost6detail18sp_counted_impl_pdIPiNS_21checked_array_deleterIiEEEE = linkonce_odr unnamed_addr constant [7 x i8*] [i8* null, i8* bitcast ({ i8*, i8*, i8* }* @_ZTIN5boost6detail18sp_counted_impl_pdIPiNS_21checked_array_deleterIiEEEE to i8*), i8* bitcast (void (%"class.boost::detail::sp_counted_impl_pd.80"*)* @_ZN5boost6detail18sp_counted_impl_pdIPiNS_21checked_array_deleterIiEEED1Ev to i8*), i8* bitcast (void (%"class.boost::detail::sp_counted_impl_pd.80"*)* @_ZN5boost6detail18sp_counted_impl_pdIPiNS_21checked_array_deleterIiEEED0Ev to i8*), i8* bitcast (void (%"class.boost::detail::sp_counted_impl_pd.80"*)* @_ZN5boost6detail18sp_counted_impl_pdIPiNS_21checked_array_deleterIiEEE7disposeEv to i8*), i8* bitcast (void (%"class.boost::detail::sp_counted_base"*)* @_ZN5boost6detail15sp_counted_base7destroyEv to i8*), i8* bitcast (i8* (%"class.boost::detail::sp_counted_impl_pd.80"*, %"class.std::type_info"*)* @_ZN5boost6detail18sp_counted_impl_pdIPiNS_21checked_array_deleterIiEEE11get_deleterERKSt9type_info to i8*)]
@_ZTSN5boost6detail18sp_counted_impl_pdIPiNS_21checked_array_deleterIiEEEE = linkonce_odr constant [70 x i8] c"N5boost6detail18sp_counted_impl_pdIPiNS_21checked_array_deleterIiEEEE\00"
@_ZTIN5boost6detail18sp_counted_impl_pdIPiNS_21checked_array_deleterIiEEEE = linkonce_odr unnamed_addr constant { i8*, i8*, i8* } { i8* bitcast (i8** getelementptr inbounds (i8** @_ZTVN10__cxxabiv120__si_class_type_infoE, i32 2) to i8*), i8* getelementptr inbounds ([70 x i8]* @_ZTSN5boost6detail18sp_counted_impl_pdIPiNS_21checked_array_deleterIiEEEE, i32 0, i32 0), i8* bitcast ({ i8*, i8* }* @_ZTIN5boost6detail15sp_counted_baseE to i8*) }
@_ZTSN5boost21checked_array_deleterIiEE = linkonce_odr constant [35 x i8] c"N5boost21checked_array_deleterIiEE\00"
@_ZTIN5boost21checked_array_deleterIiEE = linkonce_odr unnamed_addr constant { i8*, i8* } { i8* bitcast (i8** getelementptr inbounds (i8** @_ZTVN10__cxxabiv117__class_type_infoE, i32 2) to i8*), i8* getelementptr inbounds ([35 x i8]* @_ZTSN5boost21checked_array_deleterIiEE, i32 0, i32 0) }
@_ZTVN5boost12graph_detail10vector_tagE = linkonce_odr unnamed_addr constant [13 x i8*] [i8* inttoptr (i32 4 to i8*), i8* inttoptr (i32 4 to i8*), i8* null, i8* null, i8* null, i8* null, i8* null, i8* bitcast ({ i8*, i8*, i32, i32, i8*, i32, i8*, i32 }* @_ZTIN5boost12graph_detail10vector_tagE to i8*), i8* null, i8* inttoptr (i32 -4 to i8*), i8* inttoptr (i32 -4 to i8*), i8* inttoptr (i32 -4 to i8*), i8* bitcast ({ i8*, i8*, i32, i32, i8*, i32, i8*, i32 }* @_ZTIN5boost12graph_detail10vector_tagE to i8*)]
@_ZTTN5boost12graph_detail10vector_tagE = linkonce_odr unnamed_addr constant [17 x i8*] [i8* bitcast (i8** getelementptr inbounds ([13 x i8*]* @_ZTVN5boost12graph_detail10vector_tagE, i64 0, i64 8) to i8*), i8* bitcast (i8** getelementptr inbounds ([13 x i8*]* @_ZTVN5boost12graph_detail10vector_tagE, i64 0, i64 8) to i8*), i8* bitcast (i8** getelementptr inbounds ([13 x i8*]* @_ZTVN5boost12graph_detail10vector_tagE, i64 0, i64 8) to i8*), i8* bitcast (i8** getelementptr inbounds ([13 x i8*]* @_ZTVN5boost12graph_detail10vector_tagE, i64 0, i64 8) to i8*), i8* bitcast (i8** getelementptr inbounds ([13 x i8*]* @_ZTVN5boost12graph_detail10vector_tagE, i64 1, i64 0) to i8*), i8* bitcast (i8** getelementptr inbounds ([13 x i8*]* @_ZTVN5boost12graph_detail10vector_tagE, i64 1, i64 0) to i8*), i8* bitcast (i8** getelementptr inbounds ([5 x i8*]* @_ZTCN5boost12graph_detail10vector_tagE0_NS0_27random_access_container_tagE, i64 1, i64 0) to i8*), i8* bitcast (i8** getelementptr inbounds ([5 x i8*]* @_ZTCN5boost12graph_detail10vector_tagE0_NS0_27random_access_container_tagE, i64 1, i64 0) to i8*), i8* bitcast (i8** getelementptr inbounds ([5 x i8*]* @_ZTCN5boost12graph_detail10vector_tagE0_NS0_27random_access_container_tagE, i64 1, i64 0) to i8*), i8* bitcast (i8** getelementptr inbounds ([4 x i8*]* @_ZTCN5boost12graph_detail10vector_tagE0_NS0_24reversible_container_tagE, i64 1, i64 0) to i8*), i8* bitcast (i8** getelementptr inbounds ([4 x i8*]* @_ZTCN5boost12graph_detail10vector_tagE0_NS0_24reversible_container_tagE, i64 1, i64 0) to i8*), i8* bitcast (i8** getelementptr inbounds ([3 x i8*]* @_ZTCN5boost12graph_detail10vector_tagE0_NS0_21forward_container_tagE, i64 1, i64 0) to i8*), i8* bitcast (i8** getelementptr inbounds ([8 x i8*]* @_ZTCN5boost12graph_detail10vector_tagE4_NS0_27back_insertion_sequence_tagE, i64 0, i64 5) to i8*), i8* bitcast (i8** getelementptr inbounds ([8 x i8*]* @_ZTCN5boost12graph_detail10vector_tagE4_NS0_27back_insertion_sequence_tagE, i64 0, i64 5) to i8*), i8* bitcast (i8** getelementptr inbounds ([8 x i8*]* @_ZTCN5boost12graph_detail10vector_tagE4_NS0_27back_insertion_sequence_tagE, i64 1, i64 0) to i8*), i8* bitcast (i8** getelementptr inbounds ([7 x i8*]* @_ZTCN5boost12graph_detail10vector_tagE4_NS0_12sequence_tagE, i64 0, i64 4) to i8*), i8* bitcast (i8** getelementptr inbounds ([7 x i8*]* @_ZTCN5boost12graph_detail10vector_tagE4_NS0_12sequence_tagE, i64 1, i64 0) to i8*)]
@_ZTSN5boost12graph_detail10vector_tagE = linkonce_odr constant [35 x i8] c"N5boost12graph_detail10vector_tagE\00"
@_ZTSN5boost12graph_detail27random_access_container_tagE = linkonce_odr constant [52 x i8] c"N5boost12graph_detail27random_access_container_tagE\00"
@_ZTSN5boost12graph_detail24reversible_container_tagE = linkonce_odr constant [49 x i8] c"N5boost12graph_detail24reversible_container_tagE\00"
@_ZTSN5boost12graph_detail21forward_container_tagE = linkonce_odr constant [46 x i8] c"N5boost12graph_detail21forward_container_tagE\00"
@_ZTSN5boost12graph_detail13container_tagE = linkonce_odr constant [38 x i8] c"N5boost12graph_detail13container_tagE\00"
@_ZTIN5boost12graph_detail13container_tagE = linkonce_odr unnamed_addr constant { i8*, i8* } { i8* bitcast (i8** getelementptr inbounds (i8** @_ZTVN10__cxxabiv117__class_type_infoE, i32 2) to i8*), i8* getelementptr inbounds ([38 x i8]* @_ZTSN5boost12graph_detail13container_tagE, i32 0, i32 0) }
@_ZTIN5boost12graph_detail21forward_container_tagE = linkonce_odr unnamed_addr constant { i8*, i8*, i32, i32, i8*, i32 } { i8* bitcast (i8** getelementptr inbounds (i8** @_ZTVN10__cxxabiv121__vmi_class_type_infoE, i32 2) to i8*), i8* getelementptr inbounds ([46 x i8]* @_ZTSN5boost12graph_detail21forward_container_tagE, i32 0, i32 0), i32 0, i32 1, i8* bitcast ({ i8*, i8* }* @_ZTIN5boost12graph_detail13container_tagE to i8*), i32 -3069 }
@_ZTIN5boost12graph_detail24reversible_container_tagE = linkonce_odr unnamed_addr constant { i8*, i8*, i32, i32, i8*, i32 } { i8* bitcast (i8** getelementptr inbounds (i8** @_ZTVN10__cxxabiv121__vmi_class_type_infoE, i32 2) to i8*), i8* getelementptr inbounds ([49 x i8]* @_ZTSN5boost12graph_detail24reversible_container_tagE, i32 0, i32 0), i32 0, i32 1, i8* bitcast ({ i8*, i8*, i32, i32, i8*, i32 }* @_ZTIN5boost12graph_detail21forward_container_tagE to i8*), i32 -4093 }
@_ZTIN5boost12graph_detail27random_access_container_tagE = linkonce_odr unnamed_addr constant { i8*, i8*, i32, i32, i8*, i32 } { i8* bitcast (i8** getelementptr inbounds (i8** @_ZTVN10__cxxabiv121__vmi_class_type_infoE, i32 2) to i8*), i8* getelementptr inbounds ([52 x i8]* @_ZTSN5boost12graph_detail27random_access_container_tagE, i32 0, i32 0), i32 0, i32 1, i8* bitcast ({ i8*, i8*, i32, i32, i8*, i32 }* @_ZTIN5boost12graph_detail24reversible_container_tagE to i8*), i32 -5117 }
@_ZTSN5boost12graph_detail27back_insertion_sequence_tagE = linkonce_odr constant [52 x i8] c"N5boost12graph_detail27back_insertion_sequence_tagE\00"
@_ZTSN5boost12graph_detail12sequence_tagE = linkonce_odr constant [37 x i8] c"N5boost12graph_detail12sequence_tagE\00"
@_ZTIN5boost12graph_detail12sequence_tagE = linkonce_odr unnamed_addr constant { i8*, i8*, i32, i32, i8*, i32 } { i8* bitcast (i8** getelementptr inbounds (i8** @_ZTVN10__cxxabiv121__vmi_class_type_infoE, i32 2) to i8*), i8* getelementptr inbounds ([37 x i8]* @_ZTSN5boost12graph_detail12sequence_tagE, i32 0, i32 0), i32 0, i32 1, i8* bitcast ({ i8*, i8*, i32, i32, i8*, i32 }* @_ZTIN5boost12graph_detail21forward_container_tagE to i8*), i32 -4093 }
@_ZTIN5boost12graph_detail27back_insertion_sequence_tagE = linkonce_odr unnamed_addr constant { i8*, i8*, i32, i32, i8*, i32 } { i8* bitcast (i8** getelementptr inbounds (i8** @_ZTVN10__cxxabiv121__vmi_class_type_infoE, i32 2) to i8*), i8* getelementptr inbounds ([52 x i8]* @_ZTSN5boost12graph_detail27back_insertion_sequence_tagE, i32 0, i32 0), i32 0, i32 1, i8* bitcast ({ i8*, i8*, i32, i32, i8*, i32 }* @_ZTIN5boost12graph_detail12sequence_tagE to i8*), i32 -5117 }
@_ZTIN5boost12graph_detail10vector_tagE = linkonce_odr unnamed_addr constant { i8*, i8*, i32, i32, i8*, i32, i8*, i32 } { i8* bitcast (i8** getelementptr inbounds (i8** @_ZTVN10__cxxabiv121__vmi_class_type_infoE, i32 2) to i8*), i8* getelementptr inbounds ([35 x i8]* @_ZTSN5boost12graph_detail10vector_tagE, i32 0, i32 0), i32 2, i32 2, i8* bitcast ({ i8*, i8*, i32, i32, i8*, i32 }* @_ZTIN5boost12graph_detail27random_access_container_tagE to i8*), i32 -6141, i8* bitcast ({ i8*, i8*, i32, i32, i8*, i32 }* @_ZTIN5boost12graph_detail27back_insertion_sequence_tagE to i8*), i32 -7165 }
@_ZTCN5boost12graph_detail10vector_tagE0_NS0_27random_access_container_tagE = linkonce_odr unnamed_addr constant [5 x i8*] [i8* null, i8* null, i8* null, i8* null, i8* bitcast ({ i8*, i8*, i32, i32, i8*, i32 }* @_ZTIN5boost12graph_detail27random_access_container_tagE to i8*)]
@_ZTCN5boost12graph_detail10vector_tagE0_NS0_24reversible_container_tagE = linkonce_odr unnamed_addr constant [4 x i8*] [i8* null, i8* null, i8* null, i8* bitcast ({ i8*, i8*, i32, i32, i8*, i32 }* @_ZTIN5boost12graph_detail24reversible_container_tagE to i8*)]
@_ZTCN5boost12graph_detail10vector_tagE0_NS0_21forward_container_tagE = linkonce_odr unnamed_addr constant [3 x i8*] [i8* null, i8* null, i8* bitcast ({ i8*, i8*, i32, i32, i8*, i32 }* @_ZTIN5boost12graph_detail21forward_container_tagE to i8*)]
@_ZTCN5boost12graph_detail10vector_tagE4_NS0_27back_insertion_sequence_tagE = linkonce_odr unnamed_addr constant [8 x i8*] [i8* null, i8* inttoptr (i32 -4 to i8*), i8* inttoptr (i32 -4 to i8*), i8* null, i8* bitcast ({ i8*, i8*, i32, i32, i8*, i32 }* @_ZTIN5boost12graph_detail27back_insertion_sequence_tagE to i8*), i8* null, i8* inttoptr (i32 4 to i8*), i8* bitcast ({ i8*, i8*, i32, i32, i8*, i32 }* @_ZTIN5boost12graph_detail27back_insertion_sequence_tagE to i8*)]
@_ZTCN5boost12graph_detail10vector_tagE4_NS0_12sequence_tagE = linkonce_odr unnamed_addr constant [7 x i8*] [i8* inttoptr (i32 -4 to i8*), i8* inttoptr (i32 -4 to i8*), i8* null, i8* bitcast ({ i8*, i8*, i32, i32, i8*, i32 }* @_ZTIN5boost12graph_detail12sequence_tagE to i8*), i8* null, i8* inttoptr (i32 4 to i8*), i8* bitcast ({ i8*, i8*, i32, i32, i8*, i32 }* @_ZTIN5boost12graph_detail12sequence_tagE to i8*)]
@_ZTVN5boost12graph_detail27back_insertion_sequence_tagE = linkonce_odr unnamed_addr constant [5 x i8*] [i8* null, i8* null, i8* null, i8* null, i8* bitcast ({ i8*, i8*, i32, i32, i8*, i32 }* @_ZTIN5boost12graph_detail27back_insertion_sequence_tagE to i8*)]
@_ZTTN5boost12graph_detail27back_insertion_sequence_tagE = linkonce_odr unnamed_addr constant [6 x i8*] [i8* bitcast (i8** getelementptr inbounds ([5 x i8*]* @_ZTVN5boost12graph_detail27back_insertion_sequence_tagE, i64 1, i64 0) to i8*), i8* bitcast (i8** getelementptr inbounds ([5 x i8*]* @_ZTVN5boost12graph_detail27back_insertion_sequence_tagE, i64 1, i64 0) to i8*), i8* bitcast (i8** getelementptr inbounds ([5 x i8*]* @_ZTVN5boost12graph_detail27back_insertion_sequence_tagE, i64 1, i64 0) to i8*), i8* bitcast (i8** getelementptr inbounds ([4 x i8*]* @_ZTCN5boost12graph_detail27back_insertion_sequence_tagE0_NS0_12sequence_tagE, i64 1, i64 0) to i8*), i8* bitcast (i8** getelementptr inbounds ([4 x i8*]* @_ZTCN5boost12graph_detail27back_insertion_sequence_tagE0_NS0_12sequence_tagE, i64 1, i64 0) to i8*), i8* bitcast (i8** getelementptr inbounds ([3 x i8*]* @_ZTCN5boost12graph_detail27back_insertion_sequence_tagE0_NS0_21forward_container_tagE, i64 1, i64 0) to i8*)]
@_ZTCN5boost12graph_detail27back_insertion_sequence_tagE0_NS0_12sequence_tagE = linkonce_odr unnamed_addr constant [4 x i8*] [i8* null, i8* null, i8* null, i8* bitcast ({ i8*, i8*, i32, i32, i8*, i32 }* @_ZTIN5boost12graph_detail12sequence_tagE to i8*)]
@_ZTCN5boost12graph_detail27back_insertion_sequence_tagE0_NS0_21forward_container_tagE = linkonce_odr unnamed_addr constant [3 x i8*] [i8* null, i8* null, i8* bitcast ({ i8*, i8*, i32, i32, i8*, i32 }* @_ZTIN5boost12graph_detail21forward_container_tagE to i8*)]
@_ZTVN5boost12graph_detail12sequence_tagE = linkonce_odr unnamed_addr constant [4 x i8*] [i8* null, i8* null, i8* null, i8* bitcast ({ i8*, i8*, i32, i32, i8*, i32 }* @_ZTIN5boost12graph_detail12sequence_tagE to i8*)]
@_ZTTN5boost12graph_detail12sequence_tagE = linkonce_odr unnamed_addr constant [3 x i8*] [i8* bitcast (i8** getelementptr inbounds ([4 x i8*]* @_ZTVN5boost12graph_detail12sequence_tagE, i64 1, i64 0) to i8*), i8* bitcast (i8** getelementptr inbounds ([4 x i8*]* @_ZTVN5boost12graph_detail12sequence_tagE, i64 1, i64 0) to i8*), i8* bitcast (i8** getelementptr inbounds ([3 x i8*]* @_ZTCN5boost12graph_detail12sequence_tagE0_NS0_21forward_container_tagE, i64 1, i64 0) to i8*)]
@_ZTCN5boost12graph_detail12sequence_tagE0_NS0_21forward_container_tagE = linkonce_odr unnamed_addr constant [3 x i8*] [i8* null, i8* null, i8* bitcast ({ i8*, i8*, i32, i32, i8*, i32 }* @_ZTIN5boost12graph_detail21forward_container_tagE to i8*)]
@_ZTVN5boost12graph_detail27random_access_container_tagE = linkonce_odr unnamed_addr constant [5 x i8*] [i8* null, i8* null, i8* null, i8* null, i8* bitcast ({ i8*, i8*, i32, i32, i8*, i32 }* @_ZTIN5boost12graph_detail27random_access_container_tagE to i8*)]
@_ZTTN5boost12graph_detail27random_access_container_tagE = linkonce_odr unnamed_addr constant [6 x i8*] [i8* bitcast (i8** getelementptr inbounds ([5 x i8*]* @_ZTVN5boost12graph_detail27random_access_container_tagE, i64 1, i64 0) to i8*), i8* bitcast (i8** getelementptr inbounds ([5 x i8*]* @_ZTVN5boost12graph_detail27random_access_container_tagE, i64 1, i64 0) to i8*), i8* bitcast (i8** getelementptr inbounds ([5 x i8*]* @_ZTVN5boost12graph_detail27random_access_container_tagE, i64 1, i64 0) to i8*), i8* bitcast (i8** getelementptr inbounds ([4 x i8*]* @_ZTCN5boost12graph_detail27random_access_container_tagE0_NS0_24reversible_container_tagE, i64 1, i64 0) to i8*), i8* bitcast (i8** getelementptr inbounds ([4 x i8*]* @_ZTCN5boost12graph_detail27random_access_container_tagE0_NS0_24reversible_container_tagE, i64 1, i64 0) to i8*), i8* bitcast (i8** getelementptr inbounds ([3 x i8*]* @_ZTCN5boost12graph_detail27random_access_container_tagE0_NS0_21forward_container_tagE, i64 1, i64 0) to i8*)]
@_ZTCN5boost12graph_detail27random_access_container_tagE0_NS0_24reversible_container_tagE = linkonce_odr unnamed_addr constant [4 x i8*] [i8* null, i8* null, i8* null, i8* bitcast ({ i8*, i8*, i32, i32, i8*, i32 }* @_ZTIN5boost12graph_detail24reversible_container_tagE to i8*)]
@_ZTCN5boost12graph_detail27random_access_container_tagE0_NS0_21forward_container_tagE = linkonce_odr unnamed_addr constant [3 x i8*] [i8* null, i8* null, i8* bitcast ({ i8*, i8*, i32, i32, i8*, i32 }* @_ZTIN5boost12graph_detail21forward_container_tagE to i8*)]
@_ZTVN5boost12graph_detail24reversible_container_tagE = linkonce_odr unnamed_addr constant [4 x i8*] [i8* null, i8* null, i8* null, i8* bitcast ({ i8*, i8*, i32, i32, i8*, i32 }* @_ZTIN5boost12graph_detail24reversible_container_tagE to i8*)]
@_ZTTN5boost12graph_detail24reversible_container_tagE = linkonce_odr unnamed_addr constant [3 x i8*] [i8* bitcast (i8** getelementptr inbounds ([4 x i8*]* @_ZTVN5boost12graph_detail24reversible_container_tagE, i64 1, i64 0) to i8*), i8* bitcast (i8** getelementptr inbounds ([4 x i8*]* @_ZTVN5boost12graph_detail24reversible_container_tagE, i64 1, i64 0) to i8*), i8* bitcast (i8** getelementptr inbounds ([3 x i8*]* @_ZTCN5boost12graph_detail24reversible_container_tagE0_NS0_21forward_container_tagE, i64 1, i64 0) to i8*)]
@_ZTCN5boost12graph_detail24reversible_container_tagE0_NS0_21forward_container_tagE = linkonce_odr unnamed_addr constant [3 x i8*] [i8* null, i8* null, i8* bitcast ({ i8*, i8*, i32, i32, i8*, i32 }* @_ZTIN5boost12graph_detail21forward_container_tagE to i8*)]
@_ZTVN5boost12graph_detail21forward_container_tagE = linkonce_odr unnamed_addr constant [3 x i8*] [i8* null, i8* null, i8* bitcast ({ i8*, i8*, i32, i32, i8*, i32 }* @_ZTIN5boost12graph_detail21forward_container_tagE to i8*)]
@_ZTTN5boost12graph_detail21forward_container_tagE = linkonce_odr unnamed_addr constant [1 x i8*] [i8* bitcast (i8** getelementptr inbounds ([3 x i8*]* @_ZTVN5boost12graph_detail21forward_container_tagE, i64 1, i64 0) to i8*)]
@.str26 = private unnamed_addr constant [23 x i8] c"vector::_M_fill_insert\00", align 1
@llvm.global_ctors = appending global [1 x { i32, void ()* }] [{ i32, void ()* } { i32 65535, void ()* @_GLOBAL__I_a }]

define internal void @__cxx_global_var_init() section ".text.startup" {
entry:
  call void @_ZNSt8ios_base4InitC1Ev(%"class.std::ios_base::Init"* @_ZStL8__ioinit)
  %0 = call i32 @__cxa_atexit(void (i8*)* bitcast (void (%"class.std::ios_base::Init"*)* @_ZNSt8ios_base4InitD1Ev to void (i8*)*), i8* getelementptr inbounds (%"class.std::ios_base::Init"* @_ZStL8__ioinit, i32 0, i32 0), i8* @__dso_handle) nounwind
  ret void
}

declare void @_ZNSt8ios_base4InitC1Ev(%"class.std::ios_base::Init"*)

declare void @_ZNSt8ios_base4InitD1Ev(%"class.std::ios_base::Init"*)

declare i32 @__cxa_atexit(void (i8*)*, i8*, i8*) nounwind

define internal void @__cxx_global_var_init1() section ".text.startup" {
entry:
  call void @_ZN5boost6detail35make_property_map_from_arg_pack_genINS_5graph8keywords3tag9color_mapENS_18default_color_typeEEC1ES6_(%"class.boost::detail::make_property_map_from_arg_pack_gen"* @_ZN5boost6detailL28make_color_map_from_arg_packE, i32 0)
  ret void
}

define linkonce_odr void @_ZN5boost6detail35make_property_map_from_arg_pack_genINS_5graph8keywords3tag9color_mapENS_18default_color_typeEEC1ES6_(%"class.boost::detail::make_property_map_from_arg_pack_gen"* %this, i32 %default_value) unnamed_addr align 2 {
entry:
  %this.addr = alloca %"class.boost::detail::make_property_map_from_arg_pack_gen"*, align 4
  %default_value.addr = alloca i32, align 4
  store %"class.boost::detail::make_property_map_from_arg_pack_gen"* %this, %"class.boost::detail::make_property_map_from_arg_pack_gen"** %this.addr, align 4
  store i32 %default_value, i32* %default_value.addr, align 4
  %this1 = load %"class.boost::detail::make_property_map_from_arg_pack_gen"** %this.addr
  %0 = load i32* %default_value.addr, align 4
  call void @_ZN5boost6detail35make_property_map_from_arg_pack_genINS_5graph8keywords3tag9color_mapENS_18default_color_typeEEC2ES6_(%"class.boost::detail::make_property_map_from_arg_pack_gen"* %this1, i32 %0)
  ret void
}

define i32 @main() {
entry:
  %retval = alloca i32, align 4
  %V = alloca i32, align 4
  %edge_array = alloca [14 x %"struct.std::pair"], align 4
  %ref.tmp = alloca i32, align 4
  %ref.tmp1 = alloca i32, align 4
  %ref.tmp2 = alloca i32, align 4
  %ref.tmp3 = alloca i32, align 4
  %ref.tmp5 = alloca i32, align 4
  %ref.tmp6 = alloca i32, align 4
  %ref.tmp8 = alloca i32, align 4
  %ref.tmp9 = alloca i32, align 4
  %ref.tmp11 = alloca i32, align 4
  %ref.tmp12 = alloca i32, align 4
  %ref.tmp14 = alloca i32, align 4
  %ref.tmp15 = alloca i32, align 4
  %ref.tmp17 = alloca i32, align 4
  %ref.tmp18 = alloca i32, align 4
  %ref.tmp20 = alloca i32, align 4
  %ref.tmp21 = alloca i32, align 4
  %ref.tmp23 = alloca i32, align 4
  %ref.tmp24 = alloca i32, align 4
  %ref.tmp26 = alloca i32, align 4
  %ref.tmp27 = alloca i32, align 4
  %ref.tmp29 = alloca i32, align 4
  %ref.tmp30 = alloca i32, align 4
  %ref.tmp32 = alloca i32, align 4
  %ref.tmp33 = alloca i32, align 4
  %ref.tmp35 = alloca i32, align 4
  %ref.tmp36 = alloca i32, align 4
  %ref.tmp38 = alloca i32, align 4
  %ref.tmp39 = alloca i32, align 4
  %E = alloca i32, align 4
  %g = alloca %"class.boost::adjacency_list", align 4
  %ref.tmp41 = alloca %"struct.boost::no_property", align 1
  %w = alloca %"struct.boost::adj_list_edge_property_map", align 4
  %exn.slot = alloca i8*
  %ehselector.slot = alloca i32
  %weights = alloca [14 x i32], align 4
  %wp = alloca i32*, align 4
  %e = alloca %"class.boost::detail::adj_list_edge_iterator", align 4
  %e_end = alloca %"class.boost::detail::adj_list_edge_iterator", align 4
  %tmp = alloca %"class.boost::tuples::tuple", align 4
  %ref.tmp48 = alloca %"struct.std::pair.4", align 4
  %agg.tmp = alloca %"class.boost::detail::edge_desc_impl", align 4
  %d = alloca %"class.std::vector.5", align 4
  %ref.tmp63 = alloca %"class.std::allocator.7", align 1
  %D = alloca [6 x [6 x i32]], align 4
  %ref.tmp67 = alloca %"struct.boost::bgl_named_params", align 4
  %ref.tmp71 = alloca i32*, align 4
  %k = alloca i32, align 4
  %agg.tmp80 = alloca %"struct.std::_Setw", align 4
  %i = alloca i32, align 4
  %agg.tmp94 = alloca %"struct.std::_Setw", align 4
  %j = alloca i32, align 4
  %agg.tmp109 = alloca %"struct.std::_Setw", align 4
  %agg.tmp115 = alloca %"struct.std::_Setw", align 4
  %fout = alloca %"class.std::basic_ofstream", align 4
  %ei = alloca %"class.boost::detail::adj_list_edge_iterator", align 4
  %ei_end = alloca %"class.boost::detail::adj_list_edge_iterator", align 4
  %tmp153 = alloca %"class.boost::tuples::tuple", align 4
  %ref.tmp156 = alloca %"struct.std::pair.4", align 4
  %ref.tmp167 = alloca %"class.boost::detail::edge_desc_impl", align 4
  %ref.tmp175 = alloca %"class.boost::detail::edge_desc_impl", align 4
  %tmp183 = alloca %"struct.boost::adj_list_edge_property_map", align 4
  %agg.tmp185 = alloca %"class.boost::detail::edge_desc_impl", align 4
  %cleanup.dest.slot = alloca i32
  store i32 0, i32* %retval
  store i32 6, i32* %V, align 4
  %arrayinit.begin = getelementptr inbounds [14 x %"struct.std::pair"]* %edge_array, i32 0, i32 0
  store i32 0, i32* %ref.tmp, align 4
  store i32 1, i32* %ref.tmp1, align 4
  call void @_ZNSt4pairIiiEC1ERKiS2_(%"struct.std::pair"* %arrayinit.begin, i32* %ref.tmp, i32* %ref.tmp1)
  %arrayinit.element = getelementptr inbounds %"struct.std::pair"* %arrayinit.begin, i32 1
  store i32 0, i32* %ref.tmp2, align 4
  store i32 2, i32* %ref.tmp3, align 4
  call void @_ZNSt4pairIiiEC1ERKiS2_(%"struct.std::pair"* %arrayinit.element, i32* %ref.tmp2, i32* %ref.tmp3)
  %arrayinit.element4 = getelementptr inbounds %"struct.std::pair"* %arrayinit.element, i32 1
  store i32 0, i32* %ref.tmp5, align 4
  store i32 3, i32* %ref.tmp6, align 4
  call void @_ZNSt4pairIiiEC1ERKiS2_(%"struct.std::pair"* %arrayinit.element4, i32* %ref.tmp5, i32* %ref.tmp6)
  %arrayinit.element7 = getelementptr inbounds %"struct.std::pair"* %arrayinit.element4, i32 1
  store i32 0, i32* %ref.tmp8, align 4
  store i32 4, i32* %ref.tmp9, align 4
  call void @_ZNSt4pairIiiEC1ERKiS2_(%"struct.std::pair"* %arrayinit.element7, i32* %ref.tmp8, i32* %ref.tmp9)
  %arrayinit.element10 = getelementptr inbounds %"struct.std::pair"* %arrayinit.element7, i32 1
  store i32 0, i32* %ref.tmp11, align 4
  store i32 5, i32* %ref.tmp12, align 4
  call void @_ZNSt4pairIiiEC1ERKiS2_(%"struct.std::pair"* %arrayinit.element10, i32* %ref.tmp11, i32* %ref.tmp12)
  %arrayinit.element13 = getelementptr inbounds %"struct.std::pair"* %arrayinit.element10, i32 1
  store i32 1, i32* %ref.tmp14, align 4
  store i32 2, i32* %ref.tmp15, align 4
  call void @_ZNSt4pairIiiEC1ERKiS2_(%"struct.std::pair"* %arrayinit.element13, i32* %ref.tmp14, i32* %ref.tmp15)
  %arrayinit.element16 = getelementptr inbounds %"struct.std::pair"* %arrayinit.element13, i32 1
  store i32 1, i32* %ref.tmp17, align 4
  store i32 5, i32* %ref.tmp18, align 4
  call void @_ZNSt4pairIiiEC1ERKiS2_(%"struct.std::pair"* %arrayinit.element16, i32* %ref.tmp17, i32* %ref.tmp18)
  %arrayinit.element19 = getelementptr inbounds %"struct.std::pair"* %arrayinit.element16, i32 1
  store i32 1, i32* %ref.tmp20, align 4
  store i32 3, i32* %ref.tmp21, align 4
  call void @_ZNSt4pairIiiEC1ERKiS2_(%"struct.std::pair"* %arrayinit.element19, i32* %ref.tmp20, i32* %ref.tmp21)
  %arrayinit.element22 = getelementptr inbounds %"struct.std::pair"* %arrayinit.element19, i32 1
  store i32 2, i32* %ref.tmp23, align 4
  store i32 4, i32* %ref.tmp24, align 4
  call void @_ZNSt4pairIiiEC1ERKiS2_(%"struct.std::pair"* %arrayinit.element22, i32* %ref.tmp23, i32* %ref.tmp24)
  %arrayinit.element25 = getelementptr inbounds %"struct.std::pair"* %arrayinit.element22, i32 1
  store i32 2, i32* %ref.tmp26, align 4
  store i32 5, i32* %ref.tmp27, align 4
  call void @_ZNSt4pairIiiEC1ERKiS2_(%"struct.std::pair"* %arrayinit.element25, i32* %ref.tmp26, i32* %ref.tmp27)
  %arrayinit.element28 = getelementptr inbounds %"struct.std::pair"* %arrayinit.element25, i32 1
  store i32 3, i32* %ref.tmp29, align 4
  store i32 2, i32* %ref.tmp30, align 4
  call void @_ZNSt4pairIiiEC1ERKiS2_(%"struct.std::pair"* %arrayinit.element28, i32* %ref.tmp29, i32* %ref.tmp30)
  %arrayinit.element31 = getelementptr inbounds %"struct.std::pair"* %arrayinit.element28, i32 1
  store i32 4, i32* %ref.tmp32, align 4
  store i32 3, i32* %ref.tmp33, align 4
  call void @_ZNSt4pairIiiEC1ERKiS2_(%"struct.std::pair"* %arrayinit.element31, i32* %ref.tmp32, i32* %ref.tmp33)
  %arrayinit.element34 = getelementptr inbounds %"struct.std::pair"* %arrayinit.element31, i32 1
  store i32 4, i32* %ref.tmp35, align 4
  store i32 1, i32* %ref.tmp36, align 4
  call void @_ZNSt4pairIiiEC1ERKiS2_(%"struct.std::pair"* %arrayinit.element34, i32* %ref.tmp35, i32* %ref.tmp36)
  %arrayinit.element37 = getelementptr inbounds %"struct.std::pair"* %arrayinit.element34, i32 1
  store i32 5, i32* %ref.tmp38, align 4
  store i32 4, i32* %ref.tmp39, align 4
  call void @_ZNSt4pairIiiEC1ERKiS2_(%"struct.std::pair"* %arrayinit.element37, i32* %ref.tmp38, i32* %ref.tmp39)
  store i32 14, i32* %E, align 4
  %arraydecay = getelementptr inbounds [14 x %"struct.std::pair"]* %edge_array, i32 0, i32 0
  %arraydecay40 = getelementptr inbounds [14 x %"struct.std::pair"]* %edge_array, i32 0, i32 0
  %add.ptr = getelementptr inbounds %"struct.std::pair"* %arraydecay40, i32 14
  call void @_ZN5boost14adjacency_listINS_4vecSES1_NS_9directedSENS_11no_propertyENS_8propertyINS_13edge_weight_tEiNS4_INS_14edge_weight2_tEiS3_EEEES3_NS_5listSEEC1IPSt4pairIiiEEET_SF_jjRKS3_(%"class.boost::adjacency_list"* %g, %"struct.std::pair"* %arraydecay, %"struct.std::pair"* %add.ptr, i32 6, i32 0, %"struct.boost::no_property"* %ref.tmp41)
  %0 = bitcast %"class.boost::adjacency_list"* %g to %"struct.boost::adj_list_helper"*
  invoke void @_ZN5boost3getINS_6detail12adj_list_genINS_14adjacency_listINS_4vecSES4_NS_9directedSENS_11no_propertyENS_8propertyINS_13edge_weight_tEiNS7_INS_14edge_weight2_tEiS6_EEEES6_NS_5listSEEES4_S4_S5_S6_SB_S6_SC_E6configENS_21directed_graph_helperISF_EES8_EENS_12property_mapINT_10graph_typeET1_E4typeESL_RNS_15adj_list_helperISJ_T0_EE(%"struct.boost::adj_list_edge_property_map"* sret %w, i32 0, %"struct.boost::adj_list_helper"* %0)
          to label %invoke.cont unwind label %lpad

invoke.cont:                                      ; preds = %entry
  %1 = bitcast [14 x i32]* %weights to i8*
  call void @llvm.memcpy.p0i8.p0i8.i32(i8* %1, i8* bitcast ([14 x i32]* @_ZZ4mainE7weights to i8*), i32 56, i32 4, i1 false)
  %arraydecay42 = getelementptr inbounds [14 x i32]* %weights, i32 0, i32 0
  store i32* %arraydecay42, i32** %wp, align 4
  invoke void @_ZN5boost6detail22adj_list_edge_iteratorINS_12range_detail16integer_iteratorIjEENS0_13out_edge_iterIN9__gnu_cxx17__normal_iteratorIPNS0_20stored_edge_propertyIjNS_8propertyINS_13edge_weight_tEiNS9_INS_14edge_weight2_tEiNS_11no_propertyEEEEEEESt6vectorISF_SaISF_EEEEjNS0_14edge_desc_implINS_12directed_tagEjEEiEENS_14adjacency_listINS_4vecSESQ_NS_9directedSESC_SE_SC_NS_5listSEEEEC1Ev(%"class.boost::detail::adj_list_edge_iterator"* %e)
          to label %invoke.cont43 unwind label %lpad

invoke.cont43:                                    ; preds = %invoke.cont
  invoke void @_ZN5boost6detail22adj_list_edge_iteratorINS_12range_detail16integer_iteratorIjEENS0_13out_edge_iterIN9__gnu_cxx17__normal_iteratorIPNS0_20stored_edge_propertyIjNS_8propertyINS_13edge_weight_tEiNS9_INS_14edge_weight2_tEiNS_11no_propertyEEEEEEESt6vectorISF_SaISF_EEEEjNS0_14edge_desc_implINS_12directed_tagEjEEiEENS_14adjacency_listINS_4vecSESQ_NS_9directedSESC_SE_SC_NS_5listSEEEEC1Ev(%"class.boost::detail::adj_list_edge_iterator"* %e_end)
          to label %invoke.cont45 unwind label %lpad44

invoke.cont45:                                    ; preds = %invoke.cont43
  invoke void @_ZN5boost6tuples3tieINS_6detail22adj_list_edge_iteratorINS_12range_detail16integer_iteratorIjEENS2_13out_edge_iterIN9__gnu_cxx17__normal_iteratorIPNS2_20stored_edge_propertyIjNS_8propertyINS_13edge_weight_tEiNSB_INS_14edge_weight2_tEiNS_11no_propertyEEEEEEESt6vectorISH_SaISH_EEEEjNS2_14edge_desc_implINS_12directed_tagEjEEiEENS_14adjacency_listINS_4vecSESS_NS_9directedSESE_SG_SE_NS_5listSEEEEESW_EENS0_6detail10tie_mapperIT_T0_vvvvvvvvE4typeERSZ_RS10_(%"class.boost::tuples::tuple"* sret %tmp, %"class.boost::detail::adj_list_edge_iterator"* %e, %"class.boost::detail::adj_list_edge_iterator"* %e_end)
          to label %invoke.cont47 unwind label %lpad46

invoke.cont47:                                    ; preds = %invoke.cont45
  %2 = bitcast %"class.boost::adjacency_list"* %g to %"struct.boost::directed_edges_helper"*
  invoke void @_ZN5boost5edgesINS_6detail12adj_list_genINS_14adjacency_listINS_4vecSES4_NS_9directedSENS_11no_propertyENS_8propertyINS_13edge_weight_tEiNS7_INS_14edge_weight2_tEiS6_EEEES6_NS_5listSEEES4_S4_S5_S6_SB_S6_SC_E6configEEESt4pairINT_13edge_iteratorESI_ERKNS_21directed_edges_helperISH_EE(%"struct.std::pair.4"* sret %ref.tmp48, %"struct.boost::directed_edges_helper"* %2)
          to label %invoke.cont49 unwind label %lpad46

invoke.cont49:                                    ; preds = %invoke.cont47
  %call = invoke %"class.boost::tuples::tuple"* @_ZN5boost6tuples5tupleIRNS_6detail22adj_list_edge_iteratorINS_12range_detail16integer_iteratorIjEENS2_13out_edge_iterIN9__gnu_cxx17__normal_iteratorIPNS2_20stored_edge_propertyIjNS_8propertyINS_13edge_weight_tEiNSB_INS_14edge_weight2_tEiNS_11no_propertyEEEEEEESt6vectorISH_SaISH_EEEEjNS2_14edge_desc_implINS_12directed_tagEjEEiEENS_14adjacency_listINS_4vecSESS_NS_9directedSESE_SG_SE_NS_5listSEEEEESX_NS0_9null_typeESY_SY_SY_SY_SY_SY_SY_EaSISW_SW_EERSZ_RKSt4pairIT_T0_E(%"class.boost::tuples::tuple"* %tmp, %"struct.std::pair.4"* %ref.tmp48)
          to label %invoke.cont51 unwind label %lpad50

invoke.cont51:                                    ; preds = %invoke.cont49
  invoke void @_ZNSt4pairIN5boost6detail22adj_list_edge_iteratorINS0_12range_detail16integer_iteratorIjEENS1_13out_edge_iterIN9__gnu_cxx17__normal_iteratorIPNS1_20stored_edge_propertyIjNS0_8propertyINS0_13edge_weight_tEiNSA_INS0_14edge_weight2_tEiNS0_11no_propertyEEEEEEESt6vectorISG_SaISG_EEEEjNS1_14edge_desc_implINS0_12directed_tagEjEEiEENS0_14adjacency_listINS0_4vecSESR_NS0_9directedSESD_SF_SD_NS0_5listSEEEEESV_ED1Ev(%"struct.std::pair.4"* %ref.tmp48)
          to label %invoke.cont52 unwind label %lpad46

invoke.cont52:                                    ; preds = %invoke.cont51
  br label %for.cond

for.cond:                                         ; preds = %invoke.cont59, %invoke.cont52
  %call55 = invoke zeroext i1 @_ZNK5boost6detail22adj_list_edge_iteratorINS_12range_detail16integer_iteratorIjEENS0_13out_edge_iterIN9__gnu_cxx17__normal_iteratorIPNS0_20stored_edge_propertyIjNS_8propertyINS_13edge_weight_tEiNS9_INS_14edge_weight2_tEiNS_11no_propertyEEEEEEESt6vectorISF_SaISF_EEEEjNS0_14edge_desc_implINS_12directed_tagEjEEiEENS_14adjacency_listINS_4vecSESQ_NS_9directedSESC_SE_SC_NS_5listSEEEEneERKSU_(%"class.boost::detail::adj_list_edge_iterator"* %e, %"class.boost::detail::adj_list_edge_iterator"* %e_end)
          to label %invoke.cont54 unwind label %lpad46

invoke.cont54:                                    ; preds = %for.cond
  br i1 %call55, label %for.body, label %for.end

for.body:                                         ; preds = %invoke.cont54
  %3 = load i32** %wp, align 4
  %incdec.ptr = getelementptr inbounds i32* %3, i32 1
  store i32* %incdec.ptr, i32** %wp, align 4
  %4 = load i32* %3, align 4
  invoke void @_ZNK5boost6detail22adj_list_edge_iteratorINS_12range_detail16integer_iteratorIjEENS0_13out_edge_iterIN9__gnu_cxx17__normal_iteratorIPNS0_20stored_edge_propertyIjNS_8propertyINS_13edge_weight_tEiNS9_INS_14edge_weight2_tEiNS_11no_propertyEEEEEEESt6vectorISF_SaISF_EEEEjNS0_14edge_desc_implINS_12directed_tagEjEEiEENS_14adjacency_listINS_4vecSESQ_NS_9directedSESC_SE_SC_NS_5listSEEEEdeEv(%"class.boost::detail::edge_desc_impl"* sret %agg.tmp, %"class.boost::detail::adj_list_edge_iterator"* %e)
          to label %invoke.cont56 unwind label %lpad46

invoke.cont56:                                    ; preds = %for.body
  %call58 = invoke i32* @_ZNK5boost26adj_list_edge_property_mapINS_12directed_tagEiRijNS_8propertyINS_13edge_weight_tEiNS3_INS_14edge_weight2_tEiNS_11no_propertyEEEEES4_EixENS_6detail14edge_desc_implIS1_jEE(%"struct.boost::adj_list_edge_property_map"* %w, %"class.boost::detail::edge_desc_impl"* byval align 4 %agg.tmp)
          to label %invoke.cont57 unwind label %lpad46

invoke.cont57:                                    ; preds = %invoke.cont56
  store i32 %4, i32* %call58
  br label %for.inc

for.inc:                                          ; preds = %invoke.cont57
  %call60 = invoke %"class.boost::detail::adj_list_edge_iterator"* @_ZN5boost6detail22adj_list_edge_iteratorINS_12range_detail16integer_iteratorIjEENS0_13out_edge_iterIN9__gnu_cxx17__normal_iteratorIPNS0_20stored_edge_propertyIjNS_8propertyINS_13edge_weight_tEiNS9_INS_14edge_weight2_tEiNS_11no_propertyEEEEEEESt6vectorISF_SaISF_EEEEjNS0_14edge_desc_implINS_12directed_tagEjEEiEENS_14adjacency_listINS_4vecSESQ_NS_9directedSESC_SE_SC_NS_5listSEEEEppEv(%"class.boost::detail::adj_list_edge_iterator"* %e)
          to label %invoke.cont59 unwind label %lpad46

invoke.cont59:                                    ; preds = %for.inc
  br label %for.cond

lpad:                                             ; preds = %invoke.cont210, %invoke.cont, %entry
  %5 = landingpad { i8*, i32 } personality i8* bitcast (i32 (...)* @__gxx_personality_v0 to i8*)
          cleanup
  %6 = extractvalue { i8*, i32 } %5, 0
  store i8* %6, i8** %exn.slot
  %7 = extractvalue { i8*, i32 } %5, 1
  store i32 %7, i32* %ehselector.slot
  br label %ehcleanup216

lpad44:                                           ; preds = %invoke.cont207, %invoke.cont43
  %8 = landingpad { i8*, i32 } personality i8* bitcast (i32 (...)* @__gxx_personality_v0 to i8*)
          cleanup
  %9 = extractvalue { i8*, i32 } %8, 0
  store i8* %9, i8** %exn.slot
  %10 = extractvalue { i8*, i32 } %8, 1
  store i32 %10, i32* %ehselector.slot
  br label %ehcleanup214

lpad46:                                           ; preds = %invoke.cont204, %for.inc, %invoke.cont56, %for.body, %for.cond, %invoke.cont51, %invoke.cont47, %invoke.cont45
  %11 = landingpad { i8*, i32 } personality i8* bitcast (i32 (...)* @__gxx_personality_v0 to i8*)
          cleanup
  %12 = extractvalue { i8*, i32 } %11, 0
  store i8* %12, i8** %exn.slot
  %13 = extractvalue { i8*, i32 } %11, 1
  store i32 %13, i32* %ehselector.slot
  br label %ehcleanup211

lpad50:                                           ; preds = %invoke.cont49
  %14 = landingpad { i8*, i32 } personality i8* bitcast (i32 (...)* @__gxx_personality_v0 to i8*)
          cleanup
  %15 = extractvalue { i8*, i32 } %14, 0
  store i8* %15, i8** %exn.slot
  %16 = extractvalue { i8*, i32 } %14, 1
  store i32 %16, i32* %ehselector.slot
  invoke void @_ZNSt4pairIN5boost6detail22adj_list_edge_iteratorINS0_12range_detail16integer_iteratorIjEENS1_13out_edge_iterIN9__gnu_cxx17__normal_iteratorIPNS1_20stored_edge_propertyIjNS0_8propertyINS0_13edge_weight_tEiNSA_INS0_14edge_weight2_tEiNS0_11no_propertyEEEEEEESt6vectorISG_SaISG_EEEEjNS1_14edge_desc_implINS0_12directed_tagEjEEiEENS0_14adjacency_listINS0_4vecSESR_NS0_9directedSESD_SF_SD_NS0_5listSEEEEESV_ED1Ev(%"struct.std::pair.4"* %ref.tmp48)
          to label %invoke.cont53 unwind label %terminate.lpad

invoke.cont53:                                    ; preds = %lpad50
  br label %ehcleanup211

for.end:                                          ; preds = %invoke.cont54
  %call62 = call i32 @_ZNSt14numeric_limitsIiE3maxEv() nounwind
  call void @_ZNSaIiEC1Ev(%"class.std::allocator.7"* %ref.tmp63) nounwind
  invoke void @_ZNSt6vectorIiSaIiEEC1IiEET_S3_RKS0_(%"class.std::vector.5"* %d, i32 6, i32 %call62, %"class.std::allocator.7"* %ref.tmp63)
          to label %invoke.cont65 unwind label %lpad64

invoke.cont65:                                    ; preds = %for.end
  call void @_ZNSaIiED1Ev(%"class.std::allocator.7"* %ref.tmp63) nounwind
  %call70 = invoke i32* @_ZNSt6vectorIiSaIiEEixEj(%"class.std::vector.5"* %d, i32 0)
          to label %invoke.cont69 unwind label %lpad68

invoke.cont69:                                    ; preds = %invoke.cont65
  store i32* %call70, i32** %ref.tmp71, align 4
  invoke void @_ZN5boost12distance_mapIPiEENS_16bgl_named_paramsIT_NS_17vertex_distance_tENS_11no_propertyEEERKS3_(%"struct.boost::bgl_named_params"* sret %ref.tmp67, i32** %ref.tmp71)
          to label %invoke.cont72 unwind label %lpad68

invoke.cont72:                                    ; preds = %invoke.cont69
  %call74 = invoke zeroext i1 @_ZN5boost32johnson_all_pairs_shortest_pathsINS_14adjacency_listINS_4vecSES2_NS_9directedSENS_11no_propertyENS_8propertyINS_13edge_weight_tEiNS5_INS_14edge_weight2_tEiS4_EEEES4_NS_5listSEEEA6_A6_iPiNS_17vertex_distance_tES4_EEbRT_RT0_RKNS_16bgl_named_paramsIT1_T2_T3_EE(%"class.boost::adjacency_list"* %g, [6 x [6 x i32]]* %D, %"struct.boost::bgl_named_params"* %ref.tmp67)
          to label %invoke.cont73 unwind label %lpad68

invoke.cont73:                                    ; preds = %invoke.cont72
  %call76 = invoke %"class.std::basic_ostream"* @_ZStlsISt11char_traitsIcEERSt13basic_ostreamIcT_ES5_PKc(%"class.std::basic_ostream"* @_ZSt4cout, i8* getelementptr inbounds ([8 x i8]* @.str, i32 0, i32 0))
          to label %invoke.cont75 unwind label %lpad68

invoke.cont75:                                    ; preds = %invoke.cont73
  store i32 0, i32* %k, align 4
  br label %for.cond78

for.cond78:                                       ; preds = %for.inc86, %invoke.cont75
  %17 = load i32* %k, align 4
  %cmp = icmp slt i32 %17, 6
  br i1 %cmp, label %for.body79, label %for.end87

for.body79:                                       ; preds = %for.cond78
  invoke void @_ZSt4setwi(%"struct.std::_Setw"* sret %agg.tmp80, i32 5)
          to label %invoke.cont81 unwind label %lpad68

invoke.cont81:                                    ; preds = %for.body79
  %call83 = invoke %"class.std::basic_ostream"* @_ZStlsIcSt11char_traitsIcEERSt13basic_ostreamIT_T0_ES6_St5_Setw(%"class.std::basic_ostream"* @_ZSt4cout, %"struct.std::_Setw"* byval align 4 %agg.tmp80)
          to label %invoke.cont82 unwind label %lpad68

invoke.cont82:                                    ; preds = %invoke.cont81
  %18 = load i32* %k, align 4
  %call85 = invoke %"class.std::basic_ostream"* @_ZNSolsEi(%"class.std::basic_ostream"* %call83, i32 %18)
          to label %invoke.cont84 unwind label %lpad68

invoke.cont84:                                    ; preds = %invoke.cont82
  br label %for.inc86

for.inc86:                                        ; preds = %invoke.cont84
  %19 = load i32* %k, align 4
  %inc = add nsw i32 %19, 1
  store i32 %inc, i32* %k, align 4
  br label %for.cond78

lpad64:                                           ; preds = %for.end
  %20 = landingpad { i8*, i32 } personality i8* bitcast (i32 (...)* @__gxx_personality_v0 to i8*)
          cleanup
  %21 = extractvalue { i8*, i32 } %20, 0
  store i8* %21, i8** %exn.slot
  %22 = extractvalue { i8*, i32 } %20, 1
  store i32 %22, i32* %ehselector.slot
  call void @_ZNSaIiED1Ev(%"class.std::allocator.7"* %ref.tmp63) nounwind
  br label %ehcleanup211

lpad68:                                           ; preds = %invoke.cont201, %invoke.cont132, %for.end130, %for.end125, %invoke.cont117, %invoke.cont116, %if.else, %invoke.cont111, %invoke.cont110, %if.then, %invoke.cont98, %invoke.cont96, %invoke.cont95, %for.body93, %for.end87, %invoke.cont82, %invoke.cont81, %for.body79, %invoke.cont73, %invoke.cont72, %invoke.cont69, %invoke.cont65
  %23 = landingpad { i8*, i32 } personality i8* bitcast (i32 (...)* @__gxx_personality_v0 to i8*)
          cleanup
  %24 = extractvalue { i8*, i32 } %23, 0
  store i8* %24, i8** %exn.slot
  %25 = extractvalue { i8*, i32 } %23, 1
  store i32 %25, i32* %ehselector.slot
  br label %ehcleanup208

for.end87:                                        ; preds = %for.cond78
  %call89 = invoke %"class.std::basic_ostream"* @_ZNSolsEPFRSoS_E(%"class.std::basic_ostream"* @_ZSt4cout, %"class.std::basic_ostream"* (%"class.std::basic_ostream"*)* @_ZSt4endlIcSt11char_traitsIcEERSt13basic_ostreamIT_T0_ES6_)
          to label %invoke.cont88 unwind label %lpad68

invoke.cont88:                                    ; preds = %for.end87
  store i32 0, i32* %i, align 4
  br label %for.cond91

for.cond91:                                       ; preds = %for.inc128, %invoke.cont88
  %26 = load i32* %i, align 4
  %cmp92 = icmp slt i32 %26, 6
  br i1 %cmp92, label %for.body93, label %for.end130

for.body93:                                       ; preds = %for.cond91
  invoke void @_ZSt4setwi(%"struct.std::_Setw"* sret %agg.tmp94, i32 3)
          to label %invoke.cont95 unwind label %lpad68

invoke.cont95:                                    ; preds = %for.body93
  %call97 = invoke %"class.std::basic_ostream"* @_ZStlsIcSt11char_traitsIcEERSt13basic_ostreamIT_T0_ES6_St5_Setw(%"class.std::basic_ostream"* @_ZSt4cout, %"struct.std::_Setw"* byval align 4 %agg.tmp94)
          to label %invoke.cont96 unwind label %lpad68

invoke.cont96:                                    ; preds = %invoke.cont95
  %27 = load i32* %i, align 4
  %call99 = invoke %"class.std::basic_ostream"* @_ZNSolsEi(%"class.std::basic_ostream"* %call97, i32 %27)
          to label %invoke.cont98 unwind label %lpad68

invoke.cont98:                                    ; preds = %invoke.cont96
  %call101 = invoke %"class.std::basic_ostream"* @_ZStlsISt11char_traitsIcEERSt13basic_ostreamIcT_ES5_PKc(%"class.std::basic_ostream"* %call99, i8* getelementptr inbounds ([5 x i8]* @.str2, i32 0, i32 0))
          to label %invoke.cont100 unwind label %lpad68

invoke.cont100:                                   ; preds = %invoke.cont98
  store i32 0, i32* %j, align 4
  br label %for.cond103

for.cond103:                                      ; preds = %for.inc123, %invoke.cont100
  %28 = load i32* %j, align 4
  %cmp104 = icmp slt i32 %28, 6
  br i1 %cmp104, label %for.body105, label %for.end125

for.body105:                                      ; preds = %for.cond103
  %29 = load i32* %j, align 4
  %30 = load i32* %i, align 4
  %arrayidx = getelementptr inbounds [6 x [6 x i32]]* %D, i32 0, i32 %30
  %arrayidx106 = getelementptr inbounds [6 x i32]* %arrayidx, i32 0, i32 %29
  %31 = load i32* %arrayidx106, align 4
  %call107 = call i32 @_ZNSt14numeric_limitsIiE3maxEv() nounwind
  %cmp108 = icmp eq i32 %31, %call107
  br i1 %cmp108, label %if.then, label %if.else

if.then:                                          ; preds = %for.body105
  invoke void @_ZSt4setwi(%"struct.std::_Setw"* sret %agg.tmp109, i32 5)
          to label %invoke.cont110 unwind label %lpad68

invoke.cont110:                                   ; preds = %if.then
  %call112 = invoke %"class.std::basic_ostream"* @_ZStlsIcSt11char_traitsIcEERSt13basic_ostreamIT_T0_ES6_St5_Setw(%"class.std::basic_ostream"* @_ZSt4cout, %"struct.std::_Setw"* byval align 4 %agg.tmp109)
          to label %invoke.cont111 unwind label %lpad68

invoke.cont111:                                   ; preds = %invoke.cont110
  %call114 = invoke %"class.std::basic_ostream"* @_ZStlsISt11char_traitsIcEERSt13basic_ostreamIcT_ES5_PKc(%"class.std::basic_ostream"* %call112, i8* getelementptr inbounds ([4 x i8]* @.str3, i32 0, i32 0))
          to label %invoke.cont113 unwind label %lpad68

invoke.cont113:                                   ; preds = %invoke.cont111
  br label %if.end

if.else:                                          ; preds = %for.body105
  invoke void @_ZSt4setwi(%"struct.std::_Setw"* sret %agg.tmp115, i32 5)
          to label %invoke.cont116 unwind label %lpad68

invoke.cont116:                                   ; preds = %if.else
  %call118 = invoke %"class.std::basic_ostream"* @_ZStlsIcSt11char_traitsIcEERSt13basic_ostreamIT_T0_ES6_St5_Setw(%"class.std::basic_ostream"* @_ZSt4cout, %"struct.std::_Setw"* byval align 4 %agg.tmp115)
          to label %invoke.cont117 unwind label %lpad68

invoke.cont117:                                   ; preds = %invoke.cont116
  %32 = load i32* %j, align 4
  %33 = load i32* %i, align 4
  %arrayidx119 = getelementptr inbounds [6 x [6 x i32]]* %D, i32 0, i32 %33
  %arrayidx120 = getelementptr inbounds [6 x i32]* %arrayidx119, i32 0, i32 %32
  %34 = load i32* %arrayidx120, align 4
  %call122 = invoke %"class.std::basic_ostream"* @_ZNSolsEi(%"class.std::basic_ostream"* %call118, i32 %34)
          to label %invoke.cont121 unwind label %lpad68

invoke.cont121:                                   ; preds = %invoke.cont117
  br label %if.end

if.end:                                           ; preds = %invoke.cont121, %invoke.cont113
  br label %for.inc123

for.inc123:                                       ; preds = %if.end
  %35 = load i32* %j, align 4
  %inc124 = add nsw i32 %35, 1
  store i32 %inc124, i32* %j, align 4
  br label %for.cond103

for.end125:                                       ; preds = %for.cond103
  %call127 = invoke %"class.std::basic_ostream"* @_ZNSolsEPFRSoS_E(%"class.std::basic_ostream"* @_ZSt4cout, %"class.std::basic_ostream"* (%"class.std::basic_ostream"*)* @_ZSt4endlIcSt11char_traitsIcEERSt13basic_ostreamIT_T0_ES6_)
          to label %invoke.cont126 unwind label %lpad68

invoke.cont126:                                   ; preds = %for.end125
  br label %for.inc128

for.inc128:                                       ; preds = %invoke.cont126
  %36 = load i32* %i, align 4
  %inc129 = add nsw i32 %36, 1
  store i32 %inc129, i32* %i, align 4
  br label %for.cond91

for.end130:                                       ; preds = %for.cond91
  %call133 = invoke i32 @_ZStorSt13_Ios_OpenmodeS_(i32 16, i32 32)
          to label %invoke.cont132 unwind label %lpad68

invoke.cont132:                                   ; preds = %for.end130
  invoke void @_ZNSt14basic_ofstreamIcSt11char_traitsIcEEC1EPKcSt13_Ios_Openmode(%"class.std::basic_ofstream"* %fout, i8* getelementptr inbounds ([20 x i8]* @.str4, i32 0, i32 0), i32 %call133)
          to label %invoke.cont134 unwind label %lpad68

invoke.cont134:                                   ; preds = %invoke.cont132
  %37 = bitcast %"class.std::basic_ofstream"* %fout to %"class.std::basic_ostream"*
  %call137 = invoke %"class.std::basic_ostream"* @_ZStlsISt11char_traitsIcEERSt13basic_ostreamIcT_ES5_PKc(%"class.std::basic_ostream"* %37, i8* getelementptr inbounds ([13 x i8]* @.str5, i32 0, i32 0))
          to label %invoke.cont136 unwind label %lpad135

invoke.cont136:                                   ; preds = %invoke.cont134
  %call139 = invoke %"class.std::basic_ostream"* @_ZStlsISt11char_traitsIcEERSt13basic_ostreamIcT_ES5_PKc(%"class.std::basic_ostream"* %call137, i8* getelementptr inbounds ([14 x i8]* @.str6, i32 0, i32 0))
          to label %invoke.cont138 unwind label %lpad135

invoke.cont138:                                   ; preds = %invoke.cont136
  %call141 = invoke %"class.std::basic_ostream"* @_ZStlsISt11char_traitsIcEERSt13basic_ostreamIcT_ES5_PKc(%"class.std::basic_ostream"* %call139, i8* getelementptr inbounds ([12 x i8]* @.str7, i32 0, i32 0))
          to label %invoke.cont140 unwind label %lpad135

invoke.cont140:                                   ; preds = %invoke.cont138
  %call143 = invoke %"class.std::basic_ostream"* @_ZStlsISt11char_traitsIcEERSt13basic_ostreamIcT_ES5_PKc(%"class.std::basic_ostream"* %call141, i8* getelementptr inbounds ([14 x i8]* @.str8, i32 0, i32 0))
          to label %invoke.cont142 unwind label %lpad135

invoke.cont142:                                   ; preds = %invoke.cont140
  %call145 = invoke %"class.std::basic_ostream"* @_ZStlsISt11char_traitsIcEERSt13basic_ostreamIcT_ES5_PKc(%"class.std::basic_ostream"* %call143, i8* getelementptr inbounds ([20 x i8]* @.str9, i32 0, i32 0))
          to label %invoke.cont144 unwind label %lpad135

invoke.cont144:                                   ; preds = %invoke.cont142
  %call147 = invoke %"class.std::basic_ostream"* @_ZStlsISt11char_traitsIcEERSt13basic_ostreamIcT_ES5_PKc(%"class.std::basic_ostream"* %call145, i8* getelementptr inbounds ([22 x i8]* @.str10, i32 0, i32 0))
          to label %invoke.cont146 unwind label %lpad135

invoke.cont146:                                   ; preds = %invoke.cont144
  invoke void @_ZN5boost6detail22adj_list_edge_iteratorINS_12range_detail16integer_iteratorIjEENS0_13out_edge_iterIN9__gnu_cxx17__normal_iteratorIPNS0_20stored_edge_propertyIjNS_8propertyINS_13edge_weight_tEiNS9_INS_14edge_weight2_tEiNS_11no_propertyEEEEEEESt6vectorISF_SaISF_EEEEjNS0_14edge_desc_implINS_12directed_tagEjEEiEENS_14adjacency_listINS_4vecSESQ_NS_9directedSESC_SE_SC_NS_5listSEEEEC1Ev(%"class.boost::detail::adj_list_edge_iterator"* %ei)
          to label %invoke.cont149 unwind label %lpad135

invoke.cont149:                                   ; preds = %invoke.cont146
  invoke void @_ZN5boost6detail22adj_list_edge_iteratorINS_12range_detail16integer_iteratorIjEENS0_13out_edge_iterIN9__gnu_cxx17__normal_iteratorIPNS0_20stored_edge_propertyIjNS_8propertyINS_13edge_weight_tEiNS9_INS_14edge_weight2_tEiNS_11no_propertyEEEEEEESt6vectorISF_SaISF_EEEEjNS0_14edge_desc_implINS_12directed_tagEjEEiEENS_14adjacency_listINS_4vecSESQ_NS_9directedSESC_SE_SC_NS_5listSEEEEC1Ev(%"class.boost::detail::adj_list_edge_iterator"* %ei_end)
          to label %invoke.cont152 unwind label %lpad151

invoke.cont152:                                   ; preds = %invoke.cont149
  invoke void @_ZN5boost6tuples3tieINS_6detail22adj_list_edge_iteratorINS_12range_detail16integer_iteratorIjEENS2_13out_edge_iterIN9__gnu_cxx17__normal_iteratorIPNS2_20stored_edge_propertyIjNS_8propertyINS_13edge_weight_tEiNSB_INS_14edge_weight2_tEiNS_11no_propertyEEEEEEESt6vectorISH_SaISH_EEEEjNS2_14edge_desc_implINS_12directed_tagEjEEiEENS_14adjacency_listINS_4vecSESS_NS_9directedSESE_SG_SE_NS_5listSEEEEESW_EENS0_6detail10tie_mapperIT_T0_vvvvvvvvE4typeERSZ_RS10_(%"class.boost::tuples::tuple"* sret %tmp153, %"class.boost::detail::adj_list_edge_iterator"* %ei, %"class.boost::detail::adj_list_edge_iterator"* %ei_end)
          to label %invoke.cont155 unwind label %lpad154

invoke.cont155:                                   ; preds = %invoke.cont152
  %38 = bitcast %"class.boost::adjacency_list"* %g to %"struct.boost::directed_edges_helper"*
  invoke void @_ZN5boost5edgesINS_6detail12adj_list_genINS_14adjacency_listINS_4vecSES4_NS_9directedSENS_11no_propertyENS_8propertyINS_13edge_weight_tEiNS7_INS_14edge_weight2_tEiS6_EEEES6_NS_5listSEEES4_S4_S5_S6_SB_S6_SC_E6configEEESt4pairINT_13edge_iteratorESI_ERKNS_21directed_edges_helperISH_EE(%"struct.std::pair.4"* sret %ref.tmp156, %"struct.boost::directed_edges_helper"* %38)
          to label %invoke.cont157 unwind label %lpad154

invoke.cont157:                                   ; preds = %invoke.cont155
  %call160 = invoke %"class.boost::tuples::tuple"* @_ZN5boost6tuples5tupleIRNS_6detail22adj_list_edge_iteratorINS_12range_detail16integer_iteratorIjEENS2_13out_edge_iterIN9__gnu_cxx17__normal_iteratorIPNS2_20stored_edge_propertyIjNS_8propertyINS_13edge_weight_tEiNSB_INS_14edge_weight2_tEiNS_11no_propertyEEEEEEESt6vectorISH_SaISH_EEEEjNS2_14edge_desc_implINS_12directed_tagEjEEiEENS_14adjacency_listINS_4vecSESS_NS_9directedSESE_SG_SE_NS_5listSEEEEESX_NS0_9null_typeESY_SY_SY_SY_SY_SY_SY_EaSISW_SW_EERSZ_RKSt4pairIT_T0_E(%"class.boost::tuples::tuple"* %tmp153, %"struct.std::pair.4"* %ref.tmp156)
          to label %invoke.cont159 unwind label %lpad158

invoke.cont159:                                   ; preds = %invoke.cont157
  invoke void @_ZNSt4pairIN5boost6detail22adj_list_edge_iteratorINS0_12range_detail16integer_iteratorIjEENS1_13out_edge_iterIN9__gnu_cxx17__normal_iteratorIPNS1_20stored_edge_propertyIjNS0_8propertyINS0_13edge_weight_tEiNSA_INS0_14edge_weight2_tEiNS0_11no_propertyEEEEEEESt6vectorISG_SaISG_EEEEjNS1_14edge_desc_implINS0_12directed_tagEjEEiEENS0_14adjacency_listINS0_4vecSESR_NS0_9directedSESD_SF_SD_NS0_5listSEEEEESV_ED1Ev(%"struct.std::pair.4"* %ref.tmp156)
          to label %invoke.cont161 unwind label %lpad154

invoke.cont161:                                   ; preds = %invoke.cont159
  br label %for.cond163

for.cond163:                                      ; preds = %invoke.cont194, %invoke.cont161
  %call165 = invoke zeroext i1 @_ZNK5boost6detail22adj_list_edge_iteratorINS_12range_detail16integer_iteratorIjEENS0_13out_edge_iterIN9__gnu_cxx17__normal_iteratorIPNS0_20stored_edge_propertyIjNS_8propertyINS_13edge_weight_tEiNS9_INS_14edge_weight2_tEiNS_11no_propertyEEEEEEESt6vectorISF_SaISF_EEEEjNS0_14edge_desc_implINS_12directed_tagEjEEiEENS_14adjacency_listINS_4vecSESQ_NS_9directedSESC_SE_SC_NS_5listSEEEEneERKSU_(%"class.boost::detail::adj_list_edge_iterator"* %ei, %"class.boost::detail::adj_list_edge_iterator"* %ei_end)
          to label %invoke.cont164 unwind label %lpad154

invoke.cont164:                                   ; preds = %for.cond163
  br i1 %call165, label %for.body166, label %for.end196

for.body166:                                      ; preds = %invoke.cont164
  %39 = bitcast %"class.std::basic_ofstream"* %fout to %"class.std::basic_ostream"*
  invoke void @_ZNK5boost6detail22adj_list_edge_iteratorINS_12range_detail16integer_iteratorIjEENS0_13out_edge_iterIN9__gnu_cxx17__normal_iteratorIPNS0_20stored_edge_propertyIjNS_8propertyINS_13edge_weight_tEiNS9_INS_14edge_weight2_tEiNS_11no_propertyEEEEEEESt6vectorISF_SaISF_EEEEjNS0_14edge_desc_implINS_12directed_tagEjEEiEENS_14adjacency_listINS_4vecSESQ_NS_9directedSESC_SE_SC_NS_5listSEEEEdeEv(%"class.boost::detail::edge_desc_impl"* sret %ref.tmp167, %"class.boost::detail::adj_list_edge_iterator"* %ei)
          to label %invoke.cont168 unwind label %lpad154

invoke.cont168:                                   ; preds = %for.body166
  %40 = bitcast %"class.boost::detail::edge_desc_impl"* %ref.tmp167 to %"struct.boost::detail::edge_base"*
  %call170 = invoke i32 @_ZN5boost6sourceINS_12directed_tagEjNS_4vecSES2_NS_9directedSENS_11no_propertyENS_8propertyINS_13edge_weight_tEiNS5_INS_14edge_weight2_tEiS4_EEEES4_NS_5listSEEET0_RKNS_6detail9edge_baseIT_SB_EERKNS_14adjacency_listIT1_T2_T3_T4_T5_T6_T7_EE(%"struct.boost::detail::edge_base"* %40, %"class.boost::adjacency_list"* %g)
          to label %invoke.cont169 unwind label %lpad154

invoke.cont169:                                   ; preds = %invoke.cont168
  %call172 = invoke %"class.std::basic_ostream"* @_ZNSolsEj(%"class.std::basic_ostream"* %39, i32 %call170)
          to label %invoke.cont171 unwind label %lpad154

invoke.cont171:                                   ; preds = %invoke.cont169
  %call174 = invoke %"class.std::basic_ostream"* @_ZStlsISt11char_traitsIcEERSt13basic_ostreamIcT_ES5_PKc(%"class.std::basic_ostream"* %call172, i8* getelementptr inbounds ([5 x i8]* @.str2, i32 0, i32 0))
          to label %invoke.cont173 unwind label %lpad154

invoke.cont173:                                   ; preds = %invoke.cont171
  invoke void @_ZNK5boost6detail22adj_list_edge_iteratorINS_12range_detail16integer_iteratorIjEENS0_13out_edge_iterIN9__gnu_cxx17__normal_iteratorIPNS0_20stored_edge_propertyIjNS_8propertyINS_13edge_weight_tEiNS9_INS_14edge_weight2_tEiNS_11no_propertyEEEEEEESt6vectorISF_SaISF_EEEEjNS0_14edge_desc_implINS_12directed_tagEjEEiEENS_14adjacency_listINS_4vecSESQ_NS_9directedSESC_SE_SC_NS_5listSEEEEdeEv(%"class.boost::detail::edge_desc_impl"* sret %ref.tmp175, %"class.boost::detail::adj_list_edge_iterator"* %ei)
          to label %invoke.cont176 unwind label %lpad154

invoke.cont176:                                   ; preds = %invoke.cont173
  %41 = bitcast %"class.boost::detail::edge_desc_impl"* %ref.tmp175 to %"struct.boost::detail::edge_base"*
  %call178 = invoke i32 @_ZN5boost6targetINS_12directed_tagEjNS_4vecSES2_NS_9directedSENS_11no_propertyENS_8propertyINS_13edge_weight_tEiNS5_INS_14edge_weight2_tEiS4_EEEES4_NS_5listSEEET0_RKNS_6detail9edge_baseIT_SB_EERKNS_14adjacency_listIT1_T2_T3_T4_T5_T6_T7_EE(%"struct.boost::detail::edge_base"* %41, %"class.boost::adjacency_list"* %g)
          to label %invoke.cont177 unwind label %lpad154

invoke.cont177:                                   ; preds = %invoke.cont176
  %call180 = invoke %"class.std::basic_ostream"* @_ZNSolsEj(%"class.std::basic_ostream"* %call174, i32 %call178)
          to label %invoke.cont179 unwind label %lpad154

invoke.cont179:                                   ; preds = %invoke.cont177
  %call182 = invoke %"class.std::basic_ostream"* @_ZStlsISt11char_traitsIcEERSt13basic_ostreamIcT_ES5_PKc(%"class.std::basic_ostream"* %call180, i8* getelementptr inbounds ([8 x i8]* @.str11, i32 0, i32 0))
          to label %invoke.cont181 unwind label %lpad154

invoke.cont181:                                   ; preds = %invoke.cont179
  %42 = bitcast %"class.boost::adjacency_list"* %g to %"struct.boost::adj_list_helper"*
  invoke void @_ZN5boost3getINS_6detail12adj_list_genINS_14adjacency_listINS_4vecSES4_NS_9directedSENS_11no_propertyENS_8propertyINS_13edge_weight_tEiNS7_INS_14edge_weight2_tEiS6_EEEES6_NS_5listSEEES4_S4_S5_S6_SB_S6_SC_E6configENS_21directed_graph_helperISF_EES8_EENS_12property_mapINT_10graph_typeET1_E4typeESL_RNS_15adj_list_helperISJ_T0_EE(%"struct.boost::adj_list_edge_property_map"* sret %tmp183, i32 0, %"struct.boost::adj_list_helper"* %42)
          to label %invoke.cont184 unwind label %lpad154

invoke.cont184:                                   ; preds = %invoke.cont181
  invoke void @_ZNK5boost6detail22adj_list_edge_iteratorINS_12range_detail16integer_iteratorIjEENS0_13out_edge_iterIN9__gnu_cxx17__normal_iteratorIPNS0_20stored_edge_propertyIjNS_8propertyINS_13edge_weight_tEiNS9_INS_14edge_weight2_tEiNS_11no_propertyEEEEEEESt6vectorISF_SaISF_EEEEjNS0_14edge_desc_implINS_12directed_tagEjEEiEENS_14adjacency_listINS_4vecSESQ_NS_9directedSESC_SE_SC_NS_5listSEEEEdeEv(%"class.boost::detail::edge_desc_impl"* sret %agg.tmp185, %"class.boost::detail::adj_list_edge_iterator"* %ei)
          to label %invoke.cont186 unwind label %lpad154

invoke.cont186:                                   ; preds = %invoke.cont184
  %call188 = invoke i32* @_ZNK5boost26adj_list_edge_property_mapINS_12directed_tagEiRijNS_8propertyINS_13edge_weight_tEiNS3_INS_14edge_weight2_tEiNS_11no_propertyEEEEES4_EixENS_6detail14edge_desc_implIS1_jEE(%"struct.boost::adj_list_edge_property_map"* %tmp183, %"class.boost::detail::edge_desc_impl"* byval align 4 %agg.tmp185)
          to label %invoke.cont187 unwind label %lpad154

invoke.cont187:                                   ; preds = %invoke.cont186
  %43 = load i32* %call188
  %call190 = invoke %"class.std::basic_ostream"* @_ZNSolsEi(%"class.std::basic_ostream"* %call182, i32 %43)
          to label %invoke.cont189 unwind label %lpad154

invoke.cont189:                                   ; preds = %invoke.cont187
  %call192 = invoke %"class.std::basic_ostream"* @_ZStlsISt11char_traitsIcEERSt13basic_ostreamIcT_ES5_PKc(%"class.std::basic_ostream"* %call190, i8* getelementptr inbounds ([3 x i8]* @.str12, i32 0, i32 0))
          to label %invoke.cont191 unwind label %lpad154

invoke.cont191:                                   ; preds = %invoke.cont189
  br label %for.inc193

for.inc193:                                       ; preds = %invoke.cont191
  %call195 = invoke %"class.boost::detail::adj_list_edge_iterator"* @_ZN5boost6detail22adj_list_edge_iteratorINS_12range_detail16integer_iteratorIjEENS0_13out_edge_iterIN9__gnu_cxx17__normal_iteratorIPNS0_20stored_edge_propertyIjNS_8propertyINS_13edge_weight_tEiNS9_INS_14edge_weight2_tEiNS_11no_propertyEEEEEEESt6vectorISF_SaISF_EEEEjNS0_14edge_desc_implINS_12directed_tagEjEEiEENS_14adjacency_listINS_4vecSESQ_NS_9directedSESC_SE_SC_NS_5listSEEEEppEv(%"class.boost::detail::adj_list_edge_iterator"* %ei)
          to label %invoke.cont194 unwind label %lpad154

invoke.cont194:                                   ; preds = %for.inc193
  br label %for.cond163

lpad135:                                          ; preds = %invoke.cont199, %invoke.cont146, %invoke.cont144, %invoke.cont142, %invoke.cont140, %invoke.cont138, %invoke.cont136, %invoke.cont134
  %44 = landingpad { i8*, i32 } personality i8* bitcast (i32 (...)* @__gxx_personality_v0 to i8*)
          cleanup
  %45 = extractvalue { i8*, i32 } %44, 0
  store i8* %45, i8** %exn.slot
  %46 = extractvalue { i8*, i32 } %44, 1
  store i32 %46, i32* %ehselector.slot
  br label %ehcleanup205

lpad151:                                          ; preds = %invoke.cont197, %invoke.cont149
  %47 = landingpad { i8*, i32 } personality i8* bitcast (i32 (...)* @__gxx_personality_v0 to i8*)
          cleanup
  %48 = extractvalue { i8*, i32 } %47, 0
  store i8* %48, i8** %exn.slot
  %49 = extractvalue { i8*, i32 } %47, 1
  store i32 %49, i32* %ehselector.slot
  br label %ehcleanup202

lpad154:                                          ; preds = %for.end196, %for.inc193, %invoke.cont189, %invoke.cont187, %invoke.cont186, %invoke.cont184, %invoke.cont181, %invoke.cont179, %invoke.cont177, %invoke.cont176, %invoke.cont173, %invoke.cont171, %invoke.cont169, %invoke.cont168, %for.body166, %for.cond163, %invoke.cont159, %invoke.cont155, %invoke.cont152
  %50 = landingpad { i8*, i32 } personality i8* bitcast (i32 (...)* @__gxx_personality_v0 to i8*)
          cleanup
  %51 = extractvalue { i8*, i32 } %50, 0
  store i8* %51, i8** %exn.slot
  %52 = extractvalue { i8*, i32 } %50, 1
  store i32 %52, i32* %ehselector.slot
  br label %ehcleanup

lpad158:                                          ; preds = %invoke.cont157
  %53 = landingpad { i8*, i32 } personality i8* bitcast (i32 (...)* @__gxx_personality_v0 to i8*)
          cleanup
  %54 = extractvalue { i8*, i32 } %53, 0
  store i8* %54, i8** %exn.slot
  %55 = extractvalue { i8*, i32 } %53, 1
  store i32 %55, i32* %ehselector.slot
  invoke void @_ZNSt4pairIN5boost6detail22adj_list_edge_iteratorINS0_12range_detail16integer_iteratorIjEENS1_13out_edge_iterIN9__gnu_cxx17__normal_iteratorIPNS1_20stored_edge_propertyIjNS0_8propertyINS0_13edge_weight_tEiNSA_INS0_14edge_weight2_tEiNS0_11no_propertyEEEEEEESt6vectorISG_SaISG_EEEEjNS1_14edge_desc_implINS0_12directed_tagEjEEiEENS0_14adjacency_listINS0_4vecSESR_NS0_9directedSESD_SF_SD_NS0_5listSEEEEESV_ED1Ev(%"struct.std::pair.4"* %ref.tmp156)
          to label %invoke.cont162 unwind label %terminate.lpad

invoke.cont162:                                   ; preds = %lpad158
  br label %ehcleanup

for.end196:                                       ; preds = %invoke.cont164
  %56 = bitcast %"class.std::basic_ofstream"* %fout to %"class.std::basic_ostream"*
  %call198 = invoke %"class.std::basic_ostream"* @_ZStlsISt11char_traitsIcEERSt13basic_ostreamIcT_ES5_PKc(%"class.std::basic_ostream"* %56, i8* getelementptr inbounds ([3 x i8]* @.str13, i32 0, i32 0))
          to label %invoke.cont197 unwind label %lpad154

invoke.cont197:                                   ; preds = %for.end196
  store i32 0, i32* %retval
  store i32 1, i32* %cleanup.dest.slot
  invoke void @_ZN5boost6detail22adj_list_edge_iteratorINS_12range_detail16integer_iteratorIjEENS0_13out_edge_iterIN9__gnu_cxx17__normal_iteratorIPNS0_20stored_edge_propertyIjNS_8propertyINS_13edge_weight_tEiNS9_INS_14edge_weight2_tEiNS_11no_propertyEEEEEEESt6vectorISF_SaISF_EEEEjNS0_14edge_desc_implINS_12directed_tagEjEEiEENS_14adjacency_listINS_4vecSESQ_NS_9directedSESC_SE_SC_NS_5listSEEEED1Ev(%"class.boost::detail::adj_list_edge_iterator"* %ei_end)
          to label %invoke.cont199 unwind label %lpad151

invoke.cont199:                                   ; preds = %invoke.cont197
  invoke void @_ZN5boost6detail22adj_list_edge_iteratorINS_12range_detail16integer_iteratorIjEENS0_13out_edge_iterIN9__gnu_cxx17__normal_iteratorIPNS0_20stored_edge_propertyIjNS_8propertyINS_13edge_weight_tEiNS9_INS_14edge_weight2_tEiNS_11no_propertyEEEEEEESt6vectorISF_SaISF_EEEEjNS0_14edge_desc_implINS_12directed_tagEjEEiEENS_14adjacency_listINS_4vecSESQ_NS_9directedSESC_SE_SC_NS_5listSEEEED1Ev(%"class.boost::detail::adj_list_edge_iterator"* %ei)
          to label %invoke.cont201 unwind label %lpad135

ehcleanup:                                        ; preds = %invoke.cont162, %lpad154
  invoke void @_ZN5boost6detail22adj_list_edge_iteratorINS_12range_detail16integer_iteratorIjEENS0_13out_edge_iterIN9__gnu_cxx17__normal_iteratorIPNS0_20stored_edge_propertyIjNS_8propertyINS_13edge_weight_tEiNS9_INS_14edge_weight2_tEiNS_11no_propertyEEEEEEESt6vectorISF_SaISF_EEEEjNS0_14edge_desc_implINS_12directed_tagEjEEiEENS_14adjacency_listINS_4vecSESQ_NS_9directedSESC_SE_SC_NS_5listSEEEED1Ev(%"class.boost::detail::adj_list_edge_iterator"* %ei_end)
          to label %invoke.cont200 unwind label %terminate.lpad

invoke.cont200:                                   ; preds = %ehcleanup
  br label %ehcleanup202

invoke.cont201:                                   ; preds = %invoke.cont199
  invoke void @_ZNSt14basic_ofstreamIcSt11char_traitsIcEED1Ev(%"class.std::basic_ofstream"* %fout)
          to label %invoke.cont204 unwind label %lpad68

ehcleanup202:                                     ; preds = %invoke.cont200, %lpad151
  invoke void @_ZN5boost6detail22adj_list_edge_iteratorINS_12range_detail16integer_iteratorIjEENS0_13out_edge_iterIN9__gnu_cxx17__normal_iteratorIPNS0_20stored_edge_propertyIjNS_8propertyINS_13edge_weight_tEiNS9_INS_14edge_weight2_tEiNS_11no_propertyEEEEEEESt6vectorISF_SaISF_EEEEjNS0_14edge_desc_implINS_12directed_tagEjEEiEENS_14adjacency_listINS_4vecSESQ_NS_9directedSESC_SE_SC_NS_5listSEEEED1Ev(%"class.boost::detail::adj_list_edge_iterator"* %ei)
          to label %invoke.cont203 unwind label %terminate.lpad

invoke.cont203:                                   ; preds = %ehcleanup202
  br label %ehcleanup205

invoke.cont204:                                   ; preds = %invoke.cont201
  invoke void @_ZNSt6vectorIiSaIiEED1Ev(%"class.std::vector.5"* %d)
          to label %invoke.cont207 unwind label %lpad46

ehcleanup205:                                     ; preds = %invoke.cont203, %lpad135
  invoke void @_ZNSt14basic_ofstreamIcSt11char_traitsIcEED1Ev(%"class.std::basic_ofstream"* %fout)
          to label %invoke.cont206 unwind label %terminate.lpad

invoke.cont206:                                   ; preds = %ehcleanup205
  br label %ehcleanup208

invoke.cont207:                                   ; preds = %invoke.cont204
  invoke void @_ZN5boost6detail22adj_list_edge_iteratorINS_12range_detail16integer_iteratorIjEENS0_13out_edge_iterIN9__gnu_cxx17__normal_iteratorIPNS0_20stored_edge_propertyIjNS_8propertyINS_13edge_weight_tEiNS9_INS_14edge_weight2_tEiNS_11no_propertyEEEEEEESt6vectorISF_SaISF_EEEEjNS0_14edge_desc_implINS_12directed_tagEjEEiEENS_14adjacency_listINS_4vecSESQ_NS_9directedSESC_SE_SC_NS_5listSEEEED1Ev(%"class.boost::detail::adj_list_edge_iterator"* %e_end)
          to label %invoke.cont210 unwind label %lpad44

ehcleanup208:                                     ; preds = %invoke.cont206, %lpad68
  invoke void @_ZNSt6vectorIiSaIiEED1Ev(%"class.std::vector.5"* %d)
          to label %invoke.cont209 unwind label %terminate.lpad

invoke.cont209:                                   ; preds = %ehcleanup208
  br label %ehcleanup211

invoke.cont210:                                   ; preds = %invoke.cont207
  invoke void @_ZN5boost6detail22adj_list_edge_iteratorINS_12range_detail16integer_iteratorIjEENS0_13out_edge_iterIN9__gnu_cxx17__normal_iteratorIPNS0_20stored_edge_propertyIjNS_8propertyINS_13edge_weight_tEiNS9_INS_14edge_weight2_tEiNS_11no_propertyEEEEEEESt6vectorISF_SaISF_EEEEjNS0_14edge_desc_implINS_12directed_tagEjEEiEENS_14adjacency_listINS_4vecSESQ_NS_9directedSESC_SE_SC_NS_5listSEEEED1Ev(%"class.boost::detail::adj_list_edge_iterator"* %e)
          to label %invoke.cont213 unwind label %lpad

ehcleanup211:                                     ; preds = %invoke.cont209, %lpad64, %invoke.cont53, %lpad46
  invoke void @_ZN5boost6detail22adj_list_edge_iteratorINS_12range_detail16integer_iteratorIjEENS0_13out_edge_iterIN9__gnu_cxx17__normal_iteratorIPNS0_20stored_edge_propertyIjNS_8propertyINS_13edge_weight_tEiNS9_INS_14edge_weight2_tEiNS_11no_propertyEEEEEEESt6vectorISF_SaISF_EEEEjNS0_14edge_desc_implINS_12directed_tagEjEEiEENS_14adjacency_listINS_4vecSESQ_NS_9directedSESC_SE_SC_NS_5listSEEEED1Ev(%"class.boost::detail::adj_list_edge_iterator"* %e_end)
          to label %invoke.cont212 unwind label %terminate.lpad

invoke.cont212:                                   ; preds = %ehcleanup211
  br label %ehcleanup214

invoke.cont213:                                   ; preds = %invoke.cont210
  call void @_ZN5boost14adjacency_listINS_4vecSES1_NS_9directedSENS_11no_propertyENS_8propertyINS_13edge_weight_tEiNS4_INS_14edge_weight2_tEiS3_EEEES3_NS_5listSEED1Ev(%"class.boost::adjacency_list"* %g)
  %57 = load i32* %retval
  ret i32 %57

ehcleanup214:                                     ; preds = %invoke.cont212, %lpad44
  invoke void @_ZN5boost6detail22adj_list_edge_iteratorINS_12range_detail16integer_iteratorIjEENS0_13out_edge_iterIN9__gnu_cxx17__normal_iteratorIPNS0_20stored_edge_propertyIjNS_8propertyINS_13edge_weight_tEiNS9_INS_14edge_weight2_tEiNS_11no_propertyEEEEEEESt6vectorISF_SaISF_EEEEjNS0_14edge_desc_implINS_12directed_tagEjEEiEENS_14adjacency_listINS_4vecSESQ_NS_9directedSESC_SE_SC_NS_5listSEEEED1Ev(%"class.boost::detail::adj_list_edge_iterator"* %e)
          to label %invoke.cont215 unwind label %terminate.lpad

invoke.cont215:                                   ; preds = %ehcleanup214
  br label %ehcleanup216

ehcleanup216:                                     ; preds = %invoke.cont215, %lpad
  invoke void @_ZN5boost14adjacency_listINS_4vecSES1_NS_9directedSENS_11no_propertyENS_8propertyINS_13edge_weight_tEiNS4_INS_14edge_weight2_tEiS3_EEEES3_NS_5listSEED1Ev(%"class.boost::adjacency_list"* %g)
          to label %invoke.cont217 unwind label %terminate.lpad

invoke.cont217:                                   ; preds = %ehcleanup216
  br label %eh.resume

eh.resume:                                        ; preds = %invoke.cont217
  %exn = load i8** %exn.slot
  %sel = load i32* %ehselector.slot
  %lpad.val = insertvalue { i8*, i32 } undef, i8* %exn, 0
  %lpad.val218 = insertvalue { i8*, i32 } %lpad.val, i32 %sel, 1
  resume { i8*, i32 } %lpad.val218

terminate.lpad:                                   ; preds = %ehcleanup216, %ehcleanup214, %ehcleanup211, %ehcleanup208, %ehcleanup205, %ehcleanup202, %ehcleanup, %lpad158, %lpad50
  %58 = landingpad { i8*, i32 } personality i8* bitcast (i32 (...)* @__gxx_personality_v0 to i8*)
          catch i8* null
  call void @_ZSt9terminatev() noreturn nounwind
  unreachable
}

define linkonce_odr void @_ZNSt4pairIiiEC1ERKiS2_(%"struct.std::pair"* %this, i32* %__a, i32* %__b) unnamed_addr align 2 {
entry:
  %this.addr = alloca %"struct.std::pair"*, align 4
  %__a.addr = alloca i32*, align 4
  %__b.addr = alloca i32*, align 4
  store %"struct.std::pair"* %this, %"struct.std::pair"** %this.addr, align 4
  store i32* %__a, i32** %__a.addr, align 4
  store i32* %__b, i32** %__b.addr, align 4
  %this1 = load %"struct.std::pair"** %this.addr
  %0 = load i32** %__a.addr
  %1 = load i32** %__b.addr
  call void @_ZNSt4pairIiiEC2ERKiS2_(%"struct.std::pair"* %this1, i32* %0, i32* %1)
  ret void
}

define linkonce_odr void @_ZN5boost14adjacency_listINS_4vecSES1_NS_9directedSENS_11no_propertyENS_8propertyINS_13edge_weight_tEiNS4_INS_14edge_weight2_tEiS3_EEEES3_NS_5listSEEC1IPSt4pairIiiEEET_SF_jjRKS3_(%"class.boost::adjacency_list"* %this, %"struct.std::pair"* %first, %"struct.std::pair"* %last, i32 %n, i32, %"struct.boost::no_property"* %p) unnamed_addr align 2 {
entry:
  %this.addr = alloca %"class.boost::adjacency_list"*, align 4
  %first.addr = alloca %"struct.std::pair"*, align 4
  %last.addr = alloca %"struct.std::pair"*, align 4
  %n.addr = alloca i32, align 4
  %.addr = alloca i32, align 4
  %p.addr = alloca %"struct.boost::no_property"*, align 4
  store %"class.boost::adjacency_list"* %this, %"class.boost::adjacency_list"** %this.addr, align 4
  store %"struct.std::pair"* %first, %"struct.std::pair"** %first.addr, align 4
  store %"struct.std::pair"* %last, %"struct.std::pair"** %last.addr, align 4
  store i32 %n, i32* %n.addr, align 4
  store i32 %0, i32* %.addr, align 4
  store %"struct.boost::no_property"* %p, %"struct.boost::no_property"** %p.addr, align 4
  %this1 = load %"class.boost::adjacency_list"** %this.addr
  %1 = load %"struct.std::pair"** %first.addr, align 4
  %2 = load %"struct.std::pair"** %last.addr, align 4
  %3 = load i32* %n.addr, align 4
  %4 = load i32* %.addr, align 4
  %5 = load %"struct.boost::no_property"** %p.addr
  call void @_ZN5boost14adjacency_listINS_4vecSES1_NS_9directedSENS_11no_propertyENS_8propertyINS_13edge_weight_tEiNS4_INS_14edge_weight2_tEiS3_EEEES3_NS_5listSEEC2IPSt4pairIiiEEET_SF_jjRKS3_(%"class.boost::adjacency_list"* %this1, %"struct.std::pair"* %1, %"struct.std::pair"* %2, i32 %3, i32 %4, %"struct.boost::no_property"* %5)
  ret void
}

define linkonce_odr void @_ZN5boost3getINS_6detail12adj_list_genINS_14adjacency_listINS_4vecSES4_NS_9directedSENS_11no_propertyENS_8propertyINS_13edge_weight_tEiNS7_INS_14edge_weight2_tEiS6_EEEES6_NS_5listSEEES4_S4_S5_S6_SB_S6_SC_E6configENS_21directed_graph_helperISF_EES8_EENS_12property_mapINT_10graph_typeET1_E4typeESL_RNS_15adj_list_helperISJ_T0_EE(%"struct.boost::adj_list_edge_property_map"* noalias sret %agg.result, i32 %p, %"struct.boost::adj_list_helper"* %g) inlinehint {
entry:
  %p.addr = alloca i32, align 4
  %g.addr = alloca %"struct.boost::adj_list_helper"*, align 4
  %agg.tmp = alloca %"struct.boost::edge_property_tag", align 1
  store i32 %p, i32* %p.addr, align 4
  store %"struct.boost::adj_list_helper"* %g, %"struct.boost::adj_list_helper"** %g.addr, align 4
  %0 = load %"struct.boost::adj_list_helper"** %g.addr, align 4
  %1 = load i32* %p.addr, align 4
  call void @_ZN5boost6detail12get_dispatchINS0_12adj_list_genINS_14adjacency_listINS_4vecSES4_NS_9directedSENS_11no_propertyENS_8propertyINS_13edge_weight_tEiNS7_INS_14edge_weight2_tEiS6_EEEES6_NS_5listSEEES4_S4_S5_S6_SB_S6_SC_E6configENS_21directed_graph_helperISF_EES8_EENS_12property_mapINT_10graph_typeET1_E4typeERNS_15adj_list_helperISJ_T0_EESL_NS_17edge_property_tagE(%"struct.boost::adj_list_edge_property_map"* sret %agg.result, %"struct.boost::adj_list_helper"* %0, i32 %1)
  ret void
}

declare i32 @__gxx_personality_v0(...)

declare void @llvm.memcpy.p0i8.p0i8.i32(i8* nocapture, i8* nocapture, i32, i32, i1) nounwind

define linkonce_odr void @_ZN5boost6detail22adj_list_edge_iteratorINS_12range_detail16integer_iteratorIjEENS0_13out_edge_iterIN9__gnu_cxx17__normal_iteratorIPNS0_20stored_edge_propertyIjNS_8propertyINS_13edge_weight_tEiNS9_INS_14edge_weight2_tEiNS_11no_propertyEEEEEEESt6vectorISF_SaISF_EEEEjNS0_14edge_desc_implINS_12directed_tagEjEEiEENS_14adjacency_listINS_4vecSESQ_NS_9directedSESC_SE_SC_NS_5listSEEEEC1Ev(%"class.boost::detail::adj_list_edge_iterator"* %this) unnamed_addr inlinehint align 2 {
entry:
  %this.addr = alloca %"class.boost::detail::adj_list_edge_iterator"*, align 4
  store %"class.boost::detail::adj_list_edge_iterator"* %this, %"class.boost::detail::adj_list_edge_iterator"** %this.addr, align 4
  %this1 = load %"class.boost::detail::adj_list_edge_iterator"** %this.addr
  call void @_ZN5boost6detail22adj_list_edge_iteratorINS_12range_detail16integer_iteratorIjEENS0_13out_edge_iterIN9__gnu_cxx17__normal_iteratorIPNS0_20stored_edge_propertyIjNS_8propertyINS_13edge_weight_tEiNS9_INS_14edge_weight2_tEiNS_11no_propertyEEEEEEESt6vectorISF_SaISF_EEEEjNS0_14edge_desc_implINS_12directed_tagEjEEiEENS_14adjacency_listINS_4vecSESQ_NS_9directedSESC_SE_SC_NS_5listSEEEEC2Ev(%"class.boost::detail::adj_list_edge_iterator"* %this1)
  ret void
}

define linkonce_odr void @_ZN5boost6tuples3tieINS_6detail22adj_list_edge_iteratorINS_12range_detail16integer_iteratorIjEENS2_13out_edge_iterIN9__gnu_cxx17__normal_iteratorIPNS2_20stored_edge_propertyIjNS_8propertyINS_13edge_weight_tEiNSB_INS_14edge_weight2_tEiNS_11no_propertyEEEEEEESt6vectorISH_SaISH_EEEEjNS2_14edge_desc_implINS_12directed_tagEjEEiEENS_14adjacency_listINS_4vecSESS_NS_9directedSESE_SG_SE_NS_5listSEEEEESW_EENS0_6detail10tie_mapperIT_T0_vvvvvvvvE4typeERSZ_RS10_(%"class.boost::tuples::tuple"* noalias sret %agg.result, %"class.boost::detail::adj_list_edge_iterator"* %t0, %"class.boost::detail::adj_list_edge_iterator"* %t1) inlinehint {
entry:
  %t0.addr = alloca %"class.boost::detail::adj_list_edge_iterator"*, align 4
  %t1.addr = alloca %"class.boost::detail::adj_list_edge_iterator"*, align 4
  store %"class.boost::detail::adj_list_edge_iterator"* %t0, %"class.boost::detail::adj_list_edge_iterator"** %t0.addr, align 4
  store %"class.boost::detail::adj_list_edge_iterator"* %t1, %"class.boost::detail::adj_list_edge_iterator"** %t1.addr, align 4
  %0 = load %"class.boost::detail::adj_list_edge_iterator"** %t0.addr, align 4
  %1 = load %"class.boost::detail::adj_list_edge_iterator"** %t1.addr, align 4
  call void @_ZN5boost6tuples5tupleIRNS_6detail22adj_list_edge_iteratorINS_12range_detail16integer_iteratorIjEENS2_13out_edge_iterIN9__gnu_cxx17__normal_iteratorIPNS2_20stored_edge_propertyIjNS_8propertyINS_13edge_weight_tEiNSB_INS_14edge_weight2_tEiNS_11no_propertyEEEEEEESt6vectorISH_SaISH_EEEEjNS2_14edge_desc_implINS_12directed_tagEjEEiEENS_14adjacency_listINS_4vecSESS_NS_9directedSESE_SG_SE_NS_5listSEEEEESX_NS0_9null_typeESY_SY_SY_SY_SY_SY_SY_EC1ESX_SX_(%"class.boost::tuples::tuple"* %agg.result, %"class.boost::detail::adj_list_edge_iterator"* %0, %"class.boost::detail::adj_list_edge_iterator"* %1)
  ret void
}

define linkonce_odr %"class.boost::tuples::tuple"* @_ZN5boost6tuples5tupleIRNS_6detail22adj_list_edge_iteratorINS_12range_detail16integer_iteratorIjEENS2_13out_edge_iterIN9__gnu_cxx17__normal_iteratorIPNS2_20stored_edge_propertyIjNS_8propertyINS_13edge_weight_tEiNSB_INS_14edge_weight2_tEiNS_11no_propertyEEEEEEESt6vectorISH_SaISH_EEEEjNS2_14edge_desc_implINS_12directed_tagEjEEiEENS_14adjacency_listINS_4vecSESS_NS_9directedSESE_SG_SE_NS_5listSEEEEESX_NS0_9null_typeESY_SY_SY_SY_SY_SY_SY_EaSISW_SW_EERSZ_RKSt4pairIT_T0_E(%"class.boost::tuples::tuple"* %this, %"struct.std::pair.4"* %k) align 2 {
entry:
  %this.addr = alloca %"class.boost::tuples::tuple"*, align 4
  %k.addr = alloca %"struct.std::pair.4"*, align 4
  store %"class.boost::tuples::tuple"* %this, %"class.boost::tuples::tuple"** %this.addr, align 4
  store %"struct.std::pair.4"* %k, %"struct.std::pair.4"** %k.addr, align 4
  %this1 = load %"class.boost::tuples::tuple"** %this.addr
  %0 = bitcast %"class.boost::tuples::tuple"* %this1 to %"struct.boost::tuples::cons"*
  %head = getelementptr inbounds %"struct.boost::tuples::cons"* %0, i32 0, i32 0
  %ref = load %"class.boost::detail::adj_list_edge_iterator"** %head, align 4
  %1 = load %"struct.std::pair.4"** %k.addr, align 4
  %first = getelementptr inbounds %"struct.std::pair.4"* %1, i32 0, i32 0
  %call = call %"class.boost::detail::adj_list_edge_iterator"* @_ZN5boost6detail22adj_list_edge_iteratorINS_12range_detail16integer_iteratorIjEENS0_13out_edge_iterIN9__gnu_cxx17__normal_iteratorIPNS0_20stored_edge_propertyIjNS_8propertyINS_13edge_weight_tEiNS9_INS_14edge_weight2_tEiNS_11no_propertyEEEEEEESt6vectorISF_SaISF_EEEEjNS0_14edge_desc_implINS_12directed_tagEjEEiEENS_14adjacency_listINS_4vecSESQ_NS_9directedSESC_SE_SC_NS_5listSEEEEaSERKSU_(%"class.boost::detail::adj_list_edge_iterator"* %ref, %"class.boost::detail::adj_list_edge_iterator"* %first)
  %2 = bitcast %"class.boost::tuples::tuple"* %this1 to %"struct.boost::tuples::cons"*
  %tail = getelementptr inbounds %"struct.boost::tuples::cons"* %2, i32 0, i32 1
  %head2 = getelementptr inbounds %"struct.boost::tuples::cons.3"* %tail, i32 0, i32 0
  %ref3 = load %"class.boost::detail::adj_list_edge_iterator"** %head2, align 4
  %3 = load %"struct.std::pair.4"** %k.addr, align 4
  %second = getelementptr inbounds %"struct.std::pair.4"* %3, i32 0, i32 1
  %call4 = call %"class.boost::detail::adj_list_edge_iterator"* @_ZN5boost6detail22adj_list_edge_iteratorINS_12range_detail16integer_iteratorIjEENS0_13out_edge_iterIN9__gnu_cxx17__normal_iteratorIPNS0_20stored_edge_propertyIjNS_8propertyINS_13edge_weight_tEiNS9_INS_14edge_weight2_tEiNS_11no_propertyEEEEEEESt6vectorISF_SaISF_EEEEjNS0_14edge_desc_implINS_12directed_tagEjEEiEENS_14adjacency_listINS_4vecSESQ_NS_9directedSESC_SE_SC_NS_5listSEEEEaSERKSU_(%"class.boost::detail::adj_list_edge_iterator"* %ref3, %"class.boost::detail::adj_list_edge_iterator"* %second)
  ret %"class.boost::tuples::tuple"* %this1
}

define linkonce_odr void @_ZN5boost5edgesINS_6detail12adj_list_genINS_14adjacency_listINS_4vecSES4_NS_9directedSENS_11no_propertyENS_8propertyINS_13edge_weight_tEiNS7_INS_14edge_weight2_tEiS6_EEEES6_NS_5listSEEES4_S4_S5_S6_SB_S6_SC_E6configEEESt4pairINT_13edge_iteratorESI_ERKNS_21directed_edges_helperISH_EE(%"struct.std::pair.4"* noalias sret %agg.result, %"struct.boost::directed_edges_helper"* %g_) inlinehint {
entry:
  %g_.addr = alloca %"struct.boost::directed_edges_helper"*, align 4
  %cg = alloca %"class.boost::adjacency_list"*, align 4
  %g = alloca %"class.boost::adjacency_list"*, align 4
  %agg.tmp = alloca %"class.boost::detail::adj_list_edge_iterator", align 4
  %agg.tmp1 = alloca %"class.boost::range_detail::integer_iterator", align 4
  %tmp = alloca %"class.boost::integer_range", align 4
  %agg.tmp2 = alloca %"class.boost::range_detail::integer_iterator", align 4
  %tmp3 = alloca %"class.boost::integer_range", align 4
  %agg.tmp4 = alloca %"class.boost::range_detail::integer_iterator", align 4
  %tmp5 = alloca %"class.boost::integer_range", align 4
  %agg.tmp6 = alloca %"class.boost::detail::adj_list_edge_iterator", align 4
  %agg.tmp7 = alloca %"class.boost::range_detail::integer_iterator", align 4
  %tmp8 = alloca %"class.boost::integer_range", align 4
  %exn.slot = alloca i8*
  %ehselector.slot = alloca i32
  %agg.tmp10 = alloca %"class.boost::range_detail::integer_iterator", align 4
  %tmp11 = alloca %"class.boost::integer_range", align 4
  %agg.tmp14 = alloca %"class.boost::range_detail::integer_iterator", align 4
  %tmp15 = alloca %"class.boost::integer_range", align 4
  store %"struct.boost::directed_edges_helper"* %g_, %"struct.boost::directed_edges_helper"** %g_.addr, align 4
  %0 = load %"struct.boost::directed_edges_helper"** %g_.addr, align 4
  %1 = bitcast %"struct.boost::directed_edges_helper"* %0 to %"class.boost::adjacency_list"*
  store %"class.boost::adjacency_list"* %1, %"class.boost::adjacency_list"** %cg, align 4
  %2 = load %"class.boost::adjacency_list"** %cg, align 4
  store %"class.boost::adjacency_list"* %2, %"class.boost::adjacency_list"** %g, align 4
  %3 = load %"class.boost::adjacency_list"** %g, align 4
  %4 = bitcast %"class.boost::adjacency_list"* %3 to %"class.boost::vec_adj_list_impl"*
  call void @_ZNK5boost17vec_adj_list_implINS_14adjacency_listINS_4vecSES2_NS_9directedSENS_11no_propertyENS_8propertyINS_13edge_weight_tEiNS5_INS_14edge_weight2_tEiS4_EEEES4_NS_5listSEEENS_6detail12adj_list_genISB_S2_S2_S3_S4_S9_S4_SA_E6configENS_21directed_graph_helperISF_EEE10vertex_setEv(%"class.boost::integer_range"* sret %tmp, %"class.boost::vec_adj_list_impl"* %4)
  %5 = bitcast %"class.boost::integer_range"* %tmp to %"class.boost::iterator_range"*
  call void @_ZNK5boost14iterator_rangeINS_12range_detail16integer_iteratorIjEEE5beginEv(%"class.boost::range_detail::integer_iterator"* sret %agg.tmp1, %"class.boost::iterator_range"* %5)
  %6 = load %"class.boost::adjacency_list"** %g, align 4
  %7 = bitcast %"class.boost::adjacency_list"* %6 to %"class.boost::vec_adj_list_impl"*
  call void @_ZNK5boost17vec_adj_list_implINS_14adjacency_listINS_4vecSES2_NS_9directedSENS_11no_propertyENS_8propertyINS_13edge_weight_tEiNS5_INS_14edge_weight2_tEiS4_EEEES4_NS_5listSEEENS_6detail12adj_list_genISB_S2_S2_S3_S4_S9_S4_SA_E6configENS_21directed_graph_helperISF_EEE10vertex_setEv(%"class.boost::integer_range"* sret %tmp3, %"class.boost::vec_adj_list_impl"* %7)
  %8 = bitcast %"class.boost::integer_range"* %tmp3 to %"class.boost::iterator_range"*
  call void @_ZNK5boost14iterator_rangeINS_12range_detail16integer_iteratorIjEEE5beginEv(%"class.boost::range_detail::integer_iterator"* sret %agg.tmp2, %"class.boost::iterator_range"* %8)
  %9 = load %"class.boost::adjacency_list"** %g, align 4
  %10 = bitcast %"class.boost::adjacency_list"* %9 to %"class.boost::vec_adj_list_impl"*
  call void @_ZNK5boost17vec_adj_list_implINS_14adjacency_listINS_4vecSES2_NS_9directedSENS_11no_propertyENS_8propertyINS_13edge_weight_tEiNS5_INS_14edge_weight2_tEiS4_EEEES4_NS_5listSEEENS_6detail12adj_list_genISB_S2_S2_S3_S4_S9_S4_SA_E6configENS_21directed_graph_helperISF_EEE10vertex_setEv(%"class.boost::integer_range"* sret %tmp5, %"class.boost::vec_adj_list_impl"* %10)
  %11 = bitcast %"class.boost::integer_range"* %tmp5 to %"class.boost::iterator_range"*
  call void @_ZNK5boost14iterator_rangeINS_12range_detail16integer_iteratorIjEEE3endEv(%"class.boost::range_detail::integer_iterator"* sret %agg.tmp4, %"class.boost::iterator_range"* %11)
  %12 = load %"class.boost::adjacency_list"** %g, align 4
  call void @_ZN5boost6detail22adj_list_edge_iteratorINS_12range_detail16integer_iteratorIjEENS0_13out_edge_iterIN9__gnu_cxx17__normal_iteratorIPNS0_20stored_edge_propertyIjNS_8propertyINS_13edge_weight_tEiNS9_INS_14edge_weight2_tEiNS_11no_propertyEEEEEEESt6vectorISF_SaISF_EEEEjNS0_14edge_desc_implINS_12directed_tagEjEEiEENS_14adjacency_listINS_4vecSESQ_NS_9directedSESC_SE_SC_NS_5listSEEEEC1IST_EES4_S4_S4_RKT_(%"class.boost::detail::adj_list_edge_iterator"* %agg.tmp, %"class.boost::range_detail::integer_iterator"* byval align 4 %agg.tmp1, %"class.boost::range_detail::integer_iterator"* byval align 4 %agg.tmp2, %"class.boost::range_detail::integer_iterator"* byval align 4 %agg.tmp4, %"class.boost::adjacency_list"* %12)
  %13 = load %"class.boost::adjacency_list"** %g, align 4
  %14 = bitcast %"class.boost::adjacency_list"* %13 to %"class.boost::vec_adj_list_impl"*
  invoke void @_ZNK5boost17vec_adj_list_implINS_14adjacency_listINS_4vecSES2_NS_9directedSENS_11no_propertyENS_8propertyINS_13edge_weight_tEiNS5_INS_14edge_weight2_tEiS4_EEEES4_NS_5listSEEENS_6detail12adj_list_genISB_S2_S2_S3_S4_S9_S4_SA_E6configENS_21directed_graph_helperISF_EEE10vertex_setEv(%"class.boost::integer_range"* sret %tmp8, %"class.boost::vec_adj_list_impl"* %14)
          to label %invoke.cont unwind label %lpad

invoke.cont:                                      ; preds = %entry
  %15 = bitcast %"class.boost::integer_range"* %tmp8 to %"class.boost::iterator_range"*
  invoke void @_ZNK5boost14iterator_rangeINS_12range_detail16integer_iteratorIjEEE5beginEv(%"class.boost::range_detail::integer_iterator"* sret %agg.tmp7, %"class.boost::iterator_range"* %15)
          to label %invoke.cont9 unwind label %lpad

invoke.cont9:                                     ; preds = %invoke.cont
  %16 = load %"class.boost::adjacency_list"** %g, align 4
  %17 = bitcast %"class.boost::adjacency_list"* %16 to %"class.boost::vec_adj_list_impl"*
  invoke void @_ZNK5boost17vec_adj_list_implINS_14adjacency_listINS_4vecSES2_NS_9directedSENS_11no_propertyENS_8propertyINS_13edge_weight_tEiNS5_INS_14edge_weight2_tEiS4_EEEES4_NS_5listSEEENS_6detail12adj_list_genISB_S2_S2_S3_S4_S9_S4_SA_E6configENS_21directed_graph_helperISF_EEE10vertex_setEv(%"class.boost::integer_range"* sret %tmp11, %"class.boost::vec_adj_list_impl"* %17)
          to label %invoke.cont12 unwind label %lpad

invoke.cont12:                                    ; preds = %invoke.cont9
  %18 = bitcast %"class.boost::integer_range"* %tmp11 to %"class.boost::iterator_range"*
  invoke void @_ZNK5boost14iterator_rangeINS_12range_detail16integer_iteratorIjEEE3endEv(%"class.boost::range_detail::integer_iterator"* sret %agg.tmp10, %"class.boost::iterator_range"* %18)
          to label %invoke.cont13 unwind label %lpad

invoke.cont13:                                    ; preds = %invoke.cont12
  %19 = load %"class.boost::adjacency_list"** %g, align 4
  %20 = bitcast %"class.boost::adjacency_list"* %19 to %"class.boost::vec_adj_list_impl"*
  invoke void @_ZNK5boost17vec_adj_list_implINS_14adjacency_listINS_4vecSES2_NS_9directedSENS_11no_propertyENS_8propertyINS_13edge_weight_tEiNS5_INS_14edge_weight2_tEiS4_EEEES4_NS_5listSEEENS_6detail12adj_list_genISB_S2_S2_S3_S4_S9_S4_SA_E6configENS_21directed_graph_helperISF_EEE10vertex_setEv(%"class.boost::integer_range"* sret %tmp15, %"class.boost::vec_adj_list_impl"* %20)
          to label %invoke.cont16 unwind label %lpad

invoke.cont16:                                    ; preds = %invoke.cont13
  %21 = bitcast %"class.boost::integer_range"* %tmp15 to %"class.boost::iterator_range"*
  invoke void @_ZNK5boost14iterator_rangeINS_12range_detail16integer_iteratorIjEEE3endEv(%"class.boost::range_detail::integer_iterator"* sret %agg.tmp14, %"class.boost::iterator_range"* %21)
          to label %invoke.cont17 unwind label %lpad

invoke.cont17:                                    ; preds = %invoke.cont16
  %22 = load %"class.boost::adjacency_list"** %g, align 4
  invoke void @_ZN5boost6detail22adj_list_edge_iteratorINS_12range_detail16integer_iteratorIjEENS0_13out_edge_iterIN9__gnu_cxx17__normal_iteratorIPNS0_20stored_edge_propertyIjNS_8propertyINS_13edge_weight_tEiNS9_INS_14edge_weight2_tEiNS_11no_propertyEEEEEEESt6vectorISF_SaISF_EEEEjNS0_14edge_desc_implINS_12directed_tagEjEEiEENS_14adjacency_listINS_4vecSESQ_NS_9directedSESC_SE_SC_NS_5listSEEEEC1IST_EES4_S4_S4_RKT_(%"class.boost::detail::adj_list_edge_iterator"* %agg.tmp6, %"class.boost::range_detail::integer_iterator"* byval align 4 %agg.tmp7, %"class.boost::range_detail::integer_iterator"* byval align 4 %agg.tmp10, %"class.boost::range_detail::integer_iterator"* byval align 4 %agg.tmp14, %"class.boost::adjacency_list"* %22)
          to label %invoke.cont18 unwind label %lpad

invoke.cont18:                                    ; preds = %invoke.cont17
  invoke void @_ZSt9make_pairIN5boost6detail22adj_list_edge_iteratorINS0_12range_detail16integer_iteratorIjEENS1_13out_edge_iterIN9__gnu_cxx17__normal_iteratorIPNS1_20stored_edge_propertyIjNS0_8propertyINS0_13edge_weight_tEiNSA_INS0_14edge_weight2_tEiNS0_11no_propertyEEEEEEESt6vectorISG_SaISG_EEEEjNS1_14edge_desc_implINS0_12directed_tagEjEEiEENS0_14adjacency_listINS0_4vecSESR_NS0_9directedSESD_SF_SD_NS0_5listSEEEEESV_ESt4pairIT_T0_ESX_SY_(%"struct.std::pair.4"* sret %agg.result, %"class.boost::detail::adj_list_edge_iterator"* %agg.tmp, %"class.boost::detail::adj_list_edge_iterator"* %agg.tmp6)
          to label %invoke.cont20 unwind label %lpad19

invoke.cont20:                                    ; preds = %invoke.cont18
  invoke void @_ZN5boost6detail22adj_list_edge_iteratorINS_12range_detail16integer_iteratorIjEENS0_13out_edge_iterIN9__gnu_cxx17__normal_iteratorIPNS0_20stored_edge_propertyIjNS_8propertyINS_13edge_weight_tEiNS9_INS_14edge_weight2_tEiNS_11no_propertyEEEEEEESt6vectorISF_SaISF_EEEEjNS0_14edge_desc_implINS_12directed_tagEjEEiEENS_14adjacency_listINS_4vecSESQ_NS_9directedSESC_SE_SC_NS_5listSEEEED1Ev(%"class.boost::detail::adj_list_edge_iterator"* %agg.tmp6)
          to label %invoke.cont21 unwind label %lpad

invoke.cont21:                                    ; preds = %invoke.cont20
  call void @_ZN5boost6detail22adj_list_edge_iteratorINS_12range_detail16integer_iteratorIjEENS0_13out_edge_iterIN9__gnu_cxx17__normal_iteratorIPNS0_20stored_edge_propertyIjNS_8propertyINS_13edge_weight_tEiNS9_INS_14edge_weight2_tEiNS_11no_propertyEEEEEEESt6vectorISF_SaISF_EEEEjNS0_14edge_desc_implINS_12directed_tagEjEEiEENS_14adjacency_listINS_4vecSESQ_NS_9directedSESC_SE_SC_NS_5listSEEEED1Ev(%"class.boost::detail::adj_list_edge_iterator"* %agg.tmp)
  ret void

lpad:                                             ; preds = %invoke.cont20, %invoke.cont17, %invoke.cont16, %invoke.cont13, %invoke.cont12, %invoke.cont9, %invoke.cont, %entry
  %23 = landingpad { i8*, i32 } personality i8* bitcast (i32 (...)* @__gxx_personality_v0 to i8*)
          cleanup
  %24 = extractvalue { i8*, i32 } %23, 0
  store i8* %24, i8** %exn.slot
  %25 = extractvalue { i8*, i32 } %23, 1
  store i32 %25, i32* %ehselector.slot
  br label %ehcleanup

lpad19:                                           ; preds = %invoke.cont18
  %26 = landingpad { i8*, i32 } personality i8* bitcast (i32 (...)* @__gxx_personality_v0 to i8*)
          cleanup
  %27 = extractvalue { i8*, i32 } %26, 0
  store i8* %27, i8** %exn.slot
  %28 = extractvalue { i8*, i32 } %26, 1
  store i32 %28, i32* %ehselector.slot
  invoke void @_ZN5boost6detail22adj_list_edge_iteratorINS_12range_detail16integer_iteratorIjEENS0_13out_edge_iterIN9__gnu_cxx17__normal_iteratorIPNS0_20stored_edge_propertyIjNS_8propertyINS_13edge_weight_tEiNS9_INS_14edge_weight2_tEiNS_11no_propertyEEEEEEESt6vectorISF_SaISF_EEEEjNS0_14edge_desc_implINS_12directed_tagEjEEiEENS_14adjacency_listINS_4vecSESQ_NS_9directedSESC_SE_SC_NS_5listSEEEED1Ev(%"class.boost::detail::adj_list_edge_iterator"* %agg.tmp6)
          to label %invoke.cont22 unwind label %terminate.lpad

invoke.cont22:                                    ; preds = %lpad19
  br label %ehcleanup

ehcleanup:                                        ; preds = %invoke.cont22, %lpad
  invoke void @_ZN5boost6detail22adj_list_edge_iteratorINS_12range_detail16integer_iteratorIjEENS0_13out_edge_iterIN9__gnu_cxx17__normal_iteratorIPNS0_20stored_edge_propertyIjNS_8propertyINS_13edge_weight_tEiNS9_INS_14edge_weight2_tEiNS_11no_propertyEEEEEEESt6vectorISF_SaISF_EEEEjNS0_14edge_desc_implINS_12directed_tagEjEEiEENS_14adjacency_listINS_4vecSESQ_NS_9directedSESC_SE_SC_NS_5listSEEEED1Ev(%"class.boost::detail::adj_list_edge_iterator"* %agg.tmp)
          to label %invoke.cont23 unwind label %terminate.lpad

invoke.cont23:                                    ; preds = %ehcleanup
  br label %eh.resume

eh.resume:                                        ; preds = %invoke.cont23
  %exn = load i8** %exn.slot
  %sel = load i32* %ehselector.slot
  %lpad.val = insertvalue { i8*, i32 } undef, i8* %exn, 0
  %lpad.val24 = insertvalue { i8*, i32 } %lpad.val, i32 %sel, 1
  resume { i8*, i32 } %lpad.val24

terminate.lpad:                                   ; preds = %ehcleanup, %lpad19
  %29 = landingpad { i8*, i32 } personality i8* bitcast (i32 (...)* @__gxx_personality_v0 to i8*)
          catch i8* null
  call void @_ZSt9terminatev() noreturn nounwind
  unreachable
}

define linkonce_odr void @_ZNSt4pairIN5boost6detail22adj_list_edge_iteratorINS0_12range_detail16integer_iteratorIjEENS1_13out_edge_iterIN9__gnu_cxx17__normal_iteratorIPNS1_20stored_edge_propertyIjNS0_8propertyINS0_13edge_weight_tEiNSA_INS0_14edge_weight2_tEiNS0_11no_propertyEEEEEEESt6vectorISG_SaISG_EEEEjNS1_14edge_desc_implINS0_12directed_tagEjEEiEENS0_14adjacency_listINS0_4vecSESR_NS0_9directedSESD_SF_SD_NS0_5listSEEEEESV_ED1Ev(%"struct.std::pair.4"* %this) unnamed_addr inlinehint align 2 {
entry:
  %this.addr = alloca %"struct.std::pair.4"*, align 4
  store %"struct.std::pair.4"* %this, %"struct.std::pair.4"** %this.addr, align 4
  %this1 = load %"struct.std::pair.4"** %this.addr
  call void @_ZNSt4pairIN5boost6detail22adj_list_edge_iteratorINS0_12range_detail16integer_iteratorIjEENS1_13out_edge_iterIN9__gnu_cxx17__normal_iteratorIPNS1_20stored_edge_propertyIjNS0_8propertyINS0_13edge_weight_tEiNSA_INS0_14edge_weight2_tEiNS0_11no_propertyEEEEEEESt6vectorISG_SaISG_EEEEjNS1_14edge_desc_implINS0_12directed_tagEjEEiEENS0_14adjacency_listINS0_4vecSESR_NS0_9directedSESD_SF_SD_NS0_5listSEEEEESV_ED2Ev(%"struct.std::pair.4"* %this1)
  ret void
}

declare void @_ZSt9terminatev()

define linkonce_odr zeroext i1 @_ZNK5boost6detail22adj_list_edge_iteratorINS_12range_detail16integer_iteratorIjEENS0_13out_edge_iterIN9__gnu_cxx17__normal_iteratorIPNS0_20stored_edge_propertyIjNS_8propertyINS_13edge_weight_tEiNS9_INS_14edge_weight2_tEiNS_11no_propertyEEEEEEESt6vectorISF_SaISF_EEEEjNS0_14edge_desc_implINS_12directed_tagEjEEiEENS_14adjacency_listINS_4vecSESQ_NS_9directedSESC_SE_SC_NS_5listSEEEEneERKSU_(%"class.boost::detail::adj_list_edge_iterator"* %this, %"class.boost::detail::adj_list_edge_iterator"* %x) inlinehint align 2 {
entry:
  %this.addr = alloca %"class.boost::detail::adj_list_edge_iterator"*, align 4
  %x.addr = alloca %"class.boost::detail::adj_list_edge_iterator"*, align 4
  store %"class.boost::detail::adj_list_edge_iterator"* %this, %"class.boost::detail::adj_list_edge_iterator"** %this.addr, align 4
  store %"class.boost::detail::adj_list_edge_iterator"* %x, %"class.boost::detail::adj_list_edge_iterator"** %x.addr, align 4
  %this1 = load %"class.boost::detail::adj_list_edge_iterator"** %this.addr
  %vCurr = getelementptr inbounds %"class.boost::detail::adj_list_edge_iterator"* %this1, i32 0, i32 1
  %0 = bitcast %"class.boost::range_detail::integer_iterator"* %vCurr to %"class.boost::iterator_facade"*
  %1 = load %"class.boost::detail::adj_list_edge_iterator"** %x.addr, align 4
  %vCurr2 = getelementptr inbounds %"class.boost::detail::adj_list_edge_iterator"* %1, i32 0, i32 1
  %2 = bitcast %"class.boost::range_detail::integer_iterator"* %vCurr2 to %"class.boost::iterator_facade"*
  %call = call zeroext i1 @_ZN5boostneINS_12range_detail16integer_iteratorIjEEjNS_27random_access_traversal_tagEjiS3_jS4_jiEENS_6detail23enable_if_interoperableIT_T4_NS_3mpl6apply2INS5_12always_bool2ES7_S8_E4typeEE4typeERKNS_15iterator_facadeIS7_T0_T1_T2_T3_EERKNSG_IS8_T5_T6_T7_T8_EE(%"class.boost::iterator_facade"* %0, %"class.boost::iterator_facade"* %2)
  br i1 %call, label %lor.end, label %lor.rhs

lor.rhs:                                          ; preds = %entry
  %vCurr3 = getelementptr inbounds %"class.boost::detail::adj_list_edge_iterator"* %this1, i32 0, i32 1
  %3 = bitcast %"class.boost::range_detail::integer_iterator"* %vCurr3 to %"class.boost::iterator_facade"*
  %vEnd = getelementptr inbounds %"class.boost::detail::adj_list_edge_iterator"* %this1, i32 0, i32 2
  %4 = bitcast %"class.boost::range_detail::integer_iterator"* %vEnd to %"class.boost::iterator_facade"*
  %call4 = call zeroext i1 @_ZN5boostneINS_12range_detail16integer_iteratorIjEEjNS_27random_access_traversal_tagEjiS3_jS4_jiEENS_6detail23enable_if_interoperableIT_T4_NS_3mpl6apply2INS5_12always_bool2ES7_S8_E4typeEE4typeERKNS_15iterator_facadeIS7_T0_T1_T2_T3_EERKNSG_IS8_T5_T6_T7_T8_EE(%"class.boost::iterator_facade"* %3, %"class.boost::iterator_facade"* %4)
  br i1 %call4, label %land.rhs, label %land.end

land.rhs:                                         ; preds = %lor.rhs
  %edges = getelementptr inbounds %"class.boost::detail::adj_list_edge_iterator"* %this1, i32 0, i32 3
  %call5 = call %"struct.std::pair.62"* @_ZNK5boost8optionalISt4pairINS_6detail13out_edge_iterIN9__gnu_cxx17__normal_iteratorIPNS2_20stored_edge_propertyIjNS_8propertyINS_13edge_weight_tEiNS7_INS_14edge_weight2_tEiNS_11no_propertyEEEEEEESt6vectorISD_SaISD_EEEEjNS2_14edge_desc_implINS_12directed_tagEjEEiEESM_EEptEv(%"class.boost::optional"* %edges)
  %first = getelementptr inbounds %"struct.std::pair.62"* %call5, i32 0, i32 0
  %5 = bitcast %"struct.boost::detail::out_edge_iter"* %first to %"class.boost::iterator_facade.63"*
  %6 = load %"class.boost::detail::adj_list_edge_iterator"** %x.addr, align 4
  %edges6 = getelementptr inbounds %"class.boost::detail::adj_list_edge_iterator"* %6, i32 0, i32 3
  %call7 = call %"struct.std::pair.62"* @_ZNK5boost8optionalISt4pairINS_6detail13out_edge_iterIN9__gnu_cxx17__normal_iteratorIPNS2_20stored_edge_propertyIjNS_8propertyINS_13edge_weight_tEiNS7_INS_14edge_weight2_tEiNS_11no_propertyEEEEEEESt6vectorISD_SaISD_EEEEjNS2_14edge_desc_implINS_12directed_tagEjEEiEESM_EEptEv(%"class.boost::optional"* %edges6)
  %first8 = getelementptr inbounds %"struct.std::pair.62"* %call7, i32 0, i32 0
  %7 = bitcast %"struct.boost::detail::out_edge_iter"* %first8 to %"class.boost::iterator_facade.63"*
  %call9 = call zeroext i1 @_ZN5boostneINS_6detail13out_edge_iterIN9__gnu_cxx17__normal_iteratorIPNS1_20stored_edge_propertyIjNS_8propertyINS_13edge_weight_tEiNS6_INS_14edge_weight2_tEiNS_11no_propertyEEEEEEESt6vectorISC_SaISC_EEEEjNS1_14edge_desc_implINS_12directed_tagEjEEiEESK_NS_27random_access_traversal_tagESK_iSL_SK_SM_SK_iEENS1_23enable_if_interoperableIT_T4_NS_3mpl6apply2INS1_12always_bool2ESO_SP_E4typeEE4typeERKNS_15iterator_facadeISO_T0_T1_T2_T3_EERKNSX_ISP_T5_T6_T7_T8_EE(%"class.boost::iterator_facade.63"* %5, %"class.boost::iterator_facade.63"* %7)
  br label %land.end

land.end:                                         ; preds = %land.rhs, %lor.rhs
  %8 = phi i1 [ false, %lor.rhs ], [ %call9, %land.rhs ]
  br label %lor.end

lor.end:                                          ; preds = %land.end, %entry
  %9 = phi i1 [ true, %entry ], [ %8, %land.end ]
  ret i1 %9
}

define linkonce_odr i32* @_ZNK5boost26adj_list_edge_property_mapINS_12directed_tagEiRijNS_8propertyINS_13edge_weight_tEiNS3_INS_14edge_weight2_tEiNS_11no_propertyEEEEES4_EixENS_6detail14edge_desc_implIS1_jEE(%"struct.boost::adj_list_edge_property_map"* %this, %"class.boost::detail::edge_desc_impl"* byval align 4 %e) inlinehint align 2 {
entry:
  %this.addr = alloca %"struct.boost::adj_list_edge_property_map"*, align 4
  %p = alloca %"struct.boost::property"*, align 4
  store %"struct.boost::adj_list_edge_property_map"* %this, %"struct.boost::adj_list_edge_property_map"** %this.addr, align 4
  %this1 = load %"struct.boost::adj_list_edge_property_map"** %this.addr
  %call = call i8* @_ZN5boost6detail14edge_desc_implINS_12directed_tagEjE12get_propertyEv(%"class.boost::detail::edge_desc_impl"* %e)
  %0 = bitcast i8* %call to %"struct.boost::property"*
  store %"struct.boost::property"* %0, %"struct.boost::property"** %p, align 4
  %1 = load %"struct.boost::property"** %p, align 4
  %tag = getelementptr inbounds %"struct.boost::adj_list_edge_property_map"* %this1, i32 0, i32 0
  %2 = load i32* %tag, align 4
  %call2 = call i32* @_ZN5boost18get_property_valueINS_8propertyINS_13edge_weight_tEiNS1_INS_14edge_weight2_tEiNS_11no_propertyEEEEES2_EERNS_19lookup_one_propertyIT_T0_E4typeERS8_S9_(%"struct.boost::property"* %1, i32 %2)
  ret i32* %call2
}

define linkonce_odr void @_ZNK5boost6detail22adj_list_edge_iteratorINS_12range_detail16integer_iteratorIjEENS0_13out_edge_iterIN9__gnu_cxx17__normal_iteratorIPNS0_20stored_edge_propertyIjNS_8propertyINS_13edge_weight_tEiNS9_INS_14edge_weight2_tEiNS_11no_propertyEEEEEEESt6vectorISF_SaISF_EEEEjNS0_14edge_desc_implINS_12directed_tagEjEEiEENS_14adjacency_listINS_4vecSESQ_NS_9directedSESC_SE_SC_NS_5listSEEEEdeEv(%"class.boost::detail::edge_desc_impl"* noalias sret %agg.result, %"class.boost::detail::adj_list_edge_iterator"* %this) inlinehint align 2 {
entry:
  %this.addr = alloca %"class.boost::detail::adj_list_edge_iterator"*, align 4
  store %"class.boost::detail::adj_list_edge_iterator"* %this, %"class.boost::detail::adj_list_edge_iterator"** %this.addr, align 4
  %this1 = load %"class.boost::detail::adj_list_edge_iterator"** %this.addr
  %edges = getelementptr inbounds %"class.boost::detail::adj_list_edge_iterator"* %this1, i32 0, i32 3
  %call = call %"struct.std::pair.62"* @_ZNK5boost8optionalISt4pairINS_6detail13out_edge_iterIN9__gnu_cxx17__normal_iteratorIPNS2_20stored_edge_propertyIjNS_8propertyINS_13edge_weight_tEiNS7_INS_14edge_weight2_tEiNS_11no_propertyEEEEEEESt6vectorISD_SaISD_EEEEjNS2_14edge_desc_implINS_12directed_tagEjEEiEESM_EEptEv(%"class.boost::optional"* %edges)
  %first = getelementptr inbounds %"struct.std::pair.62"* %call, i32 0, i32 0
  %0 = bitcast %"struct.boost::detail::out_edge_iter"* %first to %"class.boost::iterator_facade.63"*
  call void @_ZNK5boost15iterator_facadeINS_6detail13out_edge_iterIN9__gnu_cxx17__normal_iteratorIPNS1_20stored_edge_propertyIjNS_8propertyINS_13edge_weight_tEiNS6_INS_14edge_weight2_tEiNS_11no_propertyEEEEEEESt6vectorISC_SaISC_EEEEjNS1_14edge_desc_implINS_12directed_tagEjEEiEESK_NS_27random_access_traversal_tagESK_iEdeEv(%"class.boost::detail::edge_desc_impl"* sret %agg.result, %"class.boost::iterator_facade.63"* %0)
  ret void
}

define linkonce_odr %"class.boost::detail::adj_list_edge_iterator"* @_ZN5boost6detail22adj_list_edge_iteratorINS_12range_detail16integer_iteratorIjEENS0_13out_edge_iterIN9__gnu_cxx17__normal_iteratorIPNS0_20stored_edge_propertyIjNS_8propertyINS_13edge_weight_tEiNS9_INS_14edge_weight2_tEiNS_11no_propertyEEEEEEESt6vectorISF_SaISF_EEEEjNS0_14edge_desc_implINS_12directed_tagEjEEiEENS_14adjacency_listINS_4vecSESQ_NS_9directedSESC_SE_SC_NS_5listSEEEEppEv(%"class.boost::detail::adj_list_edge_iterator"* %this) inlinehint align 2 {
entry:
  %this.addr = alloca %"class.boost::detail::adj_list_edge_iterator"*, align 4
  %ref.tmp = alloca %"struct.std::pair.62", align 4
  store %"class.boost::detail::adj_list_edge_iterator"* %this, %"class.boost::detail::adj_list_edge_iterator"** %this.addr, align 4
  %this1 = load %"class.boost::detail::adj_list_edge_iterator"** %this.addr
  %edges = getelementptr inbounds %"class.boost::detail::adj_list_edge_iterator"* %this1, i32 0, i32 3
  %call = call %"struct.std::pair.62"* @_ZN5boost8optionalISt4pairINS_6detail13out_edge_iterIN9__gnu_cxx17__normal_iteratorIPNS2_20stored_edge_propertyIjNS_8propertyINS_13edge_weight_tEiNS7_INS_14edge_weight2_tEiNS_11no_propertyEEEEEEESt6vectorISD_SaISD_EEEEjNS2_14edge_desc_implINS_12directed_tagEjEEiEESM_EEptEv(%"class.boost::optional"* %edges)
  %first = getelementptr inbounds %"struct.std::pair.62"* %call, i32 0, i32 0
  %0 = bitcast %"struct.boost::detail::out_edge_iter"* %first to %"class.boost::iterator_facade.63"*
  %call2 = call %"struct.boost::detail::out_edge_iter"* @_ZN5boost15iterator_facadeINS_6detail13out_edge_iterIN9__gnu_cxx17__normal_iteratorIPNS1_20stored_edge_propertyIjNS_8propertyINS_13edge_weight_tEiNS6_INS_14edge_weight2_tEiNS_11no_propertyEEEEEEESt6vectorISC_SaISC_EEEEjNS1_14edge_desc_implINS_12directed_tagEjEEiEESK_NS_27random_access_traversal_tagESK_iEppEv(%"class.boost::iterator_facade.63"* %0)
  %edges3 = getelementptr inbounds %"class.boost::detail::adj_list_edge_iterator"* %this1, i32 0, i32 3
  %call4 = call %"struct.std::pair.62"* @_ZN5boost8optionalISt4pairINS_6detail13out_edge_iterIN9__gnu_cxx17__normal_iteratorIPNS2_20stored_edge_propertyIjNS_8propertyINS_13edge_weight_tEiNS7_INS_14edge_weight2_tEiNS_11no_propertyEEEEEEESt6vectorISD_SaISD_EEEEjNS2_14edge_desc_implINS_12directed_tagEjEEiEESM_EEptEv(%"class.boost::optional"* %edges3)
  %first5 = getelementptr inbounds %"struct.std::pair.62"* %call4, i32 0, i32 0
  %1 = bitcast %"struct.boost::detail::out_edge_iter"* %first5 to %"class.boost::iterator_facade.63"*
  %edges6 = getelementptr inbounds %"class.boost::detail::adj_list_edge_iterator"* %this1, i32 0, i32 3
  %call7 = call %"struct.std::pair.62"* @_ZN5boost8optionalISt4pairINS_6detail13out_edge_iterIN9__gnu_cxx17__normal_iteratorIPNS2_20stored_edge_propertyIjNS_8propertyINS_13edge_weight_tEiNS7_INS_14edge_weight2_tEiNS_11no_propertyEEEEEEESt6vectorISD_SaISD_EEEEjNS2_14edge_desc_implINS_12directed_tagEjEEiEESM_EEptEv(%"class.boost::optional"* %edges6)
  %second = getelementptr inbounds %"struct.std::pair.62"* %call7, i32 0, i32 1
  %2 = bitcast %"struct.boost::detail::out_edge_iter"* %second to %"class.boost::iterator_facade.63"*
  %call8 = call zeroext i1 @_ZN5boosteqINS_6detail13out_edge_iterIN9__gnu_cxx17__normal_iteratorIPNS1_20stored_edge_propertyIjNS_8propertyINS_13edge_weight_tEiNS6_INS_14edge_weight2_tEiNS_11no_propertyEEEEEEESt6vectorISC_SaISC_EEEEjNS1_14edge_desc_implINS_12directed_tagEjEEiEESK_NS_27random_access_traversal_tagESK_iSL_SK_SM_SK_iEENS1_23enable_if_interoperableIT_T4_NS_3mpl6apply2INS1_12always_bool2ESO_SP_E4typeEE4typeERKNS_15iterator_facadeISO_T0_T1_T2_T3_EERKNSX_ISP_T5_T6_T7_T8_EE(%"class.boost::iterator_facade.63"* %1, %"class.boost::iterator_facade.63"* %2)
  br i1 %call8, label %if.then, label %if.end26

if.then:                                          ; preds = %entry
  %vCurr = getelementptr inbounds %"class.boost::detail::adj_list_edge_iterator"* %this1, i32 0, i32 1
  %3 = bitcast %"class.boost::range_detail::integer_iterator"* %vCurr to %"class.boost::iterator_facade"*
  %call9 = call %"class.boost::range_detail::integer_iterator"* @_ZN5boost15iterator_facadeINS_12range_detail16integer_iteratorIjEEjNS_27random_access_traversal_tagEjiEppEv(%"class.boost::iterator_facade"* %3)
  br label %while.cond

while.cond:                                       ; preds = %while.body, %if.then
  %vCurr10 = getelementptr inbounds %"class.boost::detail::adj_list_edge_iterator"* %this1, i32 0, i32 1
  %4 = bitcast %"class.boost::range_detail::integer_iterator"* %vCurr10 to %"class.boost::iterator_facade"*
  %vEnd = getelementptr inbounds %"class.boost::detail::adj_list_edge_iterator"* %this1, i32 0, i32 2
  %5 = bitcast %"class.boost::range_detail::integer_iterator"* %vEnd to %"class.boost::iterator_facade"*
  %call11 = call zeroext i1 @_ZN5boostneINS_12range_detail16integer_iteratorIjEEjNS_27random_access_traversal_tagEjiS3_jS4_jiEENS_6detail23enable_if_interoperableIT_T4_NS_3mpl6apply2INS5_12always_bool2ES7_S8_E4typeEE4typeERKNS_15iterator_facadeIS7_T0_T1_T2_T3_EERKNSG_IS8_T5_T6_T7_T8_EE(%"class.boost::iterator_facade"* %4, %"class.boost::iterator_facade"* %5)
  br i1 %call11, label %land.rhs, label %land.end

land.rhs:                                         ; preds = %while.cond
  %vCurr12 = getelementptr inbounds %"class.boost::detail::adj_list_edge_iterator"* %this1, i32 0, i32 1
  %6 = bitcast %"class.boost::range_detail::integer_iterator"* %vCurr12 to %"class.boost::iterator_facade"*
  %call13 = call i32 @_ZNK5boost15iterator_facadeINS_12range_detail16integer_iteratorIjEEjNS_27random_access_traversal_tagEjiEdeEv(%"class.boost::iterator_facade"* %6)
  %m_g = getelementptr inbounds %"class.boost::detail::adj_list_edge_iterator"* %this1, i32 0, i32 4
  %7 = load %"class.boost::adjacency_list"** %m_g, align 4
  %8 = bitcast %"class.boost::adjacency_list"* %7 to %"struct.boost::adj_list_helper"*
  %call14 = call i32 @_ZN5boost10out_degreeINS_6detail12adj_list_genINS_14adjacency_listINS_4vecSES4_NS_9directedSENS_11no_propertyENS_8propertyINS_13edge_weight_tEiNS7_INS_14edge_weight2_tEiS6_EEEES6_NS_5listSEEES4_S4_S5_S6_SB_S6_SC_E6configENS_21directed_graph_helperISF_EEEENT_16degree_size_typeENSI_17vertex_descriptorERKNS_15adj_list_helperISI_T0_EE(i32 %call13, %"struct.boost::adj_list_helper"* %8)
  %cmp = icmp eq i32 %call14, 0
  br label %land.end

land.end:                                         ; preds = %land.rhs, %while.cond
  %9 = phi i1 [ false, %while.cond ], [ %cmp, %land.rhs ]
  br i1 %9, label %while.body, label %while.end

while.body:                                       ; preds = %land.end
  %vCurr15 = getelementptr inbounds %"class.boost::detail::adj_list_edge_iterator"* %this1, i32 0, i32 1
  %10 = bitcast %"class.boost::range_detail::integer_iterator"* %vCurr15 to %"class.boost::iterator_facade"*
  %call16 = call %"class.boost::range_detail::integer_iterator"* @_ZN5boost15iterator_facadeINS_12range_detail16integer_iteratorIjEEjNS_27random_access_traversal_tagEjiEppEv(%"class.boost::iterator_facade"* %10)
  br label %while.cond

while.end:                                        ; preds = %land.end
  %vCurr17 = getelementptr inbounds %"class.boost::detail::adj_list_edge_iterator"* %this1, i32 0, i32 1
  %11 = bitcast %"class.boost::range_detail::integer_iterator"* %vCurr17 to %"class.boost::iterator_facade"*
  %vEnd18 = getelementptr inbounds %"class.boost::detail::adj_list_edge_iterator"* %this1, i32 0, i32 2
  %12 = bitcast %"class.boost::range_detail::integer_iterator"* %vEnd18 to %"class.boost::iterator_facade"*
  %call19 = call zeroext i1 @_ZN5boostneINS_12range_detail16integer_iteratorIjEEjNS_27random_access_traversal_tagEjiS3_jS4_jiEENS_6detail23enable_if_interoperableIT_T4_NS_3mpl6apply2INS5_12always_bool2ES7_S8_E4typeEE4typeERKNS_15iterator_facadeIS7_T0_T1_T2_T3_EERKNSG_IS8_T5_T6_T7_T8_EE(%"class.boost::iterator_facade"* %11, %"class.boost::iterator_facade"* %12)
  br i1 %call19, label %if.then20, label %if.end

if.then20:                                        ; preds = %while.end
  %edges21 = getelementptr inbounds %"class.boost::detail::adj_list_edge_iterator"* %this1, i32 0, i32 3
  %vCurr22 = getelementptr inbounds %"class.boost::detail::adj_list_edge_iterator"* %this1, i32 0, i32 1
  %13 = bitcast %"class.boost::range_detail::integer_iterator"* %vCurr22 to %"class.boost::iterator_facade"*
  %call23 = call i32 @_ZNK5boost15iterator_facadeINS_12range_detail16integer_iteratorIjEEjNS_27random_access_traversal_tagEjiEdeEv(%"class.boost::iterator_facade"* %13)
  %m_g24 = getelementptr inbounds %"class.boost::detail::adj_list_edge_iterator"* %this1, i32 0, i32 4
  %14 = load %"class.boost::adjacency_list"** %m_g24, align 4
  %15 = bitcast %"class.boost::adjacency_list"* %14 to %"struct.boost::adj_list_helper"*
  call void @_ZN5boost9out_edgesINS_6detail12adj_list_genINS_14adjacency_listINS_4vecSES4_NS_9directedSENS_11no_propertyENS_8propertyINS_13edge_weight_tEiNS7_INS_14edge_weight2_tEiS6_EEEES6_NS_5listSEEES4_S4_S5_S6_SB_S6_SC_E6configENS_21directed_graph_helperISF_EEEESt4pairINT_17out_edge_iteratorESK_ENSJ_17vertex_descriptorERKNS_15adj_list_helperISJ_T0_EE(%"struct.std::pair.62"* sret %ref.tmp, i32 %call23, %"struct.boost::adj_list_helper"* %15)
  %call25 = call %"class.boost::optional"* @_ZN5boost8optionalISt4pairINS_6detail13out_edge_iterIN9__gnu_cxx17__normal_iteratorIPNS2_20stored_edge_propertyIjNS_8propertyINS_13edge_weight_tEiNS7_INS_14edge_weight2_tEiNS_11no_propertyEEEEEEESt6vectorISD_SaISD_EEEEjNS2_14edge_desc_implINS_12directed_tagEjEEiEESM_EEaSERKSN_(%"class.boost::optional"* %edges21, %"struct.std::pair.62"* %ref.tmp)
  br label %if.end

if.end:                                           ; preds = %if.then20, %while.end
  br label %if.end26

if.end26:                                         ; preds = %if.end, %entry
  ret %"class.boost::detail::adj_list_edge_iterator"* %this1
}

define linkonce_odr void @_ZNSt6vectorIiSaIiEEC1IiEET_S3_RKS0_(%"class.std::vector.5"* %this, i32 %__first, i32 %__last, %"class.std::allocator.7"* %__a) unnamed_addr align 2 {
entry:
  %this.addr = alloca %"class.std::vector.5"*, align 4
  %__first.addr = alloca i32, align 4
  %__last.addr = alloca i32, align 4
  %__a.addr = alloca %"class.std::allocator.7"*, align 4
  store %"class.std::vector.5"* %this, %"class.std::vector.5"** %this.addr, align 4
  store i32 %__first, i32* %__first.addr, align 4
  store i32 %__last, i32* %__last.addr, align 4
  store %"class.std::allocator.7"* %__a, %"class.std::allocator.7"** %__a.addr, align 4
  %this1 = load %"class.std::vector.5"** %this.addr
  %0 = load i32* %__first.addr, align 4
  %1 = load i32* %__last.addr, align 4
  %2 = load %"class.std::allocator.7"** %__a.addr
  call void @_ZNSt6vectorIiSaIiEEC2IiEET_S3_RKS0_(%"class.std::vector.5"* %this1, i32 %0, i32 %1, %"class.std::allocator.7"* %2)
  ret void
}

define linkonce_odr i32 @_ZNSt14numeric_limitsIiE3maxEv() nounwind align 2 {
entry:
  ret i32 2147483647
}

define linkonce_odr void @_ZNSaIiEC1Ev(%"class.std::allocator.7"* %this) unnamed_addr nounwind align 2 {
entry:
  %this.addr = alloca %"class.std::allocator.7"*, align 4
  store %"class.std::allocator.7"* %this, %"class.std::allocator.7"** %this.addr, align 4
  %this1 = load %"class.std::allocator.7"** %this.addr
  call void @_ZNSaIiEC2Ev(%"class.std::allocator.7"* %this1) nounwind
  ret void
}

define linkonce_odr void @_ZNSaIiED1Ev(%"class.std::allocator.7"* %this) unnamed_addr nounwind align 2 {
entry:
  %this.addr = alloca %"class.std::allocator.7"*, align 4
  store %"class.std::allocator.7"* %this, %"class.std::allocator.7"** %this.addr, align 4
  %this1 = load %"class.std::allocator.7"** %this.addr
  call void @_ZNSaIiED2Ev(%"class.std::allocator.7"* %this1) nounwind
  ret void
}

define linkonce_odr zeroext i1 @_ZN5boost32johnson_all_pairs_shortest_pathsINS_14adjacency_listINS_4vecSES2_NS_9directedSENS_11no_propertyENS_8propertyINS_13edge_weight_tEiNS5_INS_14edge_weight2_tEiS4_EEEES4_NS_5listSEEEA6_A6_iPiNS_17vertex_distance_tES4_EEbRT_RT0_RKNS_16bgl_named_paramsIT1_T2_T3_EE(%"class.boost::adjacency_list"* %g, [6 x [6 x i32]]* %D, %"struct.boost::bgl_named_params"* %params) {
entry:
  %g.addr = alloca %"class.boost::adjacency_list"*, align 4
  %D.addr = alloca [6 x [6 x i32]]*, align 4
  %params.addr = alloca %"struct.boost::bgl_named_params"*, align 4
  %agg.tmp = alloca %"struct.boost::adj_list_edge_property_map.17", align 4
  %agg.tmp1 = alloca %"struct.boost::vec_adj_list_vertex_id_map", align 1
  store %"class.boost::adjacency_list"* %g, %"class.boost::adjacency_list"** %g.addr, align 4
  store [6 x [6 x i32]]* %D, [6 x [6 x i32]]** %D.addr, align 4
  store %"struct.boost::bgl_named_params"* %params, %"struct.boost::bgl_named_params"** %params.addr, align 4
  %0 = load %"class.boost::adjacency_list"** %g.addr, align 4
  %1 = load [6 x [6 x i32]]** %D.addr, align 4
  %2 = load %"struct.boost::bgl_named_params"** %params.addr, align 4
  %3 = load %"struct.boost::bgl_named_params"** %params.addr, align 4
  %call = call %"struct.boost::param_not_found"* @_ZN5boost9get_paramINS_13edge_weight_tENS_16bgl_named_paramsIPiNS_17vertex_distance_tENS_11no_propertyEEEEERKNS_22lookup_named_param_defIT_T0_NS_15param_not_foundEE4typeERKS9_S8_(%"struct.boost::bgl_named_params"* %3, i32 0)
  %4 = load %"class.boost::adjacency_list"** %g.addr, align 4
  call void @_ZN5boost17choose_const_pmapINS_15param_not_foundENS_14adjacency_listINS_4vecSES3_NS_9directedSENS_11no_propertyENS_8propertyINS_13edge_weight_tEiNS6_INS_14edge_weight2_tEiS5_EEEES5_NS_5listSEEES7_EENS_6detail18choose_impl_resultIN4mpl_5bool_ILb1EEET0_T_T1_E4typeERKSJ_RKSI_SK_(%"struct.boost::adj_list_edge_property_map.17"* sret %agg.tmp, %"struct.boost::param_not_found"* %call, %"class.boost::adjacency_list"* %4, i32 0)
  %5 = load %"struct.boost::bgl_named_params"** %params.addr, align 4
  %call2 = call %"struct.boost::param_not_found"* @_ZN5boost9get_paramINS_14vertex_index_tENS_16bgl_named_paramsIPiNS_17vertex_distance_tENS_11no_propertyEEEEERKNS_22lookup_named_param_defIT_T0_NS_15param_not_foundEE4typeERKS9_S8_(%"struct.boost::bgl_named_params"* %5, i32 0)
  %6 = load %"class.boost::adjacency_list"** %g.addr, align 4
  call void @_ZN5boost17choose_const_pmapINS_15param_not_foundENS_14adjacency_listINS_4vecSES3_NS_9directedSENS_11no_propertyENS_8propertyINS_13edge_weight_tEiNS6_INS_14edge_weight2_tEiS5_EEEES5_NS_5listSEEENS_14vertex_index_tEEENS_6detail18choose_impl_resultIN4mpl_5bool_ILb1EEET0_T_T1_E4typeERKSK_RKSJ_SL_(%"struct.boost::vec_adj_list_vertex_id_map"* sret %agg.tmp1, %"struct.boost::param_not_found"* %call2, %"class.boost::adjacency_list"* %6, i32 0)
  %call3 = call zeroext i1 @_ZN5boost6detail16johnson_dispatchINS_14adjacency_listINS_4vecSES3_NS_9directedSENS_11no_propertyENS_8propertyINS_13edge_weight_tEiNS6_INS_14edge_weight2_tEiS5_EEEES5_NS_5listSEEEA6_A6_iPiNS_17vertex_distance_tES5_NS_26adj_list_edge_property_mapINS_12directed_tagEiRKijKSA_S7_EENS_26vec_adj_list_vertex_id_mapIS5_jEEEEbRT_RT0_RKNS_16bgl_named_paramsIT1_T2_T3_EET4_T5_(%"class.boost::adjacency_list"* %0, [6 x [6 x i32]]* %1, %"struct.boost::bgl_named_params"* %2, %"struct.boost::adj_list_edge_property_map.17"* byval align 4 %agg.tmp)
  ret i1 %call3
}

define linkonce_odr void @_ZN5boost12distance_mapIPiEENS_16bgl_named_paramsIT_NS_17vertex_distance_tENS_11no_propertyEEERKS3_(%"struct.boost::bgl_named_params"* noalias sret %agg.result, i32** %p) {
entry:
  %p.addr = alloca i32**, align 4
  store i32** %p, i32*** %p.addr, align 4
  %0 = load i32*** %p.addr, align 4
  %1 = load i32** %0, align 4
  call void @_ZN5boost16bgl_named_paramsIPiNS_17vertex_distance_tENS_11no_propertyEEC1ES1_(%"struct.boost::bgl_named_params"* %agg.result, i32* %1)
  ret void
}

define linkonce_odr i32* @_ZNSt6vectorIiSaIiEEixEj(%"class.std::vector.5"* %this, i32 %__n) nounwind align 2 {
entry:
  %this.addr = alloca %"class.std::vector.5"*, align 4
  %__n.addr = alloca i32, align 4
  store %"class.std::vector.5"* %this, %"class.std::vector.5"** %this.addr, align 4
  store i32 %__n, i32* %__n.addr, align 4
  %this1 = load %"class.std::vector.5"** %this.addr
  %0 = bitcast %"class.std::vector.5"* %this1 to %"struct.std::_Vector_base.6"*
  %_M_impl = getelementptr inbounds %"struct.std::_Vector_base.6"* %0, i32 0, i32 0
  %_M_start = getelementptr inbounds %"struct.std::_Vector_base<int, std::allocator<int> >::_Vector_impl"* %_M_impl, i32 0, i32 0
  %1 = load i32** %_M_start, align 4
  %2 = load i32* %__n.addr, align 4
  %add.ptr = getelementptr inbounds i32* %1, i32 %2
  ret i32* %add.ptr
}

declare %"class.std::basic_ostream"* @_ZStlsISt11char_traitsIcEERSt13basic_ostreamIcT_ES5_PKc(%"class.std::basic_ostream"*, i8*)

declare %"class.std::basic_ostream"* @_ZStlsIcSt11char_traitsIcEERSt13basic_ostreamIT_T0_ES6_St5_Setw(%"class.std::basic_ostream"*, %"struct.std::_Setw"* byval align 4)

define linkonce_odr void @_ZSt4setwi(%"struct.std::_Setw"* noalias sret %agg.result, i32 %__n) nounwind inlinehint {
entry:
  %__n.addr = alloca i32, align 4
  store i32 %__n, i32* %__n.addr, align 4
  %_M_n = getelementptr inbounds %"struct.std::_Setw"* %agg.result, i32 0, i32 0
  %0 = load i32* %__n.addr, align 4
  store i32 %0, i32* %_M_n, align 4
  ret void
}

declare %"class.std::basic_ostream"* @_ZNSolsEi(%"class.std::basic_ostream"*, i32)

declare %"class.std::basic_ostream"* @_ZNSolsEPFRSoS_E(%"class.std::basic_ostream"*, %"class.std::basic_ostream"* (%"class.std::basic_ostream"*)*)

declare %"class.std::basic_ostream"* @_ZSt4endlIcSt11char_traitsIcEERSt13basic_ostreamIT_T0_ES6_(%"class.std::basic_ostream"*)

declare void @_ZNSt14basic_ofstreamIcSt11char_traitsIcEEC1EPKcSt13_Ios_Openmode(%"class.std::basic_ofstream"*, i8*, i32)

define linkonce_odr i32 @_ZStorSt13_Ios_OpenmodeS_(i32 %__a, i32 %__b) nounwind inlinehint {
entry:
  %__a.addr = alloca i32, align 4
  %__b.addr = alloca i32, align 4
  store i32 %__a, i32* %__a.addr, align 4
  store i32 %__b, i32* %__b.addr, align 4
  %0 = load i32* %__a.addr, align 4
  %1 = load i32* %__b.addr, align 4
  %or = or i32 %0, %1
  ret i32 %or
}

declare %"class.std::basic_ostream"* @_ZNSolsEj(%"class.std::basic_ostream"*, i32)

define linkonce_odr i32 @_ZN5boost6sourceINS_12directed_tagEjNS_4vecSES2_NS_9directedSENS_11no_propertyENS_8propertyINS_13edge_weight_tEiNS5_INS_14edge_weight2_tEiS4_EEEES4_NS_5listSEEET0_RKNS_6detail9edge_baseIT_SB_EERKNS_14adjacency_listIT1_T2_T3_T4_T5_T6_T7_EE(%"struct.boost::detail::edge_base"* %e, %"class.boost::adjacency_list"*) nounwind inlinehint {
entry:
  %e.addr = alloca %"struct.boost::detail::edge_base"*, align 4
  %.addr = alloca %"class.boost::adjacency_list"*, align 4
  store %"struct.boost::detail::edge_base"* %e, %"struct.boost::detail::edge_base"** %e.addr, align 4
  store %"class.boost::adjacency_list"* %0, %"class.boost::adjacency_list"** %.addr, align 4
  %1 = load %"struct.boost::detail::edge_base"** %e.addr, align 4
  %m_source = getelementptr inbounds %"struct.boost::detail::edge_base"* %1, i32 0, i32 0
  %2 = load i32* %m_source, align 4
  ret i32 %2
}

define linkonce_odr i32 @_ZN5boost6targetINS_12directed_tagEjNS_4vecSES2_NS_9directedSENS_11no_propertyENS_8propertyINS_13edge_weight_tEiNS5_INS_14edge_weight2_tEiS4_EEEES4_NS_5listSEEET0_RKNS_6detail9edge_baseIT_SB_EERKNS_14adjacency_listIT1_T2_T3_T4_T5_T6_T7_EE(%"struct.boost::detail::edge_base"* %e, %"class.boost::adjacency_list"*) nounwind inlinehint {
entry:
  %e.addr = alloca %"struct.boost::detail::edge_base"*, align 4
  %.addr = alloca %"class.boost::adjacency_list"*, align 4
  store %"struct.boost::detail::edge_base"* %e, %"struct.boost::detail::edge_base"** %e.addr, align 4
  store %"class.boost::adjacency_list"* %0, %"class.boost::adjacency_list"** %.addr, align 4
  %1 = load %"struct.boost::detail::edge_base"** %e.addr, align 4
  %m_target = getelementptr inbounds %"struct.boost::detail::edge_base"* %1, i32 0, i32 1
  %2 = load i32* %m_target, align 4
  ret i32 %2
}

define linkonce_odr void @_ZN5boost6detail22adj_list_edge_iteratorINS_12range_detail16integer_iteratorIjEENS0_13out_edge_iterIN9__gnu_cxx17__normal_iteratorIPNS0_20stored_edge_propertyIjNS_8propertyINS_13edge_weight_tEiNS9_INS_14edge_weight2_tEiNS_11no_propertyEEEEEEESt6vectorISF_SaISF_EEEEjNS0_14edge_desc_implINS_12directed_tagEjEEiEENS_14adjacency_listINS_4vecSESQ_NS_9directedSESC_SE_SC_NS_5listSEEEED1Ev(%"class.boost::detail::adj_list_edge_iterator"* %this) unnamed_addr inlinehint align 2 {
entry:
  %this.addr = alloca %"class.boost::detail::adj_list_edge_iterator"*, align 4
  store %"class.boost::detail::adj_list_edge_iterator"* %this, %"class.boost::detail::adj_list_edge_iterator"** %this.addr, align 4
  %this1 = load %"class.boost::detail::adj_list_edge_iterator"** %this.addr
  call void @_ZN5boost6detail22adj_list_edge_iteratorINS_12range_detail16integer_iteratorIjEENS0_13out_edge_iterIN9__gnu_cxx17__normal_iteratorIPNS0_20stored_edge_propertyIjNS_8propertyINS_13edge_weight_tEiNS9_INS_14edge_weight2_tEiNS_11no_propertyEEEEEEESt6vectorISF_SaISF_EEEEjNS0_14edge_desc_implINS_12directed_tagEjEEiEENS_14adjacency_listINS_4vecSESQ_NS_9directedSESC_SE_SC_NS_5listSEEEED2Ev(%"class.boost::detail::adj_list_edge_iterator"* %this1)
  ret void
}

declare void @_ZNSt14basic_ofstreamIcSt11char_traitsIcEED1Ev(%"class.std::basic_ofstream"*)

define linkonce_odr void @_ZNSt6vectorIiSaIiEED1Ev(%"class.std::vector.5"* %this) unnamed_addr align 2 {
entry:
  %this.addr = alloca %"class.std::vector.5"*, align 4
  store %"class.std::vector.5"* %this, %"class.std::vector.5"** %this.addr, align 4
  %this1 = load %"class.std::vector.5"** %this.addr
  call void @_ZNSt6vectorIiSaIiEED2Ev(%"class.std::vector.5"* %this1)
  ret void
}

define linkonce_odr void @_ZN5boost14adjacency_listINS_4vecSES1_NS_9directedSENS_11no_propertyENS_8propertyINS_13edge_weight_tEiNS4_INS_14edge_weight2_tEiS3_EEEES3_NS_5listSEED1Ev(%"class.boost::adjacency_list"* %this) unnamed_addr inlinehint align 2 {
entry:
  %this.addr = alloca %"class.boost::adjacency_list"*, align 4
  store %"class.boost::adjacency_list"* %this, %"class.boost::adjacency_list"** %this.addr, align 4
  %this1 = load %"class.boost::adjacency_list"** %this.addr
  call void @_ZN5boost14adjacency_listINS_4vecSES1_NS_9directedSENS_11no_propertyENS_8propertyINS_13edge_weight_tEiNS4_INS_14edge_weight2_tEiS3_EEEES3_NS_5listSEED2Ev(%"class.boost::adjacency_list"* %this1)
  ret void
}

define linkonce_odr zeroext i1 @_ZN5boost6detail16johnson_dispatchINS_14adjacency_listINS_4vecSES3_NS_9directedSENS_11no_propertyENS_8propertyINS_13edge_weight_tEiNS6_INS_14edge_weight2_tEiS5_EEEES5_NS_5listSEEEA6_A6_iPiNS_17vertex_distance_tES5_NS_26adj_list_edge_property_mapINS_12directed_tagEiRKijKSA_S7_EENS_26vec_adj_list_vertex_id_mapIS5_jEEEEbRT_RT0_RKNS_16bgl_named_paramsIT1_T2_T3_EET4_T5_(%"class.boost::adjacency_list"* %g, [6 x [6 x i32]]* %D, %"struct.boost::bgl_named_params"* %params, %"struct.boost::adj_list_edge_property_map.17"* byval align 4 %w) {
entry:
  %g.addr = alloca %"class.boost::adjacency_list"*, align 4
  %D.addr = alloca [6 x [6 x i32]]*, align 4
  %params.addr = alloca %"struct.boost::bgl_named_params"*, align 4
  %id = alloca %"struct.boost::vec_adj_list_vertex_id_map", align 1
  %agg.tmp = alloca %"struct.boost::vec_adj_list_vertex_id_map", align 1
  %agg.tmp1 = alloca %"struct.boost::adj_list_edge_property_map.17", align 4
  %ref.tmp = alloca %"struct.std::less", align 1
  %agg.tmp2 = alloca %"struct.boost::distance_compare_t", align 1
  %ref.tmp3 = alloca %"struct.std::less", align 1
  %ref.tmp4 = alloca %"struct.boost::closed_plus", align 4
  %agg.tmp5 = alloca %"struct.boost::distance_combine_t", align 1
  %ref.tmp7 = alloca %"struct.boost::closed_plus", align 4
  %agg.tmp8 = alloca %"struct.boost::distance_inf_t", align 1
  %ref.tmp11 = alloca i32, align 4
  %ref.tmp13 = alloca i32, align 4
  %agg.tmp14 = alloca %"struct.boost::distance_zero_t", align 1
  %ref.tmp16 = alloca i32, align 4
  store %"class.boost::adjacency_list"* %g, %"class.boost::adjacency_list"** %g.addr, align 4
  store [6 x [6 x i32]]* %D, [6 x [6 x i32]]** %D.addr, align 4
  store %"struct.boost::bgl_named_params"* %params, %"struct.boost::bgl_named_params"** %params.addr, align 4
  %0 = load %"class.boost::adjacency_list"** %g.addr, align 4
  %1 = load [6 x [6 x i32]]** %D.addr, align 4
  %2 = bitcast %"struct.boost::adj_list_edge_property_map.17"* %agg.tmp1 to i8*
  %3 = bitcast %"struct.boost::adj_list_edge_property_map.17"* %w to i8*
  call void @llvm.memcpy.p0i8.p0i8.i32(i8* %2, i8* %3, i32 4, i32 4, i1 false)
  %4 = load %"struct.boost::bgl_named_params"** %params.addr, align 4
  %call = call %"struct.boost::param_not_found"* @_ZN5boost9get_paramINS_18distance_compare_tENS_16bgl_named_paramsIPiNS_17vertex_distance_tENS_11no_propertyEEEEERKNS_22lookup_named_param_defIT_T0_NS_15param_not_foundEE4typeERKS9_S8_(%"struct.boost::bgl_named_params"* %4)
  call void @_ZN5boost12choose_paramISt4lessIiEEET_RKNS_15param_not_foundERKS3_(%"struct.std::less"* sret %ref.tmp, %"struct.boost::param_not_found"* %call, %"struct.std::less"* %ref.tmp3)
  %5 = load %"struct.boost::bgl_named_params"** %params.addr, align 4
  %call6 = call %"struct.boost::param_not_found"* @_ZN5boost9get_paramINS_18distance_combine_tENS_16bgl_named_paramsIPiNS_17vertex_distance_tENS_11no_propertyEEEEERKNS_22lookup_named_param_defIT_T0_NS_15param_not_foundEE4typeERKS9_S8_(%"struct.boost::bgl_named_params"* %5)
  call void @_ZN5boost11closed_plusIiEC1Ev(%"struct.boost::closed_plus"* %ref.tmp7)
  call void @_ZN5boost12choose_paramINS_11closed_plusIiEEEET_RKNS_15param_not_foundERKS3_(%"struct.boost::closed_plus"* sret %ref.tmp4, %"struct.boost::param_not_found"* %call6, %"struct.boost::closed_plus"* %ref.tmp7)
  %6 = load %"struct.boost::bgl_named_params"** %params.addr, align 4
  %call9 = call %"struct.boost::param_not_found"* @_ZN5boost9get_paramINS_14distance_inf_tENS_16bgl_named_paramsIPiNS_17vertex_distance_tENS_11no_propertyEEEEERKNS_22lookup_named_param_defIT_T0_NS_15param_not_foundEE4typeERKS9_S8_(%"struct.boost::bgl_named_params"* %6)
  %call10 = call i32 @_ZNSt14numeric_limitsIiE3maxEv() nounwind
  store i32 %call10, i32* %ref.tmp11, align 4
  %call12 = call i32 @_ZN5boost12choose_paramIiEET_RKNS_15param_not_foundERKS1_(%"struct.boost::param_not_found"* %call9, i32* %ref.tmp11)
  store i32 %call12, i32* %ref.tmp13, align 4
  %7 = load %"struct.boost::bgl_named_params"** %params.addr, align 4
  %call15 = call %"struct.boost::param_not_found"* @_ZN5boost9get_paramINS_15distance_zero_tENS_16bgl_named_paramsIPiNS_17vertex_distance_tENS_11no_propertyEEEEERKNS_22lookup_named_param_defIT_T0_NS_15param_not_foundEE4typeERKS9_S8_(%"struct.boost::bgl_named_params"* %7)
  store i32 0, i32* %ref.tmp16, align 4
  %call17 = call i32 @_ZN5boost12choose_paramIiEET_RKNS_15param_not_foundERKS1_(%"struct.boost::param_not_found"* %call15, i32* %ref.tmp16)
  %call18 = call zeroext i1 @_ZN5boost32johnson_all_pairs_shortest_pathsINS_14adjacency_listINS_4vecSES2_NS_9directedSENS_11no_propertyENS_8propertyINS_13edge_weight_tEiNS5_INS_14edge_weight2_tEiS4_EEEES4_NS_5listSEEEA6_A6_iNS_26vec_adj_list_vertex_id_mapIS4_jEENS_26adj_list_edge_property_mapINS_12directed_tagEiRKijKS9_S6_EESt4lessIiENS_11closed_plusIiEEiiEEbRT_RT0_T1_T2_RKT3_RKT4_RKT5_T6_(%"class.boost::adjacency_list"* %0, [6 x [6 x i32]]* %1, %"struct.boost::adj_list_edge_property_map.17"* byval align 4 %agg.tmp1, %"struct.std::less"* %ref.tmp, %"struct.boost::closed_plus"* %ref.tmp4, i32* %ref.tmp13, i32 %call17)
  ret i1 %call18
}

define linkonce_odr void @_ZN5boost17choose_const_pmapINS_15param_not_foundENS_14adjacency_listINS_4vecSES3_NS_9directedSENS_11no_propertyENS_8propertyINS_13edge_weight_tEiNS6_INS_14edge_weight2_tEiS5_EEEES5_NS_5listSEEES7_EENS_6detail18choose_impl_resultIN4mpl_5bool_ILb1EEET0_T_T1_E4typeERKSJ_RKSI_SK_(%"struct.boost::adj_list_edge_property_map.17"* noalias sret %agg.result, %"struct.boost::param_not_found"* %p, %"class.boost::adjacency_list"* %g, i32 %tag) {
entry:
  %p.addr = alloca %"struct.boost::param_not_found"*, align 4
  %g.addr = alloca %"class.boost::adjacency_list"*, align 4
  %tag.addr = alloca i32, align 4
  %agg.tmp = alloca %"struct.mpl_::bool_", align 1
  store %"struct.boost::param_not_found"* %p, %"struct.boost::param_not_found"** %p.addr, align 4
  store %"class.boost::adjacency_list"* %g, %"class.boost::adjacency_list"** %g.addr, align 4
  store i32 %tag, i32* %tag.addr, align 4
  %0 = load %"class.boost::adjacency_list"** %g.addr, align 4
  %1 = load %"struct.boost::param_not_found"** %p.addr, align 4
  %2 = load i32* %tag.addr, align 4
  call void @_ZN5boost6detail18choose_impl_helperILb0EE1fINS_15param_not_foundENS_14adjacency_listINS_4vecSES6_NS_9directedSENS_11no_propertyENS_8propertyINS_13edge_weight_tEiNS9_INS_14edge_weight2_tEiS8_EEEES8_NS_5listSEEESA_EENS_12property_mapINS_12remove_constIT0_E4typeET1_E10const_typeEN4mpl_5bool_ILb1EEERKSI_RKT_SL_(%"struct.boost::adj_list_edge_property_map.17"* sret %agg.result, %"class.boost::adjacency_list"* %0, %"struct.boost::param_not_found"* %1, i32 %2)
  ret void
}

define linkonce_odr %"struct.boost::param_not_found"* @_ZN5boost9get_paramINS_13edge_weight_tENS_16bgl_named_paramsIPiNS_17vertex_distance_tENS_11no_propertyEEEEERKNS_22lookup_named_param_defIT_T0_NS_15param_not_foundEE4typeERKS9_S8_(%"struct.boost::bgl_named_params"* %p, i32) inlinehint {
entry:
  %p.addr = alloca %"struct.boost::bgl_named_params"*, align 4
  %.addr = alloca i32, align 4
  %ref.tmp = alloca %"struct.boost::param_not_found", align 1
  store %"struct.boost::bgl_named_params"* %p, %"struct.boost::bgl_named_params"** %p.addr, align 4
  store i32 %0, i32* %.addr, align 4
  %1 = load %"struct.boost::bgl_named_params"** %p.addr, align 4
  %call = call %"struct.boost::param_not_found"* @_ZN5boost22lookup_named_param_defINS_13edge_weight_tENS_16bgl_named_paramsIPiNS_17vertex_distance_tENS_11no_propertyEEENS_15param_not_foundEE3getERKS6_RKS7_(%"struct.boost::bgl_named_params"* %1, %"struct.boost::param_not_found"* %ref.tmp)
  ret %"struct.boost::param_not_found"* %call
}

define linkonce_odr void @_ZN5boost17choose_const_pmapINS_15param_not_foundENS_14adjacency_listINS_4vecSES3_NS_9directedSENS_11no_propertyENS_8propertyINS_13edge_weight_tEiNS6_INS_14edge_weight2_tEiS5_EEEES5_NS_5listSEEENS_14vertex_index_tEEENS_6detail18choose_impl_resultIN4mpl_5bool_ILb1EEET0_T_T1_E4typeERKSK_RKSJ_SL_(%"struct.boost::vec_adj_list_vertex_id_map"* noalias sret %agg.result, %"struct.boost::param_not_found"* %p, %"class.boost::adjacency_list"* %g, i32 %tag) {
entry:
  %p.addr = alloca %"struct.boost::param_not_found"*, align 4
  %g.addr = alloca %"class.boost::adjacency_list"*, align 4
  %tag.addr = alloca i32, align 4
  %agg.tmp = alloca %"struct.mpl_::bool_", align 1
  store %"struct.boost::param_not_found"* %p, %"struct.boost::param_not_found"** %p.addr, align 4
  store %"class.boost::adjacency_list"* %g, %"class.boost::adjacency_list"** %g.addr, align 4
  store i32 %tag, i32* %tag.addr, align 4
  %0 = load %"class.boost::adjacency_list"** %g.addr, align 4
  %1 = load %"struct.boost::param_not_found"** %p.addr, align 4
  %2 = load i32* %tag.addr, align 4
  call void @_ZN5boost6detail18choose_impl_helperILb0EE1fINS_15param_not_foundENS_14adjacency_listINS_4vecSES6_NS_9directedSENS_11no_propertyENS_8propertyINS_13edge_weight_tEiNS9_INS_14edge_weight2_tEiS8_EEEES8_NS_5listSEEENS_14vertex_index_tEEENS_12property_mapINS_12remove_constIT0_E4typeET1_E10const_typeEN4mpl_5bool_ILb1EEERKSJ_RKT_SM_(%"struct.boost::vec_adj_list_vertex_id_map"* sret %agg.result, %"class.boost::adjacency_list"* %0, %"struct.boost::param_not_found"* %1, i32 %2)
  ret void
}

define linkonce_odr %"struct.boost::param_not_found"* @_ZN5boost9get_paramINS_14vertex_index_tENS_16bgl_named_paramsIPiNS_17vertex_distance_tENS_11no_propertyEEEEERKNS_22lookup_named_param_defIT_T0_NS_15param_not_foundEE4typeERKS9_S8_(%"struct.boost::bgl_named_params"* %p, i32) inlinehint {
entry:
  %p.addr = alloca %"struct.boost::bgl_named_params"*, align 4
  %.addr = alloca i32, align 4
  %ref.tmp = alloca %"struct.boost::param_not_found", align 1
  store %"struct.boost::bgl_named_params"* %p, %"struct.boost::bgl_named_params"** %p.addr, align 4
  store i32 %0, i32* %.addr, align 4
  %1 = load %"struct.boost::bgl_named_params"** %p.addr, align 4
  %call = call %"struct.boost::param_not_found"* @_ZN5boost22lookup_named_param_defINS_14vertex_index_tENS_16bgl_named_paramsIPiNS_17vertex_distance_tENS_11no_propertyEEENS_15param_not_foundEE3getERKS6_RKS7_(%"struct.boost::bgl_named_params"* %1, %"struct.boost::param_not_found"* %ref.tmp)
  ret %"struct.boost::param_not_found"* %call
}

define linkonce_odr %"struct.boost::param_not_found"* @_ZN5boost22lookup_named_param_defINS_14vertex_index_tENS_16bgl_named_paramsIPiNS_17vertex_distance_tENS_11no_propertyEEENS_15param_not_foundEE3getERKS6_RKS7_(%"struct.boost::bgl_named_params"* %p, %"struct.boost::param_not_found"* %def) align 2 {
entry:
  %p.addr = alloca %"struct.boost::bgl_named_params"*, align 4
  %def.addr = alloca %"struct.boost::param_not_found"*, align 4
  store %"struct.boost::bgl_named_params"* %p, %"struct.boost::bgl_named_params"** %p.addr, align 4
  store %"struct.boost::param_not_found"* %def, %"struct.boost::param_not_found"** %def.addr, align 4
  %0 = load %"struct.boost::bgl_named_params"** %p.addr, align 4
  %m_base = getelementptr inbounds %"struct.boost::bgl_named_params"* %0, i32 0, i32 1
  %1 = load %"struct.boost::param_not_found"** %def.addr, align 4
  %call = call %"struct.boost::param_not_found"* @_ZN5boost22lookup_named_param_defINS_14vertex_index_tENS_11no_propertyENS_15param_not_foundEE3getERKS2_RKS3_(%"struct.boost::no_property"* %m_base, %"struct.boost::param_not_found"* %1)
  ret %"struct.boost::param_not_found"* %call
}

define linkonce_odr %"struct.boost::param_not_found"* @_ZN5boost22lookup_named_param_defINS_14vertex_index_tENS_11no_propertyENS_15param_not_foundEE3getERKS2_RKS3_(%"struct.boost::no_property"*, %"struct.boost::param_not_found"* %def) nounwind align 2 {
entry:
  %.addr = alloca %"struct.boost::no_property"*, align 4
  %def.addr = alloca %"struct.boost::param_not_found"*, align 4
  store %"struct.boost::no_property"* %0, %"struct.boost::no_property"** %.addr, align 4
  store %"struct.boost::param_not_found"* %def, %"struct.boost::param_not_found"** %def.addr, align 4
  %1 = load %"struct.boost::param_not_found"** %def.addr, align 4
  ret %"struct.boost::param_not_found"* %1
}

define linkonce_odr void @_ZN5boost6detail18choose_impl_helperILb0EE1fINS_15param_not_foundENS_14adjacency_listINS_4vecSES6_NS_9directedSENS_11no_propertyENS_8propertyINS_13edge_weight_tEiNS9_INS_14edge_weight2_tEiS8_EEEES8_NS_5listSEEENS_14vertex_index_tEEENS_12property_mapINS_12remove_constIT0_E4typeET1_E10const_typeEN4mpl_5bool_ILb1EEERKSJ_RKT_SM_(%"struct.boost::vec_adj_list_vertex_id_map"* noalias sret %agg.result, %"class.boost::adjacency_list"* %g, %"struct.boost::param_not_found"*, i32 %tag) align 2 {
entry:
  %1 = alloca %"struct.mpl_::bool_", align 1
  %g.addr = alloca %"class.boost::adjacency_list"*, align 4
  %.addr = alloca %"struct.boost::param_not_found"*, align 4
  %tag.addr = alloca i32, align 4
  store %"class.boost::adjacency_list"* %g, %"class.boost::adjacency_list"** %g.addr, align 4
  store %"struct.boost::param_not_found"* %0, %"struct.boost::param_not_found"** %.addr, align 4
  store i32 %tag, i32* %tag.addr, align 4
  %2 = load i32* %tag.addr, align 4
  %3 = load %"class.boost::adjacency_list"** %g.addr, align 4
  %4 = bitcast %"class.boost::adjacency_list"* %3 to %"struct.boost::adj_list_helper"*
  call void @_ZN5boost3getINS_6detail12adj_list_genINS_14adjacency_listINS_4vecSES4_NS_9directedSENS_11no_propertyENS_8propertyINS_13edge_weight_tEiNS7_INS_14edge_weight2_tEiS6_EEEES6_NS_5listSEEES4_S4_S5_S6_SB_S6_SC_E6configENS_21directed_graph_helperISF_EENS_14vertex_index_tEEENS_12property_mapINT_10graph_typeET1_E10const_typeESM_RKNS_15adj_list_helperISK_T0_EE(%"struct.boost::vec_adj_list_vertex_id_map"* sret %agg.result, i32 %2, %"struct.boost::adj_list_helper"* %4)
  ret void
}

define linkonce_odr void @_ZN5boost3getINS_6detail12adj_list_genINS_14adjacency_listINS_4vecSES4_NS_9directedSENS_11no_propertyENS_8propertyINS_13edge_weight_tEiNS7_INS_14edge_weight2_tEiS6_EEEES6_NS_5listSEEES4_S4_S5_S6_SB_S6_SC_E6configENS_21directed_graph_helperISF_EENS_14vertex_index_tEEENS_12property_mapINT_10graph_typeET1_E10const_typeESM_RKNS_15adj_list_helperISK_T0_EE(%"struct.boost::vec_adj_list_vertex_id_map"* noalias sret %agg.result, i32 %p, %"struct.boost::adj_list_helper"* %g) inlinehint {
entry:
  %p.addr = alloca i32, align 4
  %g.addr = alloca %"struct.boost::adj_list_helper"*, align 4
  %agg.tmp = alloca %"struct.boost::vertex_property_tag", align 1
  store i32 %p, i32* %p.addr, align 4
  store %"struct.boost::adj_list_helper"* %g, %"struct.boost::adj_list_helper"** %g.addr, align 4
  %0 = load %"struct.boost::adj_list_helper"** %g.addr, align 4
  %1 = load i32* %p.addr, align 4
  call void @_ZN5boost6detail12get_dispatchINS0_12adj_list_genINS_14adjacency_listINS_4vecSES4_NS_9directedSENS_11no_propertyENS_8propertyINS_13edge_weight_tEiNS7_INS_14edge_weight2_tEiS6_EEEES6_NS_5listSEEES4_S4_S5_S6_SB_S6_SC_E6configENS_21directed_graph_helperISF_EENS_14vertex_index_tEEENS_12property_mapINT_10graph_typeET1_E10const_typeERKNS_15adj_list_helperISK_T0_EESM_NS_19vertex_property_tagE(%"struct.boost::vec_adj_list_vertex_id_map"* sret %agg.result, %"struct.boost::adj_list_helper"* %0, i32 %1)
  ret void
}

define linkonce_odr void @_ZN5boost6detail12get_dispatchINS0_12adj_list_genINS_14adjacency_listINS_4vecSES4_NS_9directedSENS_11no_propertyENS_8propertyINS_13edge_weight_tEiNS7_INS_14edge_weight2_tEiS6_EEEES6_NS_5listSEEES4_S4_S5_S6_SB_S6_SC_E6configENS_21directed_graph_helperISF_EENS_14vertex_index_tEEENS_12property_mapINT_10graph_typeET1_E10const_typeERKNS_15adj_list_helperISK_T0_EESM_NS_19vertex_property_tagE(%"struct.boost::vec_adj_list_vertex_id_map"* noalias sret %agg.result, %"struct.boost::adj_list_helper"* %g, i32 %p) inlinehint {
entry:
  %g.addr = alloca %"struct.boost::adj_list_helper"*, align 4
  %p.addr = alloca i32, align 4
  %0 = alloca %"struct.boost::vertex_property_tag", align 1
  %cg = alloca %"class.boost::adjacency_list"*, align 4
  %ref.tmp = alloca %"class.boost::adjacency_list"*, align 4
  store %"struct.boost::adj_list_helper"* %g, %"struct.boost::adj_list_helper"** %g.addr, align 4
  store i32 %p, i32* %p.addr, align 4
  %1 = load %"struct.boost::adj_list_helper"** %g.addr, align 4
  %2 = bitcast %"struct.boost::adj_list_helper"* %1 to %"class.boost::adjacency_list"*
  store %"class.boost::adjacency_list"* %2, %"class.boost::adjacency_list"** %cg, align 4
  %3 = load %"class.boost::adjacency_list"** %cg, align 4
  store %"class.boost::adjacency_list"* %3, %"class.boost::adjacency_list"** %ref.tmp, align 4
  %4 = load i32* %p.addr, align 4
  call void @_ZN5boost26vec_adj_list_vertex_id_mapINS_11no_propertyEjEC1IPKNS_14adjacency_listINS_4vecSES5_NS_9directedSES1_NS_8propertyINS_13edge_weight_tEiNS7_INS_14edge_weight2_tEiS1_EEEES1_NS_5listSEEEEERKT_NS_14vertex_index_tE(%"struct.boost::vec_adj_list_vertex_id_map"* %agg.result, %"class.boost::adjacency_list"** %ref.tmp, i32 %4)
  ret void
}

define linkonce_odr void @_ZN5boost26vec_adj_list_vertex_id_mapINS_11no_propertyEjEC1IPKNS_14adjacency_listINS_4vecSES5_NS_9directedSES1_NS_8propertyINS_13edge_weight_tEiNS7_INS_14edge_weight2_tEiS1_EEEES1_NS_5listSEEEEERKT_NS_14vertex_index_tE(%"struct.boost::vec_adj_list_vertex_id_map"* %this, %"class.boost::adjacency_list"**, i32) unnamed_addr inlinehint align 2 {
entry:
  %this.addr = alloca %"struct.boost::vec_adj_list_vertex_id_map"*, align 4
  %.addr = alloca %"class.boost::adjacency_list"**, align 4
  %.addr1 = alloca i32, align 4
  store %"struct.boost::vec_adj_list_vertex_id_map"* %this, %"struct.boost::vec_adj_list_vertex_id_map"** %this.addr, align 4
  store %"class.boost::adjacency_list"** %0, %"class.boost::adjacency_list"*** %.addr, align 4
  store i32 %1, i32* %.addr1, align 4
  %this2 = load %"struct.boost::vec_adj_list_vertex_id_map"** %this.addr
  %2 = load %"class.boost::adjacency_list"*** %.addr
  %3 = load i32* %.addr1, align 4
  call void @_ZN5boost26vec_adj_list_vertex_id_mapINS_11no_propertyEjEC2IPKNS_14adjacency_listINS_4vecSES5_NS_9directedSES1_NS_8propertyINS_13edge_weight_tEiNS7_INS_14edge_weight2_tEiS1_EEEES1_NS_5listSEEEEERKT_NS_14vertex_index_tE(%"struct.boost::vec_adj_list_vertex_id_map"* %this2, %"class.boost::adjacency_list"** %2, i32 %3)
  ret void
}

define linkonce_odr void @_ZN5boost26vec_adj_list_vertex_id_mapINS_11no_propertyEjEC2IPKNS_14adjacency_listINS_4vecSES5_NS_9directedSES1_NS_8propertyINS_13edge_weight_tEiNS7_INS_14edge_weight2_tEiS1_EEEES1_NS_5listSEEEEERKT_NS_14vertex_index_tE(%"struct.boost::vec_adj_list_vertex_id_map"* %this, %"class.boost::adjacency_list"**, i32) unnamed_addr nounwind inlinehint align 2 {
entry:
  %this.addr = alloca %"struct.boost::vec_adj_list_vertex_id_map"*, align 4
  %.addr = alloca %"class.boost::adjacency_list"**, align 4
  %.addr1 = alloca i32, align 4
  store %"struct.boost::vec_adj_list_vertex_id_map"* %this, %"struct.boost::vec_adj_list_vertex_id_map"** %this.addr, align 4
  store %"class.boost::adjacency_list"** %0, %"class.boost::adjacency_list"*** %.addr, align 4
  store i32 %1, i32* %.addr1, align 4
  %this2 = load %"struct.boost::vec_adj_list_vertex_id_map"** %this.addr
  %2 = bitcast %"struct.boost::vec_adj_list_vertex_id_map"* %this2 to %"struct.boost::put_get_helper.19"*
  ret void
}

define linkonce_odr %"struct.boost::param_not_found"* @_ZN5boost22lookup_named_param_defINS_13edge_weight_tENS_16bgl_named_paramsIPiNS_17vertex_distance_tENS_11no_propertyEEENS_15param_not_foundEE3getERKS6_RKS7_(%"struct.boost::bgl_named_params"* %p, %"struct.boost::param_not_found"* %def) align 2 {
entry:
  %p.addr = alloca %"struct.boost::bgl_named_params"*, align 4
  %def.addr = alloca %"struct.boost::param_not_found"*, align 4
  store %"struct.boost::bgl_named_params"* %p, %"struct.boost::bgl_named_params"** %p.addr, align 4
  store %"struct.boost::param_not_found"* %def, %"struct.boost::param_not_found"** %def.addr, align 4
  %0 = load %"struct.boost::bgl_named_params"** %p.addr, align 4
  %m_base = getelementptr inbounds %"struct.boost::bgl_named_params"* %0, i32 0, i32 1
  %1 = load %"struct.boost::param_not_found"** %def.addr, align 4
  %call = call %"struct.boost::param_not_found"* @_ZN5boost22lookup_named_param_defINS_13edge_weight_tENS_11no_propertyENS_15param_not_foundEE3getERKS2_RKS3_(%"struct.boost::no_property"* %m_base, %"struct.boost::param_not_found"* %1)
  ret %"struct.boost::param_not_found"* %call
}

define linkonce_odr %"struct.boost::param_not_found"* @_ZN5boost22lookup_named_param_defINS_13edge_weight_tENS_11no_propertyENS_15param_not_foundEE3getERKS2_RKS3_(%"struct.boost::no_property"*, %"struct.boost::param_not_found"* %def) nounwind align 2 {
entry:
  %.addr = alloca %"struct.boost::no_property"*, align 4
  %def.addr = alloca %"struct.boost::param_not_found"*, align 4
  store %"struct.boost::no_property"* %0, %"struct.boost::no_property"** %.addr, align 4
  store %"struct.boost::param_not_found"* %def, %"struct.boost::param_not_found"** %def.addr, align 4
  %1 = load %"struct.boost::param_not_found"** %def.addr, align 4
  ret %"struct.boost::param_not_found"* %1
}

define linkonce_odr void @_ZN5boost6detail18choose_impl_helperILb0EE1fINS_15param_not_foundENS_14adjacency_listINS_4vecSES6_NS_9directedSENS_11no_propertyENS_8propertyINS_13edge_weight_tEiNS9_INS_14edge_weight2_tEiS8_EEEES8_NS_5listSEEESA_EENS_12property_mapINS_12remove_constIT0_E4typeET1_E10const_typeEN4mpl_5bool_ILb1EEERKSI_RKT_SL_(%"struct.boost::adj_list_edge_property_map.17"* noalias sret %agg.result, %"class.boost::adjacency_list"* %g, %"struct.boost::param_not_found"*, i32 %tag) align 2 {
entry:
  %1 = alloca %"struct.mpl_::bool_", align 1
  %g.addr = alloca %"class.boost::adjacency_list"*, align 4
  %.addr = alloca %"struct.boost::param_not_found"*, align 4
  %tag.addr = alloca i32, align 4
  store %"class.boost::adjacency_list"* %g, %"class.boost::adjacency_list"** %g.addr, align 4
  store %"struct.boost::param_not_found"* %0, %"struct.boost::param_not_found"** %.addr, align 4
  store i32 %tag, i32* %tag.addr, align 4
  %2 = load i32* %tag.addr, align 4
  %3 = load %"class.boost::adjacency_list"** %g.addr, align 4
  %4 = bitcast %"class.boost::adjacency_list"* %3 to %"struct.boost::adj_list_helper"*
  call void @_ZN5boost3getINS_6detail12adj_list_genINS_14adjacency_listINS_4vecSES4_NS_9directedSENS_11no_propertyENS_8propertyINS_13edge_weight_tEiNS7_INS_14edge_weight2_tEiS6_EEEES6_NS_5listSEEES4_S4_S5_S6_SB_S6_SC_E6configENS_21directed_graph_helperISF_EES8_EENS_12property_mapINT_10graph_typeET1_E10const_typeESL_RKNS_15adj_list_helperISJ_T0_EE(%"struct.boost::adj_list_edge_property_map.17"* sret %agg.result, i32 %2, %"struct.boost::adj_list_helper"* %4)
  ret void
}

define linkonce_odr void @_ZN5boost3getINS_6detail12adj_list_genINS_14adjacency_listINS_4vecSES4_NS_9directedSENS_11no_propertyENS_8propertyINS_13edge_weight_tEiNS7_INS_14edge_weight2_tEiS6_EEEES6_NS_5listSEEES4_S4_S5_S6_SB_S6_SC_E6configENS_21directed_graph_helperISF_EES8_EENS_12property_mapINT_10graph_typeET1_E10const_typeESL_RKNS_15adj_list_helperISJ_T0_EE(%"struct.boost::adj_list_edge_property_map.17"* noalias sret %agg.result, i32 %p, %"struct.boost::adj_list_helper"* %g) inlinehint {
entry:
  %p.addr = alloca i32, align 4
  %g.addr = alloca %"struct.boost::adj_list_helper"*, align 4
  %agg.tmp = alloca %"struct.boost::edge_property_tag", align 1
  store i32 %p, i32* %p.addr, align 4
  store %"struct.boost::adj_list_helper"* %g, %"struct.boost::adj_list_helper"** %g.addr, align 4
  %0 = load %"struct.boost::adj_list_helper"** %g.addr, align 4
  %1 = load i32* %p.addr, align 4
  call void @_ZN5boost6detail12get_dispatchINS0_12adj_list_genINS_14adjacency_listINS_4vecSES4_NS_9directedSENS_11no_propertyENS_8propertyINS_13edge_weight_tEiNS7_INS_14edge_weight2_tEiS6_EEEES6_NS_5listSEEES4_S4_S5_S6_SB_S6_SC_E6configENS_21directed_graph_helperISF_EES8_EENS_12property_mapINT_10graph_typeET1_E10const_typeERKNS_15adj_list_helperISJ_T0_EESL_NS_17edge_property_tagE(%"struct.boost::adj_list_edge_property_map.17"* sret %agg.result, %"struct.boost::adj_list_helper"* %0, i32 %1)
  ret void
}

define linkonce_odr void @_ZN5boost6detail12get_dispatchINS0_12adj_list_genINS_14adjacency_listINS_4vecSES4_NS_9directedSENS_11no_propertyENS_8propertyINS_13edge_weight_tEiNS7_INS_14edge_weight2_tEiS6_EEEES6_NS_5listSEEES4_S4_S5_S6_SB_S6_SC_E6configENS_21directed_graph_helperISF_EES8_EENS_12property_mapINT_10graph_typeET1_E10const_typeERKNS_15adj_list_helperISJ_T0_EESL_NS_17edge_property_tagE(%"struct.boost::adj_list_edge_property_map.17"* noalias sret %agg.result, %"struct.boost::adj_list_helper"*, i32 %p) inlinehint {
entry:
  %.addr = alloca %"struct.boost::adj_list_helper"*, align 4
  %p.addr = alloca i32, align 4
  %1 = alloca %"struct.boost::edge_property_tag", align 1
  store %"struct.boost::adj_list_helper"* %0, %"struct.boost::adj_list_helper"** %.addr, align 4
  store i32 %p, i32* %p.addr, align 4
  %2 = load i32* %p.addr, align 4
  call void @_ZN5boost26adj_list_edge_property_mapINS_12directed_tagEiRKijKNS_8propertyINS_13edge_weight_tEiNS4_INS_14edge_weight2_tEiNS_11no_propertyEEEEES5_EC1ES5_(%"struct.boost::adj_list_edge_property_map.17"* %agg.result, i32 %2)
  ret void
}

define linkonce_odr void @_ZN5boost26adj_list_edge_property_mapINS_12directed_tagEiRKijKNS_8propertyINS_13edge_weight_tEiNS4_INS_14edge_weight2_tEiNS_11no_propertyEEEEES5_EC1ES5_(%"struct.boost::adj_list_edge_property_map.17"* %this, i32 %tag) unnamed_addr align 2 {
entry:
  %this.addr = alloca %"struct.boost::adj_list_edge_property_map.17"*, align 4
  %tag.addr = alloca i32, align 4
  store %"struct.boost::adj_list_edge_property_map.17"* %this, %"struct.boost::adj_list_edge_property_map.17"** %this.addr, align 4
  store i32 %tag, i32* %tag.addr, align 4
  %this1 = load %"struct.boost::adj_list_edge_property_map.17"** %this.addr
  %0 = load i32* %tag.addr, align 4
  call void @_ZN5boost26adj_list_edge_property_mapINS_12directed_tagEiRKijKNS_8propertyINS_13edge_weight_tEiNS4_INS_14edge_weight2_tEiNS_11no_propertyEEEEES5_EC2ES5_(%"struct.boost::adj_list_edge_property_map.17"* %this1, i32 %0)
  ret void
}

define linkonce_odr void @_ZN5boost26adj_list_edge_property_mapINS_12directed_tagEiRKijKNS_8propertyINS_13edge_weight_tEiNS4_INS_14edge_weight2_tEiNS_11no_propertyEEEEES5_EC2ES5_(%"struct.boost::adj_list_edge_property_map.17"* %this, i32 %tag) unnamed_addr nounwind align 2 {
entry:
  %this.addr = alloca %"struct.boost::adj_list_edge_property_map.17"*, align 4
  %tag.addr = alloca i32, align 4
  store %"struct.boost::adj_list_edge_property_map.17"* %this, %"struct.boost::adj_list_edge_property_map.17"** %this.addr, align 4
  store i32 %tag, i32* %tag.addr, align 4
  %this1 = load %"struct.boost::adj_list_edge_property_map.17"** %this.addr
  %0 = bitcast %"struct.boost::adj_list_edge_property_map.17"* %this1 to %"struct.boost::put_get_helper.18"*
  %tag2 = getelementptr inbounds %"struct.boost::adj_list_edge_property_map.17"* %this1, i32 0, i32 0
  %1 = load i32* %tag.addr, align 4
  store i32 %1, i32* %tag2, align 4
  ret void
}

define linkonce_odr zeroext i1 @_ZN5boost32johnson_all_pairs_shortest_pathsINS_14adjacency_listINS_4vecSES2_NS_9directedSENS_11no_propertyENS_8propertyINS_13edge_weight_tEiNS5_INS_14edge_weight2_tEiS4_EEEES4_NS_5listSEEEA6_A6_iNS_26vec_adj_list_vertex_id_mapIS4_jEENS_26adj_list_edge_property_mapINS_12directed_tagEiRKijKS9_S6_EESt4lessIiENS_11closed_plusIiEEiiEEbRT_RT0_T1_T2_RKT3_RKT4_RKT5_T6_(%"class.boost::adjacency_list"* %g1, [6 x [6 x i32]]* %D, %"struct.boost::adj_list_edge_property_map.17"* byval align 4 %w1, %"struct.std::less"* %compare, %"struct.boost::closed_plus"* %combine, i32* %inf, i32 %zero) {
entry:
  %retval = alloca i1, align 1
  %g1.addr = alloca %"class.boost::adjacency_list"*, align 4
  %D.addr = alloca [6 x [6 x i32]]*, align 4
  %id1 = alloca %"struct.boost::vec_adj_list_vertex_id_map", align 1
  %compare.addr = alloca %"struct.std::less"*, align 4
  %combine.addr = alloca %"struct.boost::closed_plus"*, align 4
  %inf.addr = alloca i32*, align 4
  %zero.addr = alloca i32, align 4
  %is_undirected = alloca i8, align 1
  %g2 = alloca %"class.boost::adjacency_list.20", align 4
  %ref.tmp = alloca %"struct.boost::no_property", align 1
  %w = alloca %"struct.boost::adj_list_edge_property_map", align 4
  %exn.slot = alloca i8*
  %ehselector.slot = alloca i32
  %w_hat = alloca %"struct.boost::adj_list_edge_property_map.32", align 4
  %d = alloca %"struct.boost::vec_adj_list_vertex_property_map", align 4
  %id2 = alloca %"struct.boost::vec_adj_list_vertex_id_map.35", align 1
  %verts1 = alloca %"class.std::vector.37", align 4
  %ref.tmp7 = alloca i32, align 4
  %ref.tmp8 = alloca %"class.std::allocator.39", align 1
  %s = alloca i32, align 4
  %tmp = alloca %"struct.std::pair.42", align 4
  %v = alloca %"class.boost::range_detail::integer_iterator", align 4
  %v_end = alloca %"class.boost::range_detail::integer_iterator", align 4
  %i = alloca i32, align 4
  %tmp20 = alloca %"class.boost::tuples::tuple.43", align 4
  %ref.tmp22 = alloca %"struct.std::pair.42", align 4
  %e = alloca %"class.boost::detail::edge_desc_impl", align 4
  %z = alloca i8, align 1
  %tmp31 = alloca %"class.boost::tuples::tuple.46", align 4
  %ref.tmp33 = alloca %"struct.std::pair.49", align 4
  %ref.tmp36 = alloca i32, align 4
  %agg.tmp = alloca %"class.boost::detail::edge_desc_impl", align 4
  %e51 = alloca %"class.boost::detail::adj_list_edge_iterator", align 4
  %e_end = alloca %"class.boost::detail::adj_list_edge_iterator", align 4
  %tmp56 = alloca %"class.boost::tuples::tuple", align 4
  %ref.tmp59 = alloca %"struct.std::pair.4", align 4
  %e2 = alloca %"class.boost::detail::edge_desc_impl", align 4
  %z73 = alloca i8, align 1
  %tmp74 = alloca %"class.boost::tuples::tuple.46", align 4
  %ref.tmp76 = alloca %"struct.std::pair.49", align 4
  %ref.tmp77 = alloca %"class.boost::detail::edge_desc_impl", align 4
  %ref.tmp81 = alloca i32, align 4
  %ref.tmp85 = alloca %"class.boost::detail::edge_desc_impl", align 4
  %ref.tmp89 = alloca i32, align 4
  %agg.tmp96 = alloca %"class.boost::detail::edge_desc_impl", align 4
  %ref.tmp97 = alloca %"class.boost::detail::edge_desc_impl", align 4
  %tmp102 = alloca %"class.boost::tuples::tuple.46", align 4
  %ref.tmp104 = alloca %"struct.std::pair.49", align 4
  %ref.tmp105 = alloca %"class.boost::detail::edge_desc_impl", align 4
  %ref.tmp109 = alloca i32, align 4
  %ref.tmp113 = alloca %"class.boost::detail::edge_desc_impl", align 4
  %ref.tmp117 = alloca i32, align 4
  %agg.tmp124 = alloca %"class.boost::detail::edge_desc_impl", align 4
  %ref.tmp125 = alloca %"class.boost::detail::edge_desc_impl", align 4
  %v140 = alloca %"class.boost::range_detail::integer_iterator", align 4
  %v_end143 = alloca %"class.boost::range_detail::integer_iterator", align 4
  %u = alloca %"class.boost::range_detail::integer_iterator", align 4
  %u_end = alloca %"class.boost::range_detail::integer_iterator", align 4
  %e150 = alloca %"class.boost::detail::adj_list_edge_iterator.50", align 4
  %e_end153 = alloca %"class.boost::detail::adj_list_edge_iterator.50", align 4
  %h = alloca %"class.boost::shared_array_property_map", align 4
  %tmp161 = alloca %"class.boost::tuples::tuple.43", align 4
  %ref.tmp164 = alloca %"struct.std::pair.42", align 4
  %pred = alloca %"class.boost::dummy_property_map", align 4
  %bvis = alloca %"class.boost::bellman_visitor", align 1
  %agg.tmp186 = alloca %"struct.boost::adj_list_edge_property_map", align 4
  %agg.tmp187 = alloca %"class.boost::dummy_property_map", align 4
  %agg.tmp189 = alloca %"struct.boost::vec_adj_list_vertex_property_map", align 4
  %agg.tmp190 = alloca %"struct.boost::closed_plus", align 4
  %agg.tmp191 = alloca %"struct.std::less", align 1
  %agg.tmp192 = alloca %"class.boost::bellman_visitor", align 4
  %tmp196 = alloca %"class.boost::tuples::tuple.43", align 4
  %ref.tmp198 = alloca %"struct.std::pair.42", align 4
  %ref.tmp210 = alloca i32, align 4
  %tmp218 = alloca %"class.boost::tuples::tuple.53", align 4
  %ref.tmp220 = alloca %"struct.std::pair.56", align 4
  %a = alloca i32, align 4
  %ref.tmp233 = alloca %"class.boost::detail::edge_desc_impl", align 4
  %b = alloca i32, align 4
  %ref.tmp238 = alloca %"class.boost::detail::edge_desc_impl", align 4
  %agg.tmp242 = alloca %"class.boost::detail::edge_desc_impl", align 4
  %ref.tmp244 = alloca %"class.boost::detail::edge_desc_impl", align 4
  %ref.tmp252 = alloca i32, align 4
  %ref.tmp255 = alloca i32, align 4
  %tmp261 = alloca %"class.boost::tuples::tuple.43", align 4
  %ref.tmp263 = alloca %"struct.std::pair.42", align 4
  %dvis = alloca %"class.boost::dijkstra_visitor", align 1
  %agg.tmp275 = alloca %"class.boost::dummy_property_map", align 4
  %agg.tmp277 = alloca %"struct.boost::vec_adj_list_vertex_property_map", align 4
  %agg.tmp278 = alloca %"struct.boost::adj_list_edge_property_map.32", align 4
  %agg.tmp279 = alloca %"struct.boost::vec_adj_list_vertex_id_map.35", align 1
  %agg.tmp280 = alloca %"struct.std::less", align 1
  %agg.tmp281 = alloca %"struct.boost::closed_plus", align 4
  %agg.tmp282 = alloca %"class.boost::dijkstra_visitor", align 4
  %tmp284 = alloca %"class.boost::tuples::tuple.43", align 4
  %ref.tmp286 = alloca %"struct.std::pair.42", align 4
  %ref.tmp302 = alloca i32, align 4
  %ref.tmp307 = alloca i32, align 4
  %ref.tmp312 = alloca i32, align 4
  %ref.tmp316 = alloca i32, align 4
  %ref.tmp321 = alloca i32, align 4
  %ref.tmp327 = alloca i32, align 4
  %cleanup.dest.slot = alloca i32
  store %"class.boost::adjacency_list"* %g1, %"class.boost::adjacency_list"** %g1.addr, align 4
  store [6 x [6 x i32]]* %D, [6 x [6 x i32]]** %D.addr, align 4
  store %"struct.std::less"* %compare, %"struct.std::less"** %compare.addr, align 4
  store %"struct.boost::closed_plus"* %combine, %"struct.boost::closed_plus"** %combine.addr, align 4
  store i32* %inf, i32** %inf.addr, align 4
  store i32 %zero, i32* %zero.addr, align 4
  store i8 0, i8* %is_undirected, align 1
  %0 = load %"class.boost::adjacency_list"** %g1.addr, align 4
  %1 = bitcast %"class.boost::adjacency_list"* %0 to %"struct.boost::adj_list_helper"*
  %call = call i32 @_ZN5boost12num_verticesINS_6detail12adj_list_genINS_14adjacency_listINS_4vecSES4_NS_9directedSENS_11no_propertyENS_8propertyINS_13edge_weight_tEiNS7_INS_14edge_weight2_tEiS6_EEEES6_NS_5listSEEES4_S4_S5_S6_SB_S6_SC_E6configENS_21directed_graph_helperISF_EEEENT_18vertices_size_typeERKNS_15adj_list_helperISI_T0_EE(%"struct.boost::adj_list_helper"* %1)
  %add = add i32 %call, 1
  call void @_ZN5boost14adjacency_listINS_4vecSES1_NS_9directedSENS_8propertyINS_17vertex_distance_tEiNS_11no_propertyEEENS3_INS_13edge_weight_tEiNS3_INS_14edge_weight2_tEiS5_EEEES5_NS_5listSEEC1EjRKS5_(%"class.boost::adjacency_list.20"* %g2, i32 %add, %"struct.boost::no_property"* %ref.tmp)
  %2 = bitcast %"class.boost::adjacency_list.20"* %g2 to %"struct.boost::adj_list_helper.22"*
  invoke void @_ZN5boost3getINS_6detail12adj_list_genINS_14adjacency_listINS_4vecSES4_NS_9directedSENS_8propertyINS_17vertex_distance_tEiNS_11no_propertyEEENS6_INS_13edge_weight_tEiNS6_INS_14edge_weight2_tEiS8_EEEES8_NS_5listSEEES4_S4_S5_S9_SD_S8_SE_E6configENS_21directed_graph_helperISH_EESA_EENS_12property_mapINT_10graph_typeET1_E4typeESN_RNS_15adj_list_helperISL_T0_EE(%"struct.boost::adj_list_edge_property_map"* sret %w, i32 0, %"struct.boost::adj_list_helper.22"* %2)
          to label %invoke.cont unwind label %lpad

invoke.cont:                                      ; preds = %entry
  %3 = bitcast %"class.boost::adjacency_list.20"* %g2 to %"struct.boost::adj_list_helper.22"*
  invoke void @_ZN5boost3getINS_6detail12adj_list_genINS_14adjacency_listINS_4vecSES4_NS_9directedSENS_8propertyINS_17vertex_distance_tEiNS_11no_propertyEEENS6_INS_13edge_weight_tEiNS6_INS_14edge_weight2_tEiS8_EEEES8_NS_5listSEEES4_S4_S5_S9_SD_S8_SE_E6configENS_21directed_graph_helperISH_EESB_EENS_12property_mapINT_10graph_typeET1_E4typeESN_RNS_15adj_list_helperISL_T0_EE(%"struct.boost::adj_list_edge_property_map.32"* sret %w_hat, i32 0, %"struct.boost::adj_list_helper.22"* %3)
          to label %invoke.cont1 unwind label %lpad

invoke.cont1:                                     ; preds = %invoke.cont
  %4 = bitcast %"class.boost::adjacency_list.20"* %g2 to %"struct.boost::adj_list_helper.22"*
  invoke void @_ZN5boost3getINS_6detail12adj_list_genINS_14adjacency_listINS_4vecSES4_NS_9directedSENS_8propertyINS_17vertex_distance_tEiNS_11no_propertyEEENS6_INS_13edge_weight_tEiNS6_INS_14edge_weight2_tEiS8_EEEES8_NS_5listSEEES4_S4_S5_S9_SD_S8_SE_E6configENS_21directed_graph_helperISH_EES7_EENS_12property_mapINT_10graph_typeET1_E4typeESN_RNS_15adj_list_helperISL_T0_EE(%"struct.boost::vec_adj_list_vertex_property_map"* sret %d, i32 0, %"struct.boost::adj_list_helper.22"* %4)
          to label %invoke.cont2 unwind label %lpad

invoke.cont2:                                     ; preds = %invoke.cont1
  %5 = bitcast %"class.boost::adjacency_list.20"* %g2 to %"struct.boost::adj_list_helper.22"*
  invoke void @_ZN5boost3getINS_6detail12adj_list_genINS_14adjacency_listINS_4vecSES4_NS_9directedSENS_8propertyINS_17vertex_distance_tEiNS_11no_propertyEEENS6_INS_13edge_weight_tEiNS6_INS_14edge_weight2_tEiS8_EEEES8_NS_5listSEEES4_S4_S5_S9_SD_S8_SE_E6configENS_21directed_graph_helperISH_EENS_14vertex_index_tEEENS_12property_mapINT_10graph_typeET1_E4typeESO_RNS_15adj_list_helperISM_T0_EE(%"struct.boost::vec_adj_list_vertex_id_map.35"* sret %id2, i32 0, %"struct.boost::adj_list_helper.22"* %5)
          to label %invoke.cont3 unwind label %lpad

invoke.cont3:                                     ; preds = %invoke.cont2
  %6 = load %"class.boost::adjacency_list"** %g1.addr, align 4
  %7 = bitcast %"class.boost::adjacency_list"* %6 to %"struct.boost::adj_list_helper"*
  %call5 = invoke i32 @_ZN5boost12num_verticesINS_6detail12adj_list_genINS_14adjacency_listINS_4vecSES4_NS_9directedSENS_11no_propertyENS_8propertyINS_13edge_weight_tEiNS7_INS_14edge_weight2_tEiS6_EEEES6_NS_5listSEEES4_S4_S5_S6_SB_S6_SC_E6configENS_21directed_graph_helperISF_EEEENT_18vertices_size_typeERKNS_15adj_list_helperISI_T0_EE(%"struct.boost::adj_list_helper"* %7)
          to label %invoke.cont4 unwind label %lpad

invoke.cont4:                                     ; preds = %invoke.cont3
  %add6 = add i32 %call5, 1
  store i32 0, i32* %ref.tmp7, align 4
  call void @_ZNSaIjEC1Ev(%"class.std::allocator.39"* %ref.tmp8) nounwind
  invoke void @_ZNSt6vectorIjSaIjEEC1EjRKjRKS0_(%"class.std::vector.37"* %verts1, i32 %add6, i32* %ref.tmp7, %"class.std::allocator.39"* %ref.tmp8)
          to label %invoke.cont10 unwind label %lpad9

invoke.cont10:                                    ; preds = %invoke.cont4
  call void @_ZNSaIjED1Ev(%"class.std::allocator.39"* %ref.tmp8) nounwind
  %8 = bitcast %"class.boost::adjacency_list.20"* %g2 to %"struct.boost::adj_list_helper.22"*
  invoke void @_ZN5boost8verticesINS_6detail12adj_list_genINS_14adjacency_listINS_4vecSES4_NS_9directedSENS_8propertyINS_17vertex_distance_tEiNS_11no_propertyEEENS6_INS_13edge_weight_tEiNS6_INS_14edge_weight2_tEiS8_EEEES8_NS_5listSEEES4_S4_S5_S9_SD_S8_SE_E6configENS_21directed_graph_helperISH_EEEESt4pairINT_15vertex_iteratorESM_ERKNS_15adj_list_helperISL_T0_EE(%"struct.std::pair.42"* sret %tmp, %"struct.boost::adj_list_helper.22"* %8)
          to label %invoke.cont12 unwind label %lpad11

invoke.cont12:                                    ; preds = %invoke.cont10
  %first = getelementptr inbounds %"struct.std::pair.42"* %tmp, i32 0, i32 0
  %9 = bitcast %"class.boost::range_detail::integer_iterator"* %first to %"class.boost::iterator_facade"*
  %call14 = invoke i32 @_ZNK5boost15iterator_facadeINS_12range_detail16integer_iteratorIjEEjNS_27random_access_traversal_tagEjiEdeEv(%"class.boost::iterator_facade"* %9)
          to label %invoke.cont13 unwind label %lpad11

invoke.cont13:                                    ; preds = %invoke.cont12
  store i32 %call14, i32* %s, align 4
  invoke void @_ZN5boost12range_detail16integer_iteratorIjEC1Ev(%"class.boost::range_detail::integer_iterator"* %v)
          to label %invoke.cont16 unwind label %lpad11

invoke.cont16:                                    ; preds = %invoke.cont13
  invoke void @_ZN5boost12range_detail16integer_iteratorIjEC1Ev(%"class.boost::range_detail::integer_iterator"* %v_end)
          to label %invoke.cont18 unwind label %lpad11

invoke.cont18:                                    ; preds = %invoke.cont16
  store i32 1, i32* %i, align 4
  invoke void @_ZN5boost6tuples3tieINS_12range_detail16integer_iteratorIjEES4_EENS0_6detail10tie_mapperIT_T0_vvvvvvvvE4typeERS7_RS8_(%"class.boost::tuples::tuple.43"* sret %tmp20, %"class.boost::range_detail::integer_iterator"* %v, %"class.boost::range_detail::integer_iterator"* %v_end)
          to label %invoke.cont21 unwind label %lpad11

invoke.cont21:                                    ; preds = %invoke.cont18
  %10 = load %"class.boost::adjacency_list"** %g1.addr, align 4
  %11 = bitcast %"class.boost::adjacency_list"* %10 to %"struct.boost::adj_list_helper"*
  invoke void @_ZN5boost8verticesINS_6detail12adj_list_genINS_14adjacency_listINS_4vecSES4_NS_9directedSENS_11no_propertyENS_8propertyINS_13edge_weight_tEiNS7_INS_14edge_weight2_tEiS6_EEEES6_NS_5listSEEES4_S4_S5_S6_SB_S6_SC_E6configENS_21directed_graph_helperISF_EEEESt4pairINT_15vertex_iteratorESK_ERKNS_15adj_list_helperISJ_T0_EE(%"struct.std::pair.42"* sret %ref.tmp22, %"struct.boost::adj_list_helper"* %11)
          to label %invoke.cont23 unwind label %lpad11

invoke.cont23:                                    ; preds = %invoke.cont21
  %call25 = invoke %"class.boost::tuples::tuple.43"* @_ZN5boost6tuples5tupleIRNS_12range_detail16integer_iteratorIjEES5_NS0_9null_typeES6_S6_S6_S6_S6_S6_S6_EaSIS4_S4_EERS7_RKSt4pairIT_T0_E(%"class.boost::tuples::tuple.43"* %tmp20, %"struct.std::pair.42"* %ref.tmp22)
          to label %invoke.cont24 unwind label %lpad11

invoke.cont24:                                    ; preds = %invoke.cont23
  br label %for.cond

for.cond:                                         ; preds = %invoke.cont48, %invoke.cont24
  %12 = bitcast %"class.boost::range_detail::integer_iterator"* %v to %"class.boost::iterator_facade"*
  %13 = bitcast %"class.boost::range_detail::integer_iterator"* %v_end to %"class.boost::iterator_facade"*
  %call27 = invoke zeroext i1 @_ZN5boostneINS_12range_detail16integer_iteratorIjEEjNS_27random_access_traversal_tagEjiS3_jS4_jiEENS_6detail23enable_if_interoperableIT_T4_NS_3mpl6apply2INS5_12always_bool2ES7_S8_E4typeEE4typeERKNS_15iterator_facadeIS7_T0_T1_T2_T3_EERKNSG_IS8_T5_T6_T7_T8_EE(%"class.boost::iterator_facade"* %12, %"class.boost::iterator_facade"* %13)
          to label %invoke.cont26 unwind label %lpad11

invoke.cont26:                                    ; preds = %for.cond
  br i1 %call27, label %for.body, label %for.end

for.body:                                         ; preds = %invoke.cont26
  invoke void @_ZN5boost6detail14edge_desc_implINS_12directed_tagEjEC1Ev(%"class.boost::detail::edge_desc_impl"* %e)
          to label %invoke.cont29 unwind label %lpad11

invoke.cont29:                                    ; preds = %for.body
  invoke void @_ZN5boost6tuples3tieINS_6detail14edge_desc_implINS_12directed_tagEjEEbEENS0_6detail10tie_mapperIT_T0_vvvvvvvvE4typeERS8_RS9_(%"class.boost::tuples::tuple.46"* sret %tmp31, %"class.boost::detail::edge_desc_impl"* %e, i8* %z)
          to label %invoke.cont32 unwind label %lpad11

invoke.cont32:                                    ; preds = %invoke.cont29
  %14 = load i32* %s, align 4
  %15 = bitcast %"struct.boost::vec_adj_list_vertex_id_map"* %id1 to %"struct.boost::put_get_helper.19"*
  %16 = bitcast %"class.boost::range_detail::integer_iterator"* %v to %"class.boost::iterator_facade"*
  %call35 = invoke i32 @_ZNK5boost15iterator_facadeINS_12range_detail16integer_iteratorIjEEjNS_27random_access_traversal_tagEjiEdeEv(%"class.boost::iterator_facade"* %16)
          to label %invoke.cont34 unwind label %lpad11

invoke.cont34:                                    ; preds = %invoke.cont32
  store i32 %call35, i32* %ref.tmp36, align 4
  %call38 = invoke i32 @_ZN5boost3getINS_26vec_adj_list_vertex_id_mapINS_11no_propertyEjEEjjEET0_RKNS_14put_get_helperIS4_T_EERKT1_(%"struct.boost::put_get_helper.19"* %15, i32* %ref.tmp36)
          to label %invoke.cont37 unwind label %lpad11

invoke.cont37:                                    ; preds = %invoke.cont34
  %add39 = add i32 %call38, 1
  %17 = bitcast %"class.boost::adjacency_list.20"* %g2 to %"class.boost::vec_adj_list_impl.21"*
  invoke void @_ZN5boost8add_edgeINS_14adjacency_listINS_4vecSES2_NS_9directedSENS_8propertyINS_17vertex_distance_tEiNS_11no_propertyEEENS4_INS_13edge_weight_tEiNS4_INS_14edge_weight2_tEiS6_EEEES6_NS_5listSEEENS_6detail12adj_list_genISD_S2_S2_S3_S7_SB_S6_SC_E6configENS_21directed_graph_helperISH_EEEESt4pairINT0_15edge_descriptorEbENSL_17vertex_descriptorESO_RNS_17vec_adj_list_implIT_SL_T1_EE(%"struct.std::pair.49"* sret %ref.tmp33, i32 %14, i32 %add39, %"class.boost::vec_adj_list_impl.21"* %17)
          to label %invoke.cont40 unwind label %lpad11

invoke.cont40:                                    ; preds = %invoke.cont37
  %call42 = invoke %"class.boost::tuples::tuple.46"* @_ZN5boost6tuples5tupleIRNS_6detail14edge_desc_implINS_12directed_tagEjEERbNS0_9null_typeES8_S8_S8_S8_S8_S8_S8_EaSIS5_bEERS9_RKSt4pairIT_T0_E(%"class.boost::tuples::tuple.46"* %tmp31, %"struct.std::pair.49"* %ref.tmp33)
          to label %invoke.cont41 unwind label %lpad11

invoke.cont41:                                    ; preds = %invoke.cont40
  %18 = bitcast %"struct.boost::adj_list_edge_property_map"* %w to %"struct.boost::put_get_helper"*
  %19 = bitcast %"class.boost::detail::edge_desc_impl"* %agg.tmp to i8*
  %20 = bitcast %"class.boost::detail::edge_desc_impl"* %e to i8*
  call void @llvm.memcpy.p0i8.p0i8.i32(i8* %19, i8* %20, i32 12, i32 4, i1 false)
  invoke void @_ZN5boost3putINS_26adj_list_edge_property_mapINS_12directed_tagEiRijNS_8propertyINS_13edge_weight_tEiNS4_INS_14edge_weight2_tEiNS_11no_propertyEEEEES5_EES3_NS_6detail14edge_desc_implIS2_jEEiEEvRKNS_14put_get_helperIT0_T_EET1_RKT2_(%"struct.boost::put_get_helper"* %18, %"class.boost::detail::edge_desc_impl"* byval align 4 %agg.tmp, i32* %zero.addr)
          to label %invoke.cont43 unwind label %lpad11

invoke.cont43:                                    ; preds = %invoke.cont41
  %21 = bitcast %"class.boost::range_detail::integer_iterator"* %v to %"class.boost::iterator_facade"*
  %call45 = invoke i32 @_ZNK5boost15iterator_facadeINS_12range_detail16integer_iteratorIjEEjNS_27random_access_traversal_tagEjiEdeEv(%"class.boost::iterator_facade"* %21)
          to label %invoke.cont44 unwind label %lpad11

invoke.cont44:                                    ; preds = %invoke.cont43
  %22 = load i32* %i, align 4
  %call47 = invoke i32* @_ZNSt6vectorIjSaIjEEixEj(%"class.std::vector.37"* %verts1, i32 %22)
          to label %invoke.cont46 unwind label %lpad11

invoke.cont46:                                    ; preds = %invoke.cont44
  store i32 %call45, i32* %call47
  br label %for.inc

for.inc:                                          ; preds = %invoke.cont46
  %23 = bitcast %"class.boost::range_detail::integer_iterator"* %v to %"class.boost::iterator_facade"*
  %call49 = invoke %"class.boost::range_detail::integer_iterator"* @_ZN5boost15iterator_facadeINS_12range_detail16integer_iteratorIjEEjNS_27random_access_traversal_tagEjiEppEv(%"class.boost::iterator_facade"* %23)
          to label %invoke.cont48 unwind label %lpad11

invoke.cont48:                                    ; preds = %for.inc
  %24 = load i32* %i, align 4
  %inc = add nsw i32 %24, 1
  store i32 %inc, i32* %i, align 4
  br label %for.cond

lpad:                                             ; preds = %invoke.cont349, %invoke.cont3, %invoke.cont2, %invoke.cont1, %invoke.cont, %entry
  %25 = landingpad { i8*, i32 } personality i8* bitcast (i32 (...)* @__gxx_personality_v0 to i8*)
          cleanup
  %26 = extractvalue { i8*, i32 } %25, 0
  store i8* %26, i8** %exn.slot
  %27 = extractvalue { i8*, i32 } %25, 1
  store i32 %27, i32* %ehselector.slot
  br label %ehcleanup357

lpad9:                                            ; preds = %invoke.cont4
  %28 = landingpad { i8*, i32 } personality i8* bitcast (i32 (...)* @__gxx_personality_v0 to i8*)
          cleanup
  %29 = extractvalue { i8*, i32 } %28, 0
  store i8* %29, i8** %exn.slot
  %30 = extractvalue { i8*, i32 } %28, 1
  store i32 %30, i32* %ehselector.slot
  call void @_ZNSaIjED1Ev(%"class.std::allocator.39"* %ref.tmp8) nounwind
  br label %ehcleanup357

lpad11:                                           ; preds = %invoke.cont345, %invoke.cont148, %invoke.cont146, %invoke.cont144, %invoke.cont141, %invoke.cont136, %invoke.cont134, %for.end, %for.inc, %invoke.cont44, %invoke.cont43, %invoke.cont41, %invoke.cont40, %invoke.cont37, %invoke.cont34, %invoke.cont32, %invoke.cont29, %for.body, %for.cond, %invoke.cont23, %invoke.cont21, %invoke.cont18, %invoke.cont16, %invoke.cont13, %invoke.cont12, %invoke.cont10
  %31 = landingpad { i8*, i32 } personality i8* bitcast (i32 (...)* @__gxx_personality_v0 to i8*)
          cleanup
  %32 = extractvalue { i8*, i32 } %31, 0
  store i8* %32, i8** %exn.slot
  %33 = extractvalue { i8*, i32 } %31, 1
  store i32 %33, i32* %ehselector.slot
  br label %ehcleanup354

for.end:                                          ; preds = %invoke.cont26
  invoke void @_ZN5boost6detail22adj_list_edge_iteratorINS_12range_detail16integer_iteratorIjEENS0_13out_edge_iterIN9__gnu_cxx17__normal_iteratorIPNS0_20stored_edge_propertyIjNS_8propertyINS_13edge_weight_tEiNS9_INS_14edge_weight2_tEiNS_11no_propertyEEEEEEESt6vectorISF_SaISF_EEEEjNS0_14edge_desc_implINS_12directed_tagEjEEiEENS_14adjacency_listINS_4vecSESQ_NS_9directedSESC_SE_SC_NS_5listSEEEEC1Ev(%"class.boost::detail::adj_list_edge_iterator"* %e51)
          to label %invoke.cont52 unwind label %lpad11

invoke.cont52:                                    ; preds = %for.end
  invoke void @_ZN5boost6detail22adj_list_edge_iteratorINS_12range_detail16integer_iteratorIjEENS0_13out_edge_iterIN9__gnu_cxx17__normal_iteratorIPNS0_20stored_edge_propertyIjNS_8propertyINS_13edge_weight_tEiNS9_INS_14edge_weight2_tEiNS_11no_propertyEEEEEEESt6vectorISF_SaISF_EEEEjNS0_14edge_desc_implINS_12directed_tagEjEEiEENS_14adjacency_listINS_4vecSESQ_NS_9directedSESC_SE_SC_NS_5listSEEEEC1Ev(%"class.boost::detail::adj_list_edge_iterator"* %e_end)
          to label %invoke.cont55 unwind label %lpad54

invoke.cont55:                                    ; preds = %invoke.cont52
  invoke void @_ZN5boost6tuples3tieINS_6detail22adj_list_edge_iteratorINS_12range_detail16integer_iteratorIjEENS2_13out_edge_iterIN9__gnu_cxx17__normal_iteratorIPNS2_20stored_edge_propertyIjNS_8propertyINS_13edge_weight_tEiNSB_INS_14edge_weight2_tEiNS_11no_propertyEEEEEEESt6vectorISH_SaISH_EEEEjNS2_14edge_desc_implINS_12directed_tagEjEEiEENS_14adjacency_listINS_4vecSESS_NS_9directedSESE_SG_SE_NS_5listSEEEEESW_EENS0_6detail10tie_mapperIT_T0_vvvvvvvvE4typeERSZ_RS10_(%"class.boost::tuples::tuple"* sret %tmp56, %"class.boost::detail::adj_list_edge_iterator"* %e51, %"class.boost::detail::adj_list_edge_iterator"* %e_end)
          to label %invoke.cont58 unwind label %lpad57

invoke.cont58:                                    ; preds = %invoke.cont55
  %34 = load %"class.boost::adjacency_list"** %g1.addr, align 4
  %35 = bitcast %"class.boost::adjacency_list"* %34 to %"struct.boost::directed_edges_helper"*
  invoke void @_ZN5boost5edgesINS_6detail12adj_list_genINS_14adjacency_listINS_4vecSES4_NS_9directedSENS_11no_propertyENS_8propertyINS_13edge_weight_tEiNS7_INS_14edge_weight2_tEiS6_EEEES6_NS_5listSEEES4_S4_S5_S6_SB_S6_SC_E6configEEESt4pairINT_13edge_iteratorESI_ERKNS_21directed_edges_helperISH_EE(%"struct.std::pair.4"* sret %ref.tmp59, %"struct.boost::directed_edges_helper"* %35)
          to label %invoke.cont60 unwind label %lpad57

invoke.cont60:                                    ; preds = %invoke.cont58
  %call63 = invoke %"class.boost::tuples::tuple"* @_ZN5boost6tuples5tupleIRNS_6detail22adj_list_edge_iteratorINS_12range_detail16integer_iteratorIjEENS2_13out_edge_iterIN9__gnu_cxx17__normal_iteratorIPNS2_20stored_edge_propertyIjNS_8propertyINS_13edge_weight_tEiNSB_INS_14edge_weight2_tEiNS_11no_propertyEEEEEEESt6vectorISH_SaISH_EEEEjNS2_14edge_desc_implINS_12directed_tagEjEEiEENS_14adjacency_listINS_4vecSESS_NS_9directedSESE_SG_SE_NS_5listSEEEEESX_NS0_9null_typeESY_SY_SY_SY_SY_SY_SY_EaSISW_SW_EERSZ_RKSt4pairIT_T0_E(%"class.boost::tuples::tuple"* %tmp56, %"struct.std::pair.4"* %ref.tmp59)
          to label %invoke.cont62 unwind label %lpad61

invoke.cont62:                                    ; preds = %invoke.cont60
  invoke void @_ZNSt4pairIN5boost6detail22adj_list_edge_iteratorINS0_12range_detail16integer_iteratorIjEENS1_13out_edge_iterIN9__gnu_cxx17__normal_iteratorIPNS1_20stored_edge_propertyIjNS0_8propertyINS0_13edge_weight_tEiNSA_INS0_14edge_weight2_tEiNS0_11no_propertyEEEEEEESt6vectorISG_SaISG_EEEEjNS1_14edge_desc_implINS0_12directed_tagEjEEiEENS0_14adjacency_listINS0_4vecSESR_NS0_9directedSESD_SF_SD_NS0_5listSEEEEESV_ED1Ev(%"struct.std::pair.4"* %ref.tmp59)
          to label %invoke.cont64 unwind label %lpad57

invoke.cont64:                                    ; preds = %invoke.cont62
  br label %for.cond66

for.cond66:                                       ; preds = %invoke.cont131, %invoke.cont64
  %call68 = invoke zeroext i1 @_ZNK5boost6detail22adj_list_edge_iteratorINS_12range_detail16integer_iteratorIjEENS0_13out_edge_iterIN9__gnu_cxx17__normal_iteratorIPNS0_20stored_edge_propertyIjNS_8propertyINS_13edge_weight_tEiNS9_INS_14edge_weight2_tEiNS_11no_propertyEEEEEEESt6vectorISF_SaISF_EEEEjNS0_14edge_desc_implINS_12directed_tagEjEEiEENS_14adjacency_listINS_4vecSESQ_NS_9directedSESC_SE_SC_NS_5listSEEEEneERKSU_(%"class.boost::detail::adj_list_edge_iterator"* %e51, %"class.boost::detail::adj_list_edge_iterator"* %e_end)
          to label %invoke.cont67 unwind label %lpad57

invoke.cont67:                                    ; preds = %for.cond66
  br i1 %call68, label %for.body69, label %for.end133

for.body69:                                       ; preds = %invoke.cont67
  invoke void @_ZN5boost6detail14edge_desc_implINS_12directed_tagEjEC1Ev(%"class.boost::detail::edge_desc_impl"* %e2)
          to label %invoke.cont71 unwind label %lpad57

invoke.cont71:                                    ; preds = %for.body69
  invoke void @_ZN5boost6tuples3tieINS_6detail14edge_desc_implINS_12directed_tagEjEEbEENS0_6detail10tie_mapperIT_T0_vvvvvvvvE4typeERS8_RS9_(%"class.boost::tuples::tuple.46"* sret %tmp74, %"class.boost::detail::edge_desc_impl"* %e2, i8* %z73)
          to label %invoke.cont75 unwind label %lpad57

invoke.cont75:                                    ; preds = %invoke.cont71
  %36 = bitcast %"struct.boost::vec_adj_list_vertex_id_map"* %id1 to %"struct.boost::put_get_helper.19"*
  invoke void @_ZNK5boost6detail22adj_list_edge_iteratorINS_12range_detail16integer_iteratorIjEENS0_13out_edge_iterIN9__gnu_cxx17__normal_iteratorIPNS0_20stored_edge_propertyIjNS_8propertyINS_13edge_weight_tEiNS9_INS_14edge_weight2_tEiNS_11no_propertyEEEEEEESt6vectorISF_SaISF_EEEEjNS0_14edge_desc_implINS_12directed_tagEjEEiEENS_14adjacency_listINS_4vecSESQ_NS_9directedSESC_SE_SC_NS_5listSEEEEdeEv(%"class.boost::detail::edge_desc_impl"* sret %ref.tmp77, %"class.boost::detail::adj_list_edge_iterator"* %e51)
          to label %invoke.cont78 unwind label %lpad57

invoke.cont78:                                    ; preds = %invoke.cont75
  %37 = bitcast %"class.boost::detail::edge_desc_impl"* %ref.tmp77 to %"struct.boost::detail::edge_base"*
  %38 = load %"class.boost::adjacency_list"** %g1.addr, align 4
  %call80 = invoke i32 @_ZN5boost6sourceINS_12directed_tagEjNS_4vecSES2_NS_9directedSENS_11no_propertyENS_8propertyINS_13edge_weight_tEiNS5_INS_14edge_weight2_tEiS4_EEEES4_NS_5listSEEET0_RKNS_6detail9edge_baseIT_SB_EERKNS_14adjacency_listIT1_T2_T3_T4_T5_T6_T7_EE(%"struct.boost::detail::edge_base"* %37, %"class.boost::adjacency_list"* %38)
          to label %invoke.cont79 unwind label %lpad57

invoke.cont79:                                    ; preds = %invoke.cont78
  store i32 %call80, i32* %ref.tmp81, align 4
  %call83 = invoke i32 @_ZN5boost3getINS_26vec_adj_list_vertex_id_mapINS_11no_propertyEjEEjjEET0_RKNS_14put_get_helperIS4_T_EERKT1_(%"struct.boost::put_get_helper.19"* %36, i32* %ref.tmp81)
          to label %invoke.cont82 unwind label %lpad57

invoke.cont82:                                    ; preds = %invoke.cont79
  %add84 = add i32 %call83, 1
  %39 = bitcast %"struct.boost::vec_adj_list_vertex_id_map"* %id1 to %"struct.boost::put_get_helper.19"*
  invoke void @_ZNK5boost6detail22adj_list_edge_iteratorINS_12range_detail16integer_iteratorIjEENS0_13out_edge_iterIN9__gnu_cxx17__normal_iteratorIPNS0_20stored_edge_propertyIjNS_8propertyINS_13edge_weight_tEiNS9_INS_14edge_weight2_tEiNS_11no_propertyEEEEEEESt6vectorISF_SaISF_EEEEjNS0_14edge_desc_implINS_12directed_tagEjEEiEENS_14adjacency_listINS_4vecSESQ_NS_9directedSESC_SE_SC_NS_5listSEEEEdeEv(%"class.boost::detail::edge_desc_impl"* sret %ref.tmp85, %"class.boost::detail::adj_list_edge_iterator"* %e51)
          to label %invoke.cont86 unwind label %lpad57

invoke.cont86:                                    ; preds = %invoke.cont82
  %40 = bitcast %"class.boost::detail::edge_desc_impl"* %ref.tmp85 to %"struct.boost::detail::edge_base"*
  %41 = load %"class.boost::adjacency_list"** %g1.addr, align 4
  %call88 = invoke i32 @_ZN5boost6targetINS_12directed_tagEjNS_4vecSES2_NS_9directedSENS_11no_propertyENS_8propertyINS_13edge_weight_tEiNS5_INS_14edge_weight2_tEiS4_EEEES4_NS_5listSEEET0_RKNS_6detail9edge_baseIT_SB_EERKNS_14adjacency_listIT1_T2_T3_T4_T5_T6_T7_EE(%"struct.boost::detail::edge_base"* %40, %"class.boost::adjacency_list"* %41)
          to label %invoke.cont87 unwind label %lpad57

invoke.cont87:                                    ; preds = %invoke.cont86
  store i32 %call88, i32* %ref.tmp89, align 4
  %call91 = invoke i32 @_ZN5boost3getINS_26vec_adj_list_vertex_id_mapINS_11no_propertyEjEEjjEET0_RKNS_14put_get_helperIS4_T_EERKT1_(%"struct.boost::put_get_helper.19"* %39, i32* %ref.tmp89)
          to label %invoke.cont90 unwind label %lpad57

invoke.cont90:                                    ; preds = %invoke.cont87
  %add92 = add i32 %call91, 1
  %42 = bitcast %"class.boost::adjacency_list.20"* %g2 to %"class.boost::vec_adj_list_impl.21"*
  invoke void @_ZN5boost8add_edgeINS_14adjacency_listINS_4vecSES2_NS_9directedSENS_8propertyINS_17vertex_distance_tEiNS_11no_propertyEEENS4_INS_13edge_weight_tEiNS4_INS_14edge_weight2_tEiS6_EEEES6_NS_5listSEEENS_6detail12adj_list_genISD_S2_S2_S3_S7_SB_S6_SC_E6configENS_21directed_graph_helperISH_EEEESt4pairINT0_15edge_descriptorEbENSL_17vertex_descriptorESO_RNS_17vec_adj_list_implIT_SL_T1_EE(%"struct.std::pair.49"* sret %ref.tmp76, i32 %add84, i32 %add92, %"class.boost::vec_adj_list_impl.21"* %42)
          to label %invoke.cont93 unwind label %lpad57

invoke.cont93:                                    ; preds = %invoke.cont90
  %call95 = invoke %"class.boost::tuples::tuple.46"* @_ZN5boost6tuples5tupleIRNS_6detail14edge_desc_implINS_12directed_tagEjEERbNS0_9null_typeES8_S8_S8_S8_S8_S8_S8_EaSIS5_bEERS9_RKSt4pairIT_T0_E(%"class.boost::tuples::tuple.46"* %tmp74, %"struct.std::pair.49"* %ref.tmp76)
          to label %invoke.cont94 unwind label %lpad57

invoke.cont94:                                    ; preds = %invoke.cont93
  %43 = bitcast %"struct.boost::adj_list_edge_property_map"* %w to %"struct.boost::put_get_helper"*
  %44 = bitcast %"class.boost::detail::edge_desc_impl"* %agg.tmp96 to i8*
  %45 = bitcast %"class.boost::detail::edge_desc_impl"* %e2 to i8*
  call void @llvm.memcpy.p0i8.p0i8.i32(i8* %44, i8* %45, i32 12, i32 4, i1 false)
  %46 = bitcast %"struct.boost::adj_list_edge_property_map.17"* %w1 to %"struct.boost::put_get_helper.18"*
  invoke void @_ZNK5boost6detail22adj_list_edge_iteratorINS_12range_detail16integer_iteratorIjEENS0_13out_edge_iterIN9__gnu_cxx17__normal_iteratorIPNS0_20stored_edge_propertyIjNS_8propertyINS_13edge_weight_tEiNS9_INS_14edge_weight2_tEiNS_11no_propertyEEEEEEESt6vectorISF_SaISF_EEEEjNS0_14edge_desc_implINS_12directed_tagEjEEiEENS_14adjacency_listINS_4vecSESQ_NS_9directedSESC_SE_SC_NS_5listSEEEEdeEv(%"class.boost::detail::edge_desc_impl"* sret %ref.tmp97, %"class.boost::detail::adj_list_edge_iterator"* %e51)
          to label %invoke.cont98 unwind label %lpad57

invoke.cont98:                                    ; preds = %invoke.cont94
  %call100 = invoke i32* @_ZN5boost3getINS_26adj_list_edge_property_mapINS_12directed_tagEiRKijKNS_8propertyINS_13edge_weight_tEiNS5_INS_14edge_weight2_tEiNS_11no_propertyEEEEES6_EES4_NS_6detail14edge_desc_implIS2_jEEEET0_RKNS_14put_get_helperISG_T_EERKT1_(%"struct.boost::put_get_helper.18"* %46, %"class.boost::detail::edge_desc_impl"* %ref.tmp97)
          to label %invoke.cont99 unwind label %lpad57

invoke.cont99:                                    ; preds = %invoke.cont98
  invoke void @_ZN5boost3putINS_26adj_list_edge_property_mapINS_12directed_tagEiRijNS_8propertyINS_13edge_weight_tEiNS4_INS_14edge_weight2_tEiNS_11no_propertyEEEEES5_EES3_NS_6detail14edge_desc_implIS2_jEEiEEvRKNS_14put_get_helperIT0_T_EET1_RKT2_(%"struct.boost::put_get_helper"* %43, %"class.boost::detail::edge_desc_impl"* byval align 4 %agg.tmp96, i32* %call100)
          to label %invoke.cont101 unwind label %lpad57

invoke.cont101:                                   ; preds = %invoke.cont99
  %47 = load i8* %is_undirected, align 1
  %tobool = trunc i8 %47 to i1
  br i1 %tobool, label %if.then, label %if.end

if.then:                                          ; preds = %invoke.cont101
  invoke void @_ZN5boost6tuples3tieINS_6detail14edge_desc_implINS_12directed_tagEjEEbEENS0_6detail10tie_mapperIT_T0_vvvvvvvvE4typeERS8_RS9_(%"class.boost::tuples::tuple.46"* sret %tmp102, %"class.boost::detail::edge_desc_impl"* %e2, i8* %z73)
          to label %invoke.cont103 unwind label %lpad57

invoke.cont103:                                   ; preds = %if.then
  %48 = bitcast %"struct.boost::vec_adj_list_vertex_id_map"* %id1 to %"struct.boost::put_get_helper.19"*
  invoke void @_ZNK5boost6detail22adj_list_edge_iteratorINS_12range_detail16integer_iteratorIjEENS0_13out_edge_iterIN9__gnu_cxx17__normal_iteratorIPNS0_20stored_edge_propertyIjNS_8propertyINS_13edge_weight_tEiNS9_INS_14edge_weight2_tEiNS_11no_propertyEEEEEEESt6vectorISF_SaISF_EEEEjNS0_14edge_desc_implINS_12directed_tagEjEEiEENS_14adjacency_listINS_4vecSESQ_NS_9directedSESC_SE_SC_NS_5listSEEEEdeEv(%"class.boost::detail::edge_desc_impl"* sret %ref.tmp105, %"class.boost::detail::adj_list_edge_iterator"* %e51)
          to label %invoke.cont106 unwind label %lpad57

invoke.cont106:                                   ; preds = %invoke.cont103
  %49 = bitcast %"class.boost::detail::edge_desc_impl"* %ref.tmp105 to %"struct.boost::detail::edge_base"*
  %50 = load %"class.boost::adjacency_list"** %g1.addr, align 4
  %call108 = invoke i32 @_ZN5boost6targetINS_12directed_tagEjNS_4vecSES2_NS_9directedSENS_11no_propertyENS_8propertyINS_13edge_weight_tEiNS5_INS_14edge_weight2_tEiS4_EEEES4_NS_5listSEEET0_RKNS_6detail9edge_baseIT_SB_EERKNS_14adjacency_listIT1_T2_T3_T4_T5_T6_T7_EE(%"struct.boost::detail::edge_base"* %49, %"class.boost::adjacency_list"* %50)
          to label %invoke.cont107 unwind label %lpad57

invoke.cont107:                                   ; preds = %invoke.cont106
  store i32 %call108, i32* %ref.tmp109, align 4
