; ModuleID = 'tennis.cpp'
target datalayout = "e-p:32:32:32-i1:8:8-i8:8:8-i16:16:16-i32:32:32-i64:32:64-f32:32:32-f64:32:64-v64:64:64-v128:128:128-a0:0:64-f80:32:32-n8:16:32-S128"
target triple = "i386-pc-linux-gnu"

%"class.std::ios_base::Init" = type { i8 }
%"class.boost::system::error_category" = type { i32 (...)** }
%"struct.boost::arg" = type { i8 }
%"struct.boost::arg.0" = type { i8 }
%"struct.boost::arg.2" = type { i8 }
%"struct.boost::arg.4" = type { i8 }
%"struct.boost::arg.6" = type { i8 }
%"struct.boost::arg.8" = type { i8 }
%"struct.boost::arg.10" = type { i8 }
%"struct.boost::arg.12" = type { i8 }
%"struct.boost::arg.14" = type { i8 }
%"class.boost::mutex" = type { %union.pthread_mutex_t }
%union.pthread_mutex_t = type { %"struct.<anonymous union>::__pthread_mutex_s" }
%"struct.<anonymous union>::__pthread_mutex_s" = type { i32, i32, i32, i32, i32, %union.anon }
%union.anon = type { i32 }
%"class.boost::condition_variable_any" = type { %union.pthread_mutex_t, %union.pthread_cond_t }
%union.pthread_cond_t = type { %struct.anon, [4 x i8] }
%struct.anon = type { i32, i32, i64, i64, i64, i8*, i32, i32 }
%"class.std::basic_ostream" = type { i32 (...)**, %"class.std::basic_ios" }
%"class.std::basic_ios" = type { %"class.std::ios_base", %"class.std::basic_ostream"*, i8, i8, %"class.std::basic_streambuf"*, %"class.std::ctype"*, %"class.std::num_put"*, %"class.std::num_get"* }
%"class.std::ios_base" = type { i32 (...)**, i32, i32, i32, i32, i32, %"struct.std::ios_base::_Callback_list"*, %"struct.std::ios_base::_Words", [8 x %"struct.std::ios_base::_Words"], i32, %"struct.std::ios_base::_Words"*, %"class.std::locale" }
%"struct.std::ios_base::_Callback_list" = type { %"struct.std::ios_base::_Callback_list"*, void (i32, %"class.std::ios_base"*, i32)*, i32, i32 }
%"struct.std::ios_base::_Words" = type { i8*, i32 }
%"class.std::locale" = type { %"class.std::locale::_Impl"* }
%"class.std::locale::_Impl" = type { i32, %"class.std::locale::facet"**, i32, %"class.std::locale::facet"**, i8** }
%"class.std::locale::facet" = type { i32 (...)**, i32 }
%"class.std::basic_streambuf" = type { i32 (...)**, i8*, i8*, i8*, i8*, i8*, i8*, %"class.std::locale" }
%"class.std::ctype" = type { %"class.std::locale::facet", %struct.__locale_struct*, i8, i32*, i32*, i16*, i8, [256 x i8], [256 x i8], i8 }
%struct.__locale_struct = type { [13 x %struct.__locale_data*], i16*, i32*, i32*, [13 x i8*] }
%struct.__locale_data = type opaque
%"class.std::num_put" = type { %"class.std::locale::facet" }
%"class.std::num_get" = type { %"class.std::locale::facet" }
%"class.boost::system::error_condition" = type { i32, %"class.boost::system::error_category"* }
%"class.boost::system::system_error" = type { %"class.std::runtime_error", %"class.boost::system::error_code", %"class.std::basic_string" }
%"class.std::runtime_error" = type { %"class.std::exception", %"class.std::basic_string" }
%"class.std::exception" = type { i32 (...)** }
%"class.std::basic_string" = type { %"struct.std::basic_string<char, std::char_traits<char>, std::allocator<char> >::_Alloc_hider" }
%"struct.std::basic_string<char, std::char_traits<char>, std::allocator<char> >::_Alloc_hider" = type { i8* }
%"class.boost::system::error_code" = type { i32, %"class.boost::system::error_category"* }
%"class.boost::unique_lock" = type { %"class.boost::mutex"*, i8 }
%"class.boost::pthread::pthread_mutex_scoped_lock" = type { %union.pthread_mutex_t*, i8 }
%"struct.boost::thread_cv_detail::lock_on_exit" = type { %"class.boost::unique_lock"* }
%"class.boost::detail::interruption_checker" = type { %"struct.boost::detail::thread_data_base"*, %union.pthread_mutex_t*, i8 }
%"struct.boost::detail::thread_data_base" = type { i32 (...)**, %"class.boost::enable_shared_from_this", %"class.boost::shared_ptr", i32, %"class.boost::mutex", %"class.boost::condition_variable", %"class.boost::mutex", %"class.boost::condition_variable", i8, i8, i8, %"struct.boost::detail::thread_exit_callback_node"*, %"class.std::map", i8, i8, %union.pthread_mutex_t*, %union.pthread_cond_t*, %"class.std::vector" }
%"class.boost::enable_shared_from_this" = type { %"class.boost::weak_ptr" }
%"class.boost::weak_ptr" = type { %"struct.boost::detail::thread_data_base"*, %"class.boost::detail::weak_count" }
%"class.boost::detail::weak_count" = type { %"class.boost::detail::sp_counted_base"* }
%"class.boost::detail::sp_counted_base" = type { i32 (...)**, i32, i32 }
%"class.boost::shared_ptr" = type { %"struct.boost::detail::thread_data_base"*, %"class.boost::detail::shared_count" }
%"class.boost::detail::shared_count" = type { %"class.boost::detail::sp_counted_base"* }
%"class.boost::condition_variable" = type { %union.pthread_mutex_t, %union.pthread_cond_t }
%"struct.boost::detail::thread_exit_callback_node" = type opaque
%"class.std::map" = type { %"class.std::_Rb_tree" }
%"class.std::_Rb_tree" = type { %"struct.std::_Rb_tree<const void *, std::pair<const void *const, boost::detail::tss_data_node>, std::_Select1st<std::pair<const void *const, boost::detail::tss_data_node> >, std::less<const void *>, std::allocator<std::pair<const void *const, boost::detail::tss_data_node> > >::_Rb_tree_impl" }
%"struct.std::_Rb_tree<const void *, std::pair<const void *const, boost::detail::tss_data_node>, std::_Select1st<std::pair<const void *const, boost::detail::tss_data_node> >, std::less<const void *>, std::allocator<std::pair<const void *const, boost::detail::tss_data_node> > >::_Rb_tree_impl" = type { %"struct.std::less", %"struct.std::_Rb_tree_node_base", i32 }
%"struct.std::less" = type { i8 }
%"struct.std::_Rb_tree_node_base" = type { i32, %"struct.std::_Rb_tree_node_base"*, %"struct.std::_Rb_tree_node_base"*, %"struct.std::_Rb_tree_node_base"* }
%"class.std::vector" = type { %"struct.std::_Vector_base" }
%"struct.std::_Vector_base" = type { %"struct.std::_Vector_base<std::pair<boost::condition_variable *, boost::mutex *>, std::allocator<std::pair<boost::condition_variable *, boost::mutex *> > >::_Vector_impl" }
%"struct.std::_Vector_base<std::pair<boost::condition_variable *, boost::mutex *>, std::allocator<std::pair<boost::condition_variable *, boost::mutex *> > >::_Vector_impl" = type { %"struct.std::pair"*, %"struct.std::pair"*, %"struct.std::pair"* }
%"struct.std::pair" = type { %"class.boost::condition_variable"*, %"class.boost::mutex"* }
%"class.boost::condition_error" = type { %"class.boost::system::system_error" }
%"class.boost::thread" = type { %"class.boost::shared_ptr" }
%class.thread_adapter = type { void (i8*)*, i8* }
%"struct.boost::xtime" = type { i64, i32 }
%"class.boost::posix_time::ptime" = type { %"class.boost::date_time::base_time" }
%"class.boost::date_time::base_time" = type { %"struct.boost::date_time::counted_time_rep" }
%"struct.boost::date_time::counted_time_rep" = type { %"class.boost::date_time::int_adapter" }
%"class.boost::date_time::int_adapter" = type { i64 }
%"struct.boost::thread::dummy" = type opaque
%"class.boost::posix_time::seconds" = type { %"class.boost::posix_time::time_duration" }
%"class.boost::posix_time::time_duration" = type { %"class.boost::date_time::time_duration" }
%"class.boost::date_time::time_duration" = type { %"class.boost::date_time::int_adapter" }
%"class.boost::date_time::subsecond_duration" = type { %"class.boost::posix_time::time_duration" }
%"class.boost::detail::thread_data" = type { %"struct.boost::detail::thread_data_base", %class.thread_adapter }
%"struct.std::_Rb_tree_node" = type { %"struct.std::_Rb_tree_node_base", %"struct.std::pair.22" }
%"struct.std::pair.22" = type { i8*, %"struct.boost::detail::tss_data_node" }
%"struct.boost::detail::tss_data_node" = type { %"class.boost::shared_ptr.23", i8* }
%"class.boost::shared_ptr.23" = type { %"struct.boost::detail::tss_cleanup_function"*, %"class.boost::detail::shared_count" }
%"struct.boost::detail::tss_cleanup_function" = type opaque
%"class.std::allocator.16" = type { i8 }
%"class.__gnu_cxx::new_allocator.17" = type { i8 }
%"class.std::allocator.24" = type { i8 }
%"class.__gnu_cxx::new_allocator.25" = type { i8 }
%"class.std::allocator.19" = type { i8 }
%"class.__gnu_cxx::new_allocator.20" = type { i8 }
%"class.boost::thread_resource_error" = type { %"class.boost::thread_exception" }
%"class.boost::thread_exception" = type { %"class.boost::system::system_error" }
%union.pthread_mutexattr_t = type { i32 }
%union.pthread_condattr_t = type { i32 }
%"struct.boost::exception_detail::error_info_injector" = type { %"class.boost::thread_resource_error", %"class.boost::exception" }
%"class.boost::exception" = type { i32 (...)**, %"class.boost::exception_detail::refcount_ptr", i8*, i8*, i32 }
%"class.boost::exception_detail::refcount_ptr" = type { %"struct.boost::exception_detail::error_info_container"* }
%"struct.boost::exception_detail::error_info_container" = type { i32 (...)** }
%"class.boost::exception_detail::clone_impl" = type { %"struct.boost::exception_detail::error_info_injector", %"class.boost::exception_detail::clone_base" }
%"class.boost::exception_detail::clone_base" = type { i32 (...)** }
%"class.std::allocator" = type { i8 }
%"struct.boost::exception_detail::clone_impl<boost::exception_detail::error_info_injector<boost::thread_resource_error> >::clone_tag" = type { i8 }
%"class.boost::detail::sp_counted_impl_p" = type { %"class.boost::detail::sp_counted_base", %"class.boost::detail::thread_data"* }
%"class.std::type_info" = type { i32 (...)**, i8* }
%"struct.boost::exception_detail::error_info_injector.28" = type { %"class.boost::condition_error", %"class.boost::exception" }
%"class.boost::exception_detail::clone_impl.27" = type { %"struct.boost::exception_detail::error_info_injector.28", %"class.boost::exception_detail::clone_base" }
%"struct.boost::exception_detail::clone_impl<boost::exception_detail::error_info_injector<boost::condition_error> >::clone_tag" = type { i8 }
%"class.boost::lock_error" = type { %"class.boost::thread_exception" }
%"struct.boost::exception_detail::error_info_injector.31" = type { %"class.boost::lock_error", %"class.boost::exception" }
%"class.boost::exception_detail::clone_impl.30" = type { %"struct.boost::exception_detail::error_info_injector.31", %"class.boost::exception_detail::clone_base" }
%"struct.boost::exception_detail::clone_impl<boost::exception_detail::error_info_injector<boost::lock_error> >::clone_tag" = type { i8 }
%"class.boost::lock_guard" = type { %"class.boost::mutex"* }
%"class.boost::thread_interrupted" = type { i8 }
%"class.boost::noncopyable_::noncopyable" = type { i8 }
%"class.boost::gregorian::date" = type { %"class.boost::date_time::date" }
%"class.boost::date_time::date" = type { i32 }
%"class.boost::gregorian::greg_year" = type { %"class.boost::CV::constrained_value" }
%"class.boost::CV::constrained_value" = type { i16 }
%"class.boost::gregorian::greg_month" = type { %"class.boost::CV::constrained_value.43" }
%"class.boost::CV::constrained_value.43" = type { i16 }
%"class.boost::gregorian::greg_day" = type { %"class.boost::CV::constrained_value.44" }
%"class.boost::CV::constrained_value.44" = type { i16 }
%"struct.boost::less_than_comparable.33" = type { i8 }
%"struct.boost::less_than_comparable" = type { i8 }
%"struct.boost::gregorian::bad_day_of_month" = type { %"class.std::out_of_range" }
%"class.std::out_of_range" = type { %"class.std::logic_error" }
%"class.std::logic_error" = type { %"class.std::exception", %"class.std::basic_string" }
%"struct.boost::exception_detail::error_info_injector.46" = type { %"struct.boost::gregorian::bad_day_of_month", %"class.boost::exception" }
%"class.boost::exception_detail::clone_impl.45" = type { %"struct.boost::exception_detail::error_info_injector.46", %"class.boost::exception_detail::clone_base" }
%"struct.boost::exception_detail::clone_impl<boost::exception_detail::error_info_injector<boost::gregorian::bad_day_of_month> >::clone_tag" = type { i8 }
%"struct.boost::gregorian::bad_month" = type { %"class.std::out_of_range" }
%"struct.boost::exception_detail::error_info_injector.49" = type { %"struct.boost::gregorian::bad_month", %"class.boost::exception" }
%"class.boost::exception_detail::clone_impl.48" = type { %"struct.boost::exception_detail::error_info_injector.49", %"class.boost::exception_detail::clone_base" }
%"struct.boost::exception_detail::clone_impl<boost::exception_detail::error_info_injector<boost::gregorian::bad_month> >::clone_tag" = type { i8 }
%"struct.boost::gregorian::bad_year" = type { %"class.std::out_of_range" }
%"struct.boost::exception_detail::error_info_injector.52" = type { %"struct.boost::gregorian::bad_year", %"class.boost::exception" }
%"class.boost::exception_detail::clone_impl.51" = type { %"struct.boost::exception_detail::error_info_injector.52", %"class.boost::exception_detail::clone_base" }
%"struct.boost::exception_detail::clone_impl<boost::exception_detail::error_info_injector<boost::gregorian::bad_year> >::clone_tag" = type { i8 }
%"struct.boost::date_time::year_month_day_base" = type { %"class.boost::gregorian::greg_year", %"class.boost::gregorian::greg_month", %"class.boost::gregorian::greg_day" }
%"struct.boost::less_than_comparable.38" = type { i8 }
%"class.boost::date_time::int_adapter.54" = type { i32 }
%struct.tm = type { i32, i32, i32, i32, i32, i32, i32, i32, i32, i32, i8* }
%struct.timeval = type { i32, i32 }
%struct.timezone = type { i32, i32 }
%"struct.boost::exception_detail::error_info_injector.56" = type { %"class.std::runtime_error", %"class.boost::exception" }
%"class.boost::exception_detail::clone_impl.55" = type { %"struct.boost::exception_detail::error_info_injector.56", %"class.boost::exception_detail::clone_base" }
%"struct.boost::exception_detail::clone_impl<boost::exception_detail::error_info_injector<std::runtime_error> >::clone_tag" = type { i8 }

@_ZStL8__ioinit = internal global %"class.std::ios_base::Init" zeroinitializer, align 1
@__dso_handle = external unnamed_addr global i8
@_ZN5boost6systemL14posix_categoryE = internal global %"class.boost::system::error_category"* null, align 4
@_ZN5boost6systemL10errno_ecatE = internal global %"class.boost::system::error_category"* null, align 4
@_ZN5boost6systemL11native_ecatE = internal global %"class.boost::system::error_category"* null, align 4
@.str = private unnamed_addr constant [3 x i8] c": \00", align 1
@_ZN12_GLOBAL__N_12_1E = internal global %"struct.boost::arg" zeroinitializer, align 1
@_ZN12_GLOBAL__N_12_2E = internal global %"struct.boost::arg.0" zeroinitializer, align 1
@_ZN12_GLOBAL__N_12_3E = internal global %"struct.boost::arg.2" zeroinitializer, align 1
@_ZN12_GLOBAL__N_12_4E = internal global %"struct.boost::arg.4" zeroinitializer, align 1
@_ZN12_GLOBAL__N_12_5E = internal global %"struct.boost::arg.6" zeroinitializer, align 1
@_ZN12_GLOBAL__N_12_6E = internal global %"struct.boost::arg.8" zeroinitializer, align 1
@_ZN12_GLOBAL__N_12_7E = internal global %"struct.boost::arg.10" zeroinitializer, align 1
@_ZN12_GLOBAL__N_12_8E = internal global %"struct.boost::arg.12" zeroinitializer, align 1
@_ZN12_GLOBAL__N_12_9E = internal global %"struct.boost::arg.14" zeroinitializer, align 1
@state = global i32 0, align 4
@mutex = global %"class.boost::mutex" zeroinitializer, align 4
@cond = global %"class.boost::condition_variable_any" zeroinitializer, align 4
@.str15 = private unnamed_addr constant [9 x i8] c"PLAYER-A\00", align 1
@.str16 = private unnamed_addr constant [9 x i8] c"PLAYER-B\00", align 1
@.str17 = private unnamed_addr constant [11 x i8] c"bad player\00", align 1
@_ZTIPKc = external constant i8*
@_ZSt4cout = external global %"class.std::basic_ostream"
@.str18 = private unnamed_addr constant [8 x i8] c": Play.\00", align 1
@.str19 = private unnamed_addr constant [4 x i8] c"---\00", align 1
@.str20 = private unnamed_addr constant [19 x i8] c": Spurious wakeup!\00", align 1
@.str21 = private unnamed_addr constant [8 x i8] c": Gone.\00", align 1
@.str22 = private unnamed_addr constant [15 x i8] c"---Noise ON...\00", align 1
@.str23 = private unnamed_addr constant [16 x i8] c"---Noise OFF...\00", align 1
@.str24 = private unnamed_addr constant [10 x i8] c"GAME OVER\00", align 1
@_ZTVN5boost6system14error_categoryE = linkonce_odr unnamed_addr constant [9 x i8*] [i8* null, i8* bitcast ({ i8*, i8*, i8* }* @_ZTIN5boost6system14error_categoryE to i8*), i8* bitcast (void (%"class.boost::system::error_category"*)* @_ZN5boost6system14error_categoryD1Ev to i8*), i8* bitcast (void (%"class.boost::system::error_category"*)* @_ZN5boost6system14error_categoryD0Ev to i8*), i8* bitcast (void ()* @__cxa_pure_virtual to i8*), i8* bitcast (void ()* @__cxa_pure_virtual to i8*), i8* bitcast (void (%"class.boost::system::error_condition"*, %"class.boost::system::error_category"*, i32)* @_ZNK5boost6system14error_category23default_error_conditionEi to i8*), i8* bitcast (i1 (%"class.boost::system::error_category"*, i32, %"class.boost::system::error_condition"*)* @_ZNK5boost6system14error_category10equivalentEiRKNS0_15error_conditionE to i8*), i8* bitcast (i1 (%"class.boost::system::error_category"*, %"class.boost::system::error_code"*, i32)* @_ZNK5boost6system14error_category10equivalentERKNS0_10error_codeEi to i8*)]
@_ZTVN10__cxxabiv120__si_class_type_infoE = external global i8*
@_ZTSN5boost6system14error_categoryE = linkonce_odr constant [32 x i8] c"N5boost6system14error_categoryE\00"
@_ZTVN10__cxxabiv117__class_type_infoE = external global i8*
@_ZTSN5boost12noncopyable_11noncopyableE = linkonce_odr constant [36 x i8] c"N5boost12noncopyable_11noncopyableE\00"
@_ZTIN5boost12noncopyable_11noncopyableE = linkonce_odr unnamed_addr constant { i8*, i8* } { i8* bitcast (i8** getelementptr inbounds (i8** @_ZTVN10__cxxabiv117__class_type_infoE, i32 2) to i8*), i8* getelementptr inbounds ([36 x i8]* @_ZTSN5boost12noncopyable_11noncopyableE, i32 0, i32 0) }
@_ZTIN5boost6system14error_categoryE = linkonce_odr unnamed_addr constant { i8*, i8*, i8* } { i8* bitcast (i8** getelementptr inbounds (i8** @_ZTVN10__cxxabiv120__si_class_type_infoE, i32 2) to i8*), i8* getelementptr inbounds ([32 x i8]* @_ZTSN5boost6system14error_categoryE, i32 0, i32 0), i8* bitcast ({ i8*, i8* }* @_ZTIN5boost12noncopyable_11noncopyableE to i8*) }
@_ZTVN5boost6system12system_errorE = linkonce_odr unnamed_addr constant [5 x i8*] [i8* null, i8* bitcast ({ i8*, i8*, i8* }* @_ZTIN5boost6system12system_errorE to i8*), i8* bitcast (void (%"class.boost::system::system_error"*)* @_ZN5boost6system12system_errorD1Ev to i8*), i8* bitcast (void (%"class.boost::system::system_error"*)* @_ZN5boost6system12system_errorD0Ev to i8*), i8* bitcast (i8* (%"class.boost::system::system_error"*)* @_ZNK5boost6system12system_error4whatEv to i8*)]
@_ZTSN5boost6system12system_errorE = linkonce_odr constant [30 x i8] c"N5boost6system12system_errorE\00"
@_ZTISt13runtime_error = external constant i8*
@_ZTIN5boost6system12system_errorE = linkonce_odr unnamed_addr constant { i8*, i8*, i8* } { i8* bitcast (i8** getelementptr inbounds (i8** @_ZTVN10__cxxabiv120__si_class_type_infoE, i32 2) to i8*), i8* getelementptr inbounds ([30 x i8]* @_ZTSN5boost6system12system_errorE, i32 0, i32 0), i8* bitcast (i8** @_ZTISt13runtime_error to i8*) }
@_ZTVN5boost6detail11thread_dataI14thread_adapterEE = linkonce_odr unnamed_addr constant [5 x i8*] [i8* null, i8* bitcast ({ i8*, i8*, i8* }* @_ZTIN5boost6detail11thread_dataI14thread_adapterEE to i8*), i8* bitcast (void (%"class.boost::detail::thread_data"*)* @_ZN5boost6detail11thread_dataI14thread_adapterED1Ev to i8*), i8* bitcast (void (%"class.boost::detail::thread_data"*)* @_ZN5boost6detail11thread_dataI14thread_adapterED0Ev to i8*), i8* bitcast (void (%"class.boost::detail::thread_data"*)* @_ZN5boost6detail11thread_dataI14thread_adapterE3runEv to i8*)]
@_ZTSN5boost6detail11thread_dataI14thread_adapterEE = linkonce_odr constant [47 x i8] c"N5boost6detail11thread_dataI14thread_adapterEE\00"
@_ZTIN5boost6detail16thread_data_baseE = external constant i8*
@_ZTIN5boost6detail11thread_dataI14thread_adapterEE = linkonce_odr unnamed_addr constant { i8*, i8*, i8* } { i8* bitcast (i8** getelementptr inbounds (i8** @_ZTVN10__cxxabiv120__si_class_type_infoE, i32 2) to i8*), i8* getelementptr inbounds ([47 x i8]* @_ZTSN5boost6detail11thread_dataI14thread_adapterEE, i32 0, i32 0), i8* bitcast (i8** @_ZTIN5boost6detail16thread_data_baseE to i8*) }
@_ZTVN5boost6detail16thread_data_baseE = external unnamed_addr constant [5 x i8*]
@.str25 = private unnamed_addr constant [40 x i8] c"!pthread_mutex_destroy(&internal_mutex)\00", align 1
@.str26 = private unnamed_addr constant [74 x i8] c"/home/thomas/boost_1_52_0/boost/thread/pthread/condition_variable_fwd.hpp\00", align 1
@__PRETTY_FUNCTION__._ZN5boost18condition_variableD2Ev = private unnamed_addr constant [49 x i8] c"boost::condition_variable::~condition_variable()\00", align 1
@.str27 = private unnamed_addr constant [5 x i8] c"!ret\00", align 1
@.str28 = private unnamed_addr constant [68 x i8] c"boost:: condition_variable constructor failed in pthread_mutex_init\00", align 1
@__PRETTY_FUNCTION__._ZN5boost18condition_variableC2Ev = private unnamed_addr constant [48 x i8] c"boost::condition_variable::condition_variable()\00", align 1
@.str29 = private unnamed_addr constant [67 x i8] c"boost:: condition_variable constructor failed in pthread_cond_init\00", align 1
@_ZTVN5boost21thread_resource_errorE = linkonce_odr unnamed_addr constant [5 x i8*] [i8* null, i8* bitcast ({ i8*, i8*, i8* }* @_ZTIN5boost21thread_resource_errorE to i8*), i8* bitcast (void (%"class.boost::thread_resource_error"*)* @_ZN5boost21thread_resource_errorD1Ev to i8*), i8* bitcast (void (%"class.boost::thread_resource_error"*)* @_ZN5boost21thread_resource_errorD0Ev to i8*), i8* bitcast (i8* (%"class.boost::system::system_error"*)* @_ZNK5boost6system12system_error4whatEv to i8*)]
@_ZTSN5boost21thread_resource_errorE = linkonce_odr constant [32 x i8] c"N5boost21thread_resource_errorE\00"
@_ZTSN5boost16thread_exceptionE = linkonce_odr constant [27 x i8] c"N5boost16thread_exceptionE\00"
@_ZTIN5boost16thread_exceptionE = linkonce_odr unnamed_addr constant { i8*, i8*, i8* } { i8* bitcast (i8** getelementptr inbounds (i8** @_ZTVN10__cxxabiv120__si_class_type_infoE, i32 2) to i8*), i8* getelementptr inbounds ([27 x i8]* @_ZTSN5boost16thread_exceptionE, i32 0, i32 0), i8* bitcast ({ i8*, i8*, i8* }* @_ZTIN5boost6system12system_errorE to i8*) }
@_ZTIN5boost21thread_resource_errorE = linkonce_odr unnamed_addr constant { i8*, i8*, i8* } { i8* bitcast (i8** getelementptr inbounds (i8** @_ZTVN10__cxxabiv120__si_class_type_infoE, i32 2) to i8*), i8* getelementptr inbounds ([32 x i8]* @_ZTSN5boost21thread_resource_errorE, i32 0, i32 0), i8* bitcast ({ i8*, i8*, i8* }* @_ZTIN5boost16thread_exceptionE to i8*) }
@_ZTVN5boost16thread_exceptionE = linkonce_odr unnamed_addr constant [5 x i8*] [i8* null, i8* bitcast ({ i8*, i8*, i8* }* @_ZTIN5boost16thread_exceptionE to i8*), i8* bitcast (void (%"class.boost::thread_exception"*)* @_ZN5boost16thread_exceptionD1Ev to i8*), i8* bitcast (void (%"class.boost::thread_exception"*)* @_ZN5boost16thread_exceptionD0Ev to i8*), i8* bitcast (i8* (%"class.boost::system::system_error"*)* @_ZNK5boost6system12system_error4whatEv to i8*)]
@_ZTVN10__cxxabiv121__vmi_class_type_infoE = external global i8*
@_ZTSN5boost16exception_detail10clone_implINS0_19error_info_injectorINS_21thread_resource_errorEEEEE = linkonce_odr constant [96 x i8] c"N5boost16exception_detail10clone_implINS0_19error_info_injectorINS_21thread_resource_errorEEEEE\00"
@_ZTSN5boost16exception_detail19error_info_injectorINS_21thread_resource_errorEEE = linkonce_odr constant [77 x i8] c"N5boost16exception_detail19error_info_injectorINS_21thread_resource_errorEEE\00"
@_ZTSN5boost9exceptionE = linkonce_odr constant [19 x i8] c"N5boost9exceptionE\00"
@_ZTIN5boost9exceptionE = linkonce_odr unnamed_addr constant { i8*, i8* } { i8* bitcast (i8** getelementptr inbounds (i8** @_ZTVN10__cxxabiv117__class_type_infoE, i32 2) to i8*), i8* getelementptr inbounds ([19 x i8]* @_ZTSN5boost9exceptionE, i32 0, i32 0) }
@_ZTIN5boost16exception_detail19error_info_injectorINS_21thread_resource_errorEEE = linkonce_odr unnamed_addr constant { i8*, i8*, i32, i32, i8*, i32, i8*, i32 } { i8* bitcast (i8** getelementptr inbounds (i8** @_ZTVN10__cxxabiv121__vmi_class_type_infoE, i32 2) to i8*), i8* getelementptr inbounds ([77 x i8]* @_ZTSN5boost16exception_detail19error_info_injectorINS_21thread_resource_errorEEE, i32 0, i32 0), i32 0, i32 2, i8* bitcast ({ i8*, i8*, i8* }* @_ZTIN5boost21thread_resource_errorE to i8*), i32 2, i8* bitcast ({ i8*, i8* }* @_ZTIN5boost9exceptionE to i8*), i32 5122 }
@_ZTSN5boost16exception_detail10clone_baseE = linkonce_odr constant [39 x i8] c"N5boost16exception_detail10clone_baseE\00"
@_ZTIN5boost16exception_detail10clone_baseE = linkonce_odr unnamed_addr constant { i8*, i8* } { i8* bitcast (i8** getelementptr inbounds (i8** @_ZTVN10__cxxabiv117__class_type_infoE, i32 2) to i8*), i8* getelementptr inbounds ([39 x i8]* @_ZTSN5boost16exception_detail10clone_baseE, i32 0, i32 0) }
@_ZTIN5boost16exception_detail10clone_implINS0_19error_info_injectorINS_21thread_resource_errorEEEEE = linkonce_odr unnamed_addr constant { i8*, i8*, i32, i32, i8*, i32, i8*, i32 } { i8* bitcast (i8** getelementptr inbounds (i8** @_ZTVN10__cxxabiv121__vmi_class_type_infoE, i32 2) to i8*), i8* getelementptr inbounds ([96 x i8]* @_ZTSN5boost16exception_detail10clone_implINS0_19error_info_injectorINS_21thread_resource_errorEEEEE, i32 0, i32 0), i32 0, i32 2, i8* bitcast ({ i8*, i8*, i32, i32, i8*, i32, i8*, i32 }* @_ZTIN5boost16exception_detail19error_info_injectorINS_21thread_resource_errorEEE to i8*), i32 2, i8* bitcast ({ i8*, i8* }* @_ZTIN5boost16exception_detail10clone_baseE to i8*), i32 -3069 }
@_ZTVN5boost9exceptionE = linkonce_odr unnamed_addr constant [4 x i8*] [i8* null, i8* bitcast ({ i8*, i8* }* @_ZTIN5boost9exceptionE to i8*), i8* bitcast (void ()* @__cxa_pure_virtual to i8*), i8* bitcast (void ()* @__cxa_pure_virtual to i8*)]
@_ZTVN5boost16exception_detail10clone_implINS0_19error_info_injectorINS_21thread_resource_errorEEEEE = linkonce_odr unnamed_addr constant [21 x i8*] [i8* inttoptr (i32 40 to i8*), i8* null, i8* bitcast ({ i8*, i8*, i32, i32, i8*, i32, i8*, i32 }* @_ZTIN5boost16exception_detail10clone_implINS0_19error_info_injectorINS_21thread_resource_errorEEEEE to i8*), i8* bitcast (void (%"class.boost::exception_detail::clone_impl"*)* @_ZN5boost16exception_detail10clone_implINS0_19error_info_injectorINS_21thread_resource_errorEEEED1Ev to i8*), i8* bitcast (void (%"class.boost::exception_detail::clone_impl"*)* @_ZN5boost16exception_detail10clone_implINS0_19error_info_injectorINS_21thread_resource_errorEEEED0Ev to i8*), i8* bitcast (i8* (%"class.boost::system::system_error"*)* @_ZNK5boost6system12system_error4whatEv to i8*), i8* bitcast (%"class.boost::exception_detail::clone_base"* (%"class.boost::exception_detail::clone_impl"*)* @_ZNK5boost16exception_detail10clone_implINS0_19error_info_injectorINS_21thread_resource_errorEEEE5cloneEv to i8*), i8* bitcast (void (%"class.boost::exception_detail::clone_impl"*)* @_ZNK5boost16exception_detail10clone_implINS0_19error_info_injectorINS_21thread_resource_errorEEEE7rethrowEv to i8*), i8* inttoptr (i32 -20 to i8*), i8* bitcast ({ i8*, i8*, i32, i32, i8*, i32, i8*, i32 }* @_ZTIN5boost16exception_detail10clone_implINS0_19error_info_injectorINS_21thread_resource_errorEEEEE to i8*), i8* bitcast (void (%"class.boost::exception_detail::clone_impl"*)* @_ZThn20_N5boost16exception_detail10clone_implINS0_19error_info_injectorINS_21thread_resource_errorEEEED1Ev to i8*), i8* bitcast (void (%"class.boost::exception_detail::clone_impl"*)* @_ZThn20_N5boost16exception_detail10clone_implINS0_19error_info_injectorINS_21thread_resource_errorEEEED0Ev to i8*), i8* inttoptr (i32 -40 to i8*), i8* inttoptr (i32 -40 to i8*), i8* inttoptr (i32 -40 to i8*), i8* inttoptr (i32 -40 to i8*), i8* bitcast ({ i8*, i8*, i32, i32, i8*, i32, i8*, i32 }* @_ZTIN5boost16exception_detail10clone_implINS0_19error_info_injectorINS_21thread_resource_errorEEEEE to i8*), i8* bitcast (%"class.boost::exception_detail::clone_base"* (%"class.boost::exception_detail::clone_impl"*)* @_ZTv0_n12_NK5boost16exception_detail10clone_implINS0_19error_info_injectorINS_21thread_resource_errorEEEE5cloneEv to i8*), i8* bitcast (void (%"class.boost::exception_detail::clone_impl"*)* @_ZTv0_n16_NK5boost16exception_detail10clone_implINS0_19error_info_injectorINS_21thread_resource_errorEEEE7rethrowEv to i8*), i8* bitcast (void (%"class.boost::exception_detail::clone_impl"*)* @_ZTv0_n20_N5boost16exception_detail10clone_implINS0_19error_info_injectorINS_21thread_resource_errorEEEED1Ev to i8*), i8* bitcast (void (%"class.boost::exception_detail::clone_impl"*)* @_ZTv0_n20_N5boost16exception_detail10clone_implINS0_19error_info_injectorINS_21thread_resource_errorEEEED0Ev to i8*)]
@_ZTTN5boost16exception_detail10clone_implINS0_19error_info_injectorINS_21thread_resource_errorEEEEE = linkonce_odr unnamed_addr constant [2 x i8*] [i8* bitcast (i8** getelementptr inbounds ([21 x i8*]* @_ZTVN5boost16exception_detail10clone_implINS0_19error_info_injectorINS_21thread_resource_errorEEEEE, i64 0, i64 3) to i8*), i8* bitcast (i8** getelementptr inbounds ([21 x i8*]* @_ZTVN5boost16exception_detail10clone_implINS0_19error_info_injectorINS_21thread_resource_errorEEEEE, i64 0, i64 17) to i8*)]
@_ZTVN5boost16exception_detail19error_info_injectorINS_21thread_resource_errorEEE = linkonce_odr unnamed_addr constant [9 x i8*] [i8* null, i8* bitcast ({ i8*, i8*, i32, i32, i8*, i32, i8*, i32 }* @_ZTIN5boost16exception_detail19error_info_injectorINS_21thread_resource_errorEEE to i8*), i8* bitcast (void (%"struct.boost::exception_detail::error_info_injector"*)* @_ZN5boost16exception_detail19error_info_injectorINS_21thread_resource_errorEED1Ev to i8*), i8* bitcast (void (%"struct.boost::exception_detail::error_info_injector"*)* @_ZN5boost16exception_detail19error_info_injectorINS_21thread_resource_errorEED0Ev to i8*), i8* bitcast (i8* (%"class.boost::system::system_error"*)* @_ZNK5boost6system12system_error4whatEv to i8*), i8* inttoptr (i32 -20 to i8*), i8* bitcast ({ i8*, i8*, i32, i32, i8*, i32, i8*, i32 }* @_ZTIN5boost16exception_detail19error_info_injectorINS_21thread_resource_errorEEE to i8*), i8* bitcast (void (%"struct.boost::exception_detail::error_info_injector"*)* @_ZThn20_N5boost16exception_detail19error_info_injectorINS_21thread_resource_errorEED1Ev to i8*), i8* bitcast (void (%"struct.boost::exception_detail::error_info_injector"*)* @_ZThn20_N5boost16exception_detail19error_info_injectorINS_21thread_resource_errorEED0Ev to i8*)]
@_ZTVSt13runtime_error = external unnamed_addr constant [5 x i8*]
@_ZTVSt9exception = external unnamed_addr constant [5 x i8*]
@_ZTVN5boost16exception_detail10clone_baseE = linkonce_odr unnamed_addr constant [6 x i8*] [i8* null, i8* bitcast ({ i8*, i8* }* @_ZTIN5boost16exception_detail10clone_baseE to i8*), i8* bitcast (void ()* @__cxa_pure_virtual to i8*), i8* bitcast (void ()* @__cxa_pure_virtual to i8*), i8* bitcast (void (%"class.boost::exception_detail::clone_base"*)* @_ZN5boost16exception_detail10clone_baseD1Ev to i8*), i8* bitcast (void (%"class.boost::exception_detail::clone_base"*)* @_ZN5boost16exception_detail10clone_baseD0Ev to i8*)]
@_ZTVN5boost6detail17sp_counted_impl_pINS0_11thread_dataI14thread_adapterEEEE = linkonce_odr unnamed_addr constant [7 x i8*] [i8* null, i8* bitcast ({ i8*, i8*, i8* }* @_ZTIN5boost6detail17sp_counted_impl_pINS0_11thread_dataI14thread_adapterEEEE to i8*), i8* bitcast (void (%"class.boost::detail::sp_counted_impl_p"*)* @_ZN5boost6detail17sp_counted_impl_pINS0_11thread_dataI14thread_adapterEEED1Ev to i8*), i8* bitcast (void (%"class.boost::detail::sp_counted_impl_p"*)* @_ZN5boost6detail17sp_counted_impl_pINS0_11thread_dataI14thread_adapterEEED0Ev to i8*), i8* bitcast (void (%"class.boost::detail::sp_counted_impl_p"*)* @_ZN5boost6detail17sp_counted_impl_pINS0_11thread_dataI14thread_adapterEEE7disposeEv to i8*), i8* bitcast (void (%"class.boost::detail::sp_counted_base"*)* @_ZN5boost6detail15sp_counted_base7destroyEv to i8*), i8* bitcast (i8* (%"class.boost::detail::sp_counted_impl_p"*, %"class.std::type_info"*)* @_ZN5boost6detail17sp_counted_impl_pINS0_11thread_dataI14thread_adapterEEE11get_deleterERKSt9type_info to i8*)]
@_ZTSN5boost6detail17sp_counted_impl_pINS0_11thread_dataI14thread_adapterEEEE = linkonce_odr constant [73 x i8] c"N5boost6detail17sp_counted_impl_pINS0_11thread_dataI14thread_adapterEEEE\00"
@_ZTSN5boost6detail15sp_counted_baseE = linkonce_odr constant [33 x i8] c"N5boost6detail15sp_counted_baseE\00"
@_ZTIN5boost6detail15sp_counted_baseE = linkonce_odr unnamed_addr constant { i8*, i8* } { i8* bitcast (i8** getelementptr inbounds (i8** @_ZTVN10__cxxabiv117__class_type_infoE, i32 2) to i8*), i8* getelementptr inbounds ([33 x i8]* @_ZTSN5boost6detail15sp_counted_baseE, i32 0, i32 0) }
@_ZTIN5boost6detail17sp_counted_impl_pINS0_11thread_dataI14thread_adapterEEEE = linkonce_odr unnamed_addr constant { i8*, i8*, i8* } { i8* bitcast (i8** getelementptr inbounds (i8** @_ZTVN10__cxxabiv120__si_class_type_infoE, i32 2) to i8*), i8* getelementptr inbounds ([73 x i8]* @_ZTSN5boost6detail17sp_counted_impl_pINS0_11thread_dataI14thread_adapterEEEE, i32 0, i32 0), i8* bitcast ({ i8*, i8* }* @_ZTIN5boost6detail15sp_counted_baseE to i8*) }
@_ZTVN5boost6detail15sp_counted_baseE = linkonce_odr unnamed_addr constant [7 x i8*] [i8* null, i8* bitcast ({ i8*, i8* }* @_ZTIN5boost6detail15sp_counted_baseE to i8*), i8* bitcast (void (%"class.boost::detail::sp_counted_base"*)* @_ZN5boost6detail15sp_counted_baseD1Ev to i8*), i8* bitcast (void (%"class.boost::detail::sp_counted_base"*)* @_ZN5boost6detail15sp_counted_baseD0Ev to i8*), i8* bitcast (void ()* @__cxa_pure_virtual to i8*), i8* bitcast (void (%"class.boost::detail::sp_counted_base"*)* @_ZN5boost6detail15sp_counted_base7destroyEv to i8*), i8* bitcast (void ()* @__cxa_pure_virtual to i8*)]
@.str30 = private unnamed_addr constant [51 x i8] c"condition_variable_any failed in pthread_cond_wait\00", align 1
@_ZTVN5boost15condition_errorE = linkonce_odr unnamed_addr constant [5 x i8*] [i8* null, i8* bitcast ({ i8*, i8*, i8* }* @_ZTIN5boost15condition_errorE to i8*), i8* bitcast (void (%"class.boost::condition_error"*)* @_ZN5boost15condition_errorD1Ev to i8*), i8* bitcast (void (%"class.boost::condition_error"*)* @_ZN5boost15condition_errorD0Ev to i8*), i8* bitcast (i8* (%"class.boost::system::system_error"*)* @_ZNK5boost6system12system_error4whatEv to i8*)]
@_ZTSN5boost15condition_errorE = linkonce_odr constant [26 x i8] c"N5boost15condition_errorE\00"
@_ZTIN5boost15condition_errorE = linkonce_odr unnamed_addr constant { i8*, i8*, i8* } { i8* bitcast (i8** getelementptr inbounds (i8** @_ZTVN10__cxxabiv120__si_class_type_infoE, i32 2) to i8*), i8* getelementptr inbounds ([26 x i8]* @_ZTSN5boost15condition_errorE, i32 0, i32 0), i8* bitcast ({ i8*, i8*, i8* }* @_ZTIN5boost6system12system_errorE to i8*) }
@_ZTSN5boost16exception_detail10clone_implINS0_19error_info_injectorINS_15condition_errorEEEEE = linkonce_odr constant [90 x i8] c"N5boost16exception_detail10clone_implINS0_19error_info_injectorINS_15condition_errorEEEEE\00"
@_ZTSN5boost16exception_detail19error_info_injectorINS_15condition_errorEEE = linkonce_odr constant [71 x i8] c"N5boost16exception_detail19error_info_injectorINS_15condition_errorEEE\00"
@_ZTIN5boost16exception_detail19error_info_injectorINS_15condition_errorEEE = linkonce_odr unnamed_addr constant { i8*, i8*, i32, i32, i8*, i32, i8*, i32 } { i8* bitcast (i8** getelementptr inbounds (i8** @_ZTVN10__cxxabiv121__vmi_class_type_infoE, i32 2) to i8*), i8* getelementptr inbounds ([71 x i8]* @_ZTSN5boost16exception_detail19error_info_injectorINS_15condition_errorEEE, i32 0, i32 0), i32 0, i32 2, i8* bitcast ({ i8*, i8*, i8* }* @_ZTIN5boost15condition_errorE to i8*), i32 2, i8* bitcast ({ i8*, i8* }* @_ZTIN5boost9exceptionE to i8*), i32 5122 }
@_ZTIN5boost16exception_detail10clone_implINS0_19error_info_injectorINS_15condition_errorEEEEE = linkonce_odr unnamed_addr constant { i8*, i8*, i32, i32, i8*, i32, i8*, i32 } { i8* bitcast (i8** getelementptr inbounds (i8** @_ZTVN10__cxxabiv121__vmi_class_type_infoE, i32 2) to i8*), i8* getelementptr inbounds ([90 x i8]* @_ZTSN5boost16exception_detail10clone_implINS0_19error_info_injectorINS_15condition_errorEEEEE, i32 0, i32 0), i32 0, i32 2, i8* bitcast ({ i8*, i8*, i32, i32, i8*, i32, i8*, i32 }* @_ZTIN5boost16exception_detail19error_info_injectorINS_15condition_errorEEE to i8*), i32 2, i8* bitcast ({ i8*, i8* }* @_ZTIN5boost16exception_detail10clone_baseE to i8*), i32 -3069 }
@_ZTVN5boost16exception_detail10clone_implINS0_19error_info_injectorINS_15condition_errorEEEEE = linkonce_odr unnamed_addr constant [21 x i8*] [i8* inttoptr (i32 40 to i8*), i8* null, i8* bitcast ({ i8*, i8*, i32, i32, i8*, i32, i8*, i32 }* @_ZTIN5boost16exception_detail10clone_implINS0_19error_info_injectorINS_15condition_errorEEEEE to i8*), i8* bitcast (void (%"class.boost::exception_detail::clone_impl.27"*)* @_ZN5boost16exception_detail10clone_implINS0_19error_info_injectorINS_15condition_errorEEEED1Ev to i8*), i8* bitcast (void (%"class.boost::exception_detail::clone_impl.27"*)* @_ZN5boost16exception_detail10clone_implINS0_19error_info_injectorINS_15condition_errorEEEED0Ev to i8*), i8* bitcast (i8* (%"class.boost::system::system_error"*)* @_ZNK5boost6system12system_error4whatEv to i8*), i8* bitcast (%"class.boost::exception_detail::clone_base"* (%"class.boost::exception_detail::clone_impl.27"*)* @_ZNK5boost16exception_detail10clone_implINS0_19error_info_injectorINS_15condition_errorEEEE5cloneEv to i8*), i8* bitcast (void (%"class.boost::exception_detail::clone_impl.27"*)* @_ZNK5boost16exception_detail10clone_implINS0_19error_info_injectorINS_15condition_errorEEEE7rethrowEv to i8*), i8* inttoptr (i32 -20 to i8*), i8* bitcast ({ i8*, i8*, i32, i32, i8*, i32, i8*, i32 }* @_ZTIN5boost16exception_detail10clone_implINS0_19error_info_injectorINS_15condition_errorEEEEE to i8*), i8* bitcast (void (%"class.boost::exception_detail::clone_impl.27"*)* @_ZThn20_N5boost16exception_detail10clone_implINS0_19error_info_injectorINS_15condition_errorEEEED1Ev to i8*), i8* bitcast (void (%"class.boost::exception_detail::clone_impl.27"*)* @_ZThn20_N5boost16exception_detail10clone_implINS0_19error_info_injectorINS_15condition_errorEEEED0Ev to i8*), i8* inttoptr (i32 -40 to i8*), i8* inttoptr (i32 -40 to i8*), i8* inttoptr (i32 -40 to i8*), i8* inttoptr (i32 -40 to i8*), i8* bitcast ({ i8*, i8*, i32, i32, i8*, i32, i8*, i32 }* @_ZTIN5boost16exception_detail10clone_implINS0_19error_info_injectorINS_15condition_errorEEEEE to i8*), i8* bitcast (%"class.boost::exception_detail::clone_base"* (%"class.boost::exception_detail::clone_impl.27"*)* @_ZTv0_n12_NK5boost16exception_detail10clone_implINS0_19error_info_injectorINS_15condition_errorEEEE5cloneEv to i8*), i8* bitcast (void (%"class.boost::exception_detail::clone_impl.27"*)* @_ZTv0_n16_NK5boost16exception_detail10clone_implINS0_19error_info_injectorINS_15condition_errorEEEE7rethrowEv to i8*), i8* bitcast (void (%"class.boost::exception_detail::clone_impl.27"*)* @_ZTv0_n20_N5boost16exception_detail10clone_implINS0_19error_info_injectorINS_15condition_errorEEEED1Ev to i8*), i8* bitcast (void (%"class.boost::exception_detail::clone_impl.27"*)* @_ZTv0_n20_N5boost16exception_detail10clone_implINS0_19error_info_injectorINS_15condition_errorEEEED0Ev to i8*)]
@_ZTTN5boost16exception_detail10clone_implINS0_19error_info_injectorINS_15condition_errorEEEEE = linkonce_odr unnamed_addr constant [2 x i8*] [i8* bitcast (i8** getelementptr inbounds ([21 x i8*]* @_ZTVN5boost16exception_detail10clone_implINS0_19error_info_injectorINS_15condition_errorEEEEE, i64 0, i64 3) to i8*), i8* bitcast (i8** getelementptr inbounds ([21 x i8*]* @_ZTVN5boost16exception_detail10clone_implINS0_19error_info_injectorINS_15condition_errorEEEEE, i64 0, i64 17) to i8*)]
@_ZTVN5boost16exception_detail19error_info_injectorINS_15condition_errorEEE = linkonce_odr unnamed_addr constant [9 x i8*] [i8* null, i8* bitcast ({ i8*, i8*, i32, i32, i8*, i32, i8*, i32 }* @_ZTIN5boost16exception_detail19error_info_injectorINS_15condition_errorEEE to i8*), i8* bitcast (void (%"struct.boost::exception_detail::error_info_injector.28"*)* @_ZN5boost16exception_detail19error_info_injectorINS_15condition_errorEED1Ev to i8*), i8* bitcast (void (%"struct.boost::exception_detail::error_info_injector.28"*)* @_ZN5boost16exception_detail19error_info_injectorINS_15condition_errorEED0Ev to i8*), i8* bitcast (i8* (%"class.boost::system::system_error"*)* @_ZNK5boost6system12system_error4whatEv to i8*), i8* inttoptr (i32 -20 to i8*), i8* bitcast ({ i8*, i8*, i32, i32, i8*, i32, i8*, i32 }* @_ZTIN5boost16exception_detail19error_info_injectorINS_15condition_errorEEE to i8*), i8* bitcast (void (%"struct.boost::exception_detail::error_info_injector.28"*)* @_ZThn20_N5boost16exception_detail19error_info_injectorINS_15condition_errorEED1Ev to i8*), i8* bitcast (void (%"struct.boost::exception_detail::error_info_injector.28"*)* @_ZThn20_N5boost16exception_detail19error_info_injectorINS_15condition_errorEED0Ev to i8*)]
@.str31 = private unnamed_addr constant [31 x i8] c"boost unique_lock has no mutex\00", align 1
@.str32 = private unnamed_addr constant [41 x i8] c"boost unique_lock owns already the mutex\00", align 1
@.str33 = private unnamed_addr constant [47 x i8] c"boost: mutex lock failed in pthread_mutex_lock\00", align 1
@_ZTVN5boost10lock_errorE = linkonce_odr unnamed_addr constant [5 x i8*] [i8* null, i8* bitcast ({ i8*, i8*, i8* }* @_ZTIN5boost10lock_errorE to i8*), i8* bitcast (void (%"class.boost::lock_error"*)* @_ZN5boost10lock_errorD1Ev to i8*), i8* bitcast (void (%"class.boost::lock_error"*)* @_ZN5boost10lock_errorD0Ev to i8*), i8* bitcast (i8* (%"class.boost::system::system_error"*)* @_ZNK5boost6system12system_error4whatEv to i8*)]
@_ZTSN5boost10lock_errorE = linkonce_odr constant [21 x i8] c"N5boost10lock_errorE\00"
@_ZTIN5boost10lock_errorE = linkonce_odr unnamed_addr constant { i8*, i8*, i8* } { i8* bitcast (i8** getelementptr inbounds (i8** @_ZTVN10__cxxabiv120__si_class_type_infoE, i32 2) to i8*), i8* getelementptr inbounds ([21 x i8]* @_ZTSN5boost10lock_errorE, i32 0, i32 0), i8* bitcast ({ i8*, i8*, i8* }* @_ZTIN5boost16thread_exceptionE to i8*) }
@_ZTSN5boost16exception_detail10clone_implINS0_19error_info_injectorINS_10lock_errorEEEEE = linkonce_odr constant [85 x i8] c"N5boost16exception_detail10clone_implINS0_19error_info_injectorINS_10lock_errorEEEEE\00"
@_ZTSN5boost16exception_detail19error_info_injectorINS_10lock_errorEEE = linkonce_odr constant [66 x i8] c"N5boost16exception_detail19error_info_injectorINS_10lock_errorEEE\00"
@_ZTIN5boost16exception_detail19error_info_injectorINS_10lock_errorEEE = linkonce_odr unnamed_addr constant { i8*, i8*, i32, i32, i8*, i32, i8*, i32 } { i8* bitcast (i8** getelementptr inbounds (i8** @_ZTVN10__cxxabiv121__vmi_class_type_infoE, i32 2) to i8*), i8* getelementptr inbounds ([66 x i8]* @_ZTSN5boost16exception_detail19error_info_injectorINS_10lock_errorEEE, i32 0, i32 0), i32 0, i32 2, i8* bitcast ({ i8*, i8*, i8* }* @_ZTIN5boost10lock_errorE to i8*), i32 2, i8* bitcast ({ i8*, i8* }* @_ZTIN5boost9exceptionE to i8*), i32 5122 }
@_ZTIN5boost16exception_detail10clone_implINS0_19error_info_injectorINS_10lock_errorEEEEE = linkonce_odr unnamed_addr constant { i8*, i8*, i32, i32, i8*, i32, i8*, i32 } { i8* bitcast (i8** getelementptr inbounds (i8** @_ZTVN10__cxxabiv121__vmi_class_type_infoE, i32 2) to i8*), i8* getelementptr inbounds ([85 x i8]* @_ZTSN5boost16exception_detail10clone_implINS0_19error_info_injectorINS_10lock_errorEEEEE, i32 0, i32 0), i32 0, i32 2, i8* bitcast ({ i8*, i8*, i32, i32, i8*, i32, i8*, i32 }* @_ZTIN5boost16exception_detail19error_info_injectorINS_10lock_errorEEE to i8*), i32 2, i8* bitcast ({ i8*, i8* }* @_ZTIN5boost16exception_detail10clone_baseE to i8*), i32 -3069 }
@_ZTVN5boost16exception_detail10clone_implINS0_19error_info_injectorINS_10lock_errorEEEEE = linkonce_odr unnamed_addr constant [21 x i8*] [i8* inttoptr (i32 40 to i8*), i8* null, i8* bitcast ({ i8*, i8*, i32, i32, i8*, i32, i8*, i32 }* @_ZTIN5boost16exception_detail10clone_implINS0_19error_info_injectorINS_10lock_errorEEEEE to i8*), i8* bitcast (void (%"class.boost::exception_detail::clone_impl.30"*)* @_ZN5boost16exception_detail10clone_implINS0_19error_info_injectorINS_10lock_errorEEEED1Ev to i8*), i8* bitcast (void (%"class.boost::exception_detail::clone_impl.30"*)* @_ZN5boost16exception_detail10clone_implINS0_19error_info_injectorINS_10lock_errorEEEED0Ev to i8*), i8* bitcast (i8* (%"class.boost::system::system_error"*)* @_ZNK5boost6system12system_error4whatEv to i8*), i8* bitcast (%"class.boost::exception_detail::clone_base"* (%"class.boost::exception_detail::clone_impl.30"*)* @_ZNK5boost16exception_detail10clone_implINS0_19error_info_injectorINS_10lock_errorEEEE5cloneEv to i8*), i8* bitcast (void (%"class.boost::exception_detail::clone_impl.30"*)* @_ZNK5boost16exception_detail10clone_implINS0_19error_info_injectorINS_10lock_errorEEEE7rethrowEv to i8*), i8* inttoptr (i32 -20 to i8*), i8* bitcast ({ i8*, i8*, i32, i32, i8*, i32, i8*, i32 }* @_ZTIN5boost16exception_detail10clone_implINS0_19error_info_injectorINS_10lock_errorEEEEE to i8*), i8* bitcast (void (%"class.boost::exception_detail::clone_impl.30"*)* @_ZThn20_N5boost16exception_detail10clone_implINS0_19error_info_injectorINS_10lock_errorEEEED1Ev to i8*), i8* bitcast (void (%"class.boost::exception_detail::clone_impl.30"*)* @_ZThn20_N5boost16exception_detail10clone_implINS0_19error_info_injectorINS_10lock_errorEEEED0Ev to i8*), i8* inttoptr (i32 -40 to i8*), i8* inttoptr (i32 -40 to i8*), i8* inttoptr (i32 -40 to i8*), i8* inttoptr (i32 -40 to i8*), i8* bitcast ({ i8*, i8*, i32, i32, i8*, i32, i8*, i32 }* @_ZTIN5boost16exception_detail10clone_implINS0_19error_info_injectorINS_10lock_errorEEEEE to i8*), i8* bitcast (%"class.boost::exception_detail::clone_base"* (%"class.boost::exception_detail::clone_impl.30"*)* @_ZTv0_n12_NK5boost16exception_detail10clone_implINS0_19error_info_injectorINS_10lock_errorEEEE5cloneEv to i8*), i8* bitcast (void (%"class.boost::exception_detail::clone_impl.30"*)* @_ZTv0_n16_NK5boost16exception_detail10clone_implINS0_19error_info_injectorINS_10lock_errorEEEE7rethrowEv to i8*), i8* bitcast (void (%"class.boost::exception_detail::clone_impl.30"*)* @_ZTv0_n20_N5boost16exception_detail10clone_implINS0_19error_info_injectorINS_10lock_errorEEEED1Ev to i8*), i8* bitcast (void (%"class.boost::exception_detail::clone_impl.30"*)* @_ZTv0_n20_N5boost16exception_detail10clone_implINS0_19error_info_injectorINS_10lock_errorEEEED0Ev to i8*)]
@_ZTTN5boost16exception_detail10clone_implINS0_19error_info_injectorINS_10lock_errorEEEEE = linkonce_odr unnamed_addr constant [2 x i8*] [i8* bitcast (i8** getelementptr inbounds ([21 x i8*]* @_ZTVN5boost16exception_detail10clone_implINS0_19error_info_injectorINS_10lock_errorEEEEE, i64 0, i64 3) to i8*), i8* bitcast (i8** getelementptr inbounds ([21 x i8*]* @_ZTVN5boost16exception_detail10clone_implINS0_19error_info_injectorINS_10lock_errorEEEEE, i64 0, i64 17) to i8*)]
@_ZTVN5boost16exception_detail19error_info_injectorINS_10lock_errorEEE = linkonce_odr unnamed_addr constant [9 x i8*] [i8* null, i8* bitcast ({ i8*, i8*, i32, i32, i8*, i32, i8*, i32 }* @_ZTIN5boost16exception_detail19error_info_injectorINS_10lock_errorEEE to i8*), i8* bitcast (void (%"struct.boost::exception_detail::error_info_injector.31"*)* @_ZN5boost16exception_detail19error_info_injectorINS_10lock_errorEED1Ev to i8*), i8* bitcast (void (%"struct.boost::exception_detail::error_info_injector.31"*)* @_ZN5boost16exception_detail19error_info_injectorINS_10lock_errorEED0Ev to i8*), i8* bitcast (i8* (%"class.boost::system::system_error"*)* @_ZNK5boost6system12system_error4whatEv to i8*), i8* inttoptr (i32 -20 to i8*), i8* bitcast ({ i8*, i8*, i32, i32, i8*, i32, i8*, i32 }* @_ZTIN5boost16exception_detail19error_info_injectorINS_10lock_errorEEE to i8*), i8* bitcast (void (%"struct.boost::exception_detail::error_info_injector.31"*)* @_ZThn20_N5boost16exception_detail19error_info_injectorINS_10lock_errorEED1Ev to i8*), i8* bitcast (void (%"struct.boost::exception_detail::error_info_injector.31"*)* @_ZThn20_N5boost16exception_detail19error_info_injectorINS_10lock_errorEED0Ev to i8*)]
@.str34 = private unnamed_addr constant [25 x i8] c"!pthread_mutex_unlock(m)\00", align 1
@.str35 = private unnamed_addr constant [63 x i8] c"/home/thomas/boost_1_52_0/boost/thread/pthread/thread_data.hpp\00", align 1
@__PRETTY_FUNCTION__._ZN5boost6detail20interruption_checkerD2Ev = private unnamed_addr constant [61 x i8] c"boost::detail::interruption_checker::~interruption_checker()\00", align 1
@.str36 = private unnamed_addr constant [57 x i8] c"/home/thomas/boost_1_52_0/boost/thread/pthread/mutex.hpp\00", align 1
@__PRETTY_FUNCTION__._ZN5boost5mutex6unlockEv = private unnamed_addr constant [28 x i8] c"void boost::mutex::unlock()\00", align 1
@.str37 = private unnamed_addr constant [40 x i8] c"boost unique_lock doesn't own the mutex\00", align 1
@.str38 = private unnamed_addr constant [23 x i8] c"!pthread_mutex_lock(m)\00", align 1
@__PRETTY_FUNCTION__._ZN5boost6detail20interruption_checkerC2EP15pthread_mutex_tP14pthread_cond_t = private unnamed_addr constant [95 x i8] c"boost::detail::interruption_checker::interruption_checker(pthread_mutex_t *, pthread_cond_t *)\00", align 1
@_ZTSN5boost18thread_interruptedE = linkonce_odr constant [29 x i8] c"N5boost18thread_interruptedE\00"
@_ZTIN5boost18thread_interruptedE = linkonce_odr unnamed_addr constant { i8*, i8* } { i8* bitcast (i8** getelementptr inbounds (i8** @_ZTVN10__cxxabiv117__class_type_infoE, i32 2) to i8*), i8* getelementptr inbounds ([29 x i8]* @_ZTSN5boost18thread_interruptedE, i32 0, i32 0) }
@.str39 = private unnamed_addr constant [41 x i8] c"Day of month value is out of range 1..31\00", align 1
@_ZTVN5boost9gregorian16bad_day_of_monthE = linkonce_odr unnamed_addr constant [5 x i8*] [i8* null, i8* bitcast ({ i8*, i8*, i8* }* @_ZTIN5boost9gregorian16bad_day_of_monthE to i8*), i8* bitcast (void (%"struct.boost::gregorian::bad_day_of_month"*)* @_ZN5boost9gregorian16bad_day_of_monthD1Ev to i8*), i8* bitcast (void (%"struct.boost::gregorian::bad_day_of_month"*)* @_ZN5boost9gregorian16bad_day_of_monthD0Ev to i8*), i8* bitcast (i8* (%"class.std::logic_error"*)* @_ZNKSt11logic_error4whatEv to i8*)]
@_ZTSN5boost9gregorian16bad_day_of_monthE = linkonce_odr constant [37 x i8] c"N5boost9gregorian16bad_day_of_monthE\00"
@_ZTISt12out_of_range = external constant i8*
@_ZTIN5boost9gregorian16bad_day_of_monthE = linkonce_odr unnamed_addr constant { i8*, i8*, i8* } { i8* bitcast (i8** getelementptr inbounds (i8** @_ZTVN10__cxxabiv120__si_class_type_infoE, i32 2) to i8*), i8* getelementptr inbounds ([37 x i8]* @_ZTSN5boost9gregorian16bad_day_of_monthE, i32 0, i32 0), i8* bitcast (i8** @_ZTISt12out_of_range to i8*) }
@_ZTSN5boost16exception_detail10clone_implINS0_19error_info_injectorINS_9gregorian16bad_day_of_monthEEEEE = linkonce_odr constant [101 x i8] c"N5boost16exception_detail10clone_implINS0_19error_info_injectorINS_9gregorian16bad_day_of_monthEEEEE\00"
@_ZTSN5boost16exception_detail19error_info_injectorINS_9gregorian16bad_day_of_monthEEE = linkonce_odr constant [82 x i8] c"N5boost16exception_detail19error_info_injectorINS_9gregorian16bad_day_of_monthEEE\00"
@_ZTIN5boost16exception_detail19error_info_injectorINS_9gregorian16bad_day_of_monthEEE = linkonce_odr unnamed_addr constant { i8*, i8*, i32, i32, i8*, i32, i8*, i32 } { i8* bitcast (i8** getelementptr inbounds (i8** @_ZTVN10__cxxabiv121__vmi_class_type_infoE, i32 2) to i8*), i8* getelementptr inbounds ([82 x i8]* @_ZTSN5boost16exception_detail19error_info_injectorINS_9gregorian16bad_day_of_monthEEE, i32 0, i32 0), i32 0, i32 2, i8* bitcast ({ i8*, i8*, i8* }* @_ZTIN5boost9gregorian16bad_day_of_monthE to i8*), i32 2, i8* bitcast ({ i8*, i8* }* @_ZTIN5boost9exceptionE to i8*), i32 2050 }
@_ZTIN5boost16exception_detail10clone_implINS0_19error_info_injectorINS_9gregorian16bad_day_of_monthEEEEE = linkonce_odr unnamed_addr constant { i8*, i8*, i32, i32, i8*, i32, i8*, i32 } { i8* bitcast (i8** getelementptr inbounds (i8** @_ZTVN10__cxxabiv121__vmi_class_type_infoE, i32 2) to i8*), i8* getelementptr inbounds ([101 x i8]* @_ZTSN5boost16exception_detail10clone_implINS0_19error_info_injectorINS_9gregorian16bad_day_of_monthEEEEE, i32 0, i32 0), i32 0, i32 2, i8* bitcast ({ i8*, i8*, i32, i32, i8*, i32, i8*, i32 }* @_ZTIN5boost16exception_detail19error_info_injectorINS_9gregorian16bad_day_of_monthEEE to i8*), i32 2, i8* bitcast ({ i8*, i8* }* @_ZTIN5boost16exception_detail10clone_baseE to i8*), i32 -3069 }
@_ZTVN5boost16exception_detail10clone_implINS0_19error_info_injectorINS_9gregorian16bad_day_of_monthEEEEE = linkonce_odr unnamed_addr constant [21 x i8*] [i8* inttoptr (i32 28 to i8*), i8* null, i8* bitcast ({ i8*, i8*, i32, i32, i8*, i32, i8*, i32 }* @_ZTIN5boost16exception_detail10clone_implINS0_19error_info_injectorINS_9gregorian16bad_day_of_monthEEEEE to i8*), i8* bitcast (void (%"class.boost::exception_detail::clone_impl.45"*)* @_ZN5boost16exception_detail10clone_implINS0_19error_info_injectorINS_9gregorian16bad_day_of_monthEEEED1Ev to i8*), i8* bitcast (void (%"class.boost::exception_detail::clone_impl.45"*)* @_ZN5boost16exception_detail10clone_implINS0_19error_info_injectorINS_9gregorian16bad_day_of_monthEEEED0Ev to i8*), i8* bitcast (i8* (%"class.std::logic_error"*)* @_ZNKSt11logic_error4whatEv to i8*), i8* bitcast (%"class.boost::exception_detail::clone_base"* (%"class.boost::exception_detail::clone_impl.45"*)* @_ZNK5boost16exception_detail10clone_implINS0_19error_info_injectorINS_9gregorian16bad_day_of_monthEEEE5cloneEv to i8*), i8* bitcast (void (%"class.boost::exception_detail::clone_impl.45"*)* @_ZNK5boost16exception_detail10clone_implINS0_19error_info_injectorINS_9gregorian16bad_day_of_monthEEEE7rethrowEv to i8*), i8* inttoptr (i32 -8 to i8*), i8* bitcast ({ i8*, i8*, i32, i32, i8*, i32, i8*, i32 }* @_ZTIN5boost16exception_detail10clone_implINS0_19error_info_injectorINS_9gregorian16bad_day_of_monthEEEEE to i8*), i8* bitcast (void (%"class.boost::exception_detail::clone_impl.45"*)* @_ZThn8_N5boost16exception_detail10clone_implINS0_19error_info_injectorINS_9gregorian16bad_day_of_monthEEEED1Ev to i8*), i8* bitcast (void (%"class.boost::exception_detail::clone_impl.45"*)* @_ZThn8_N5boost16exception_detail10clone_implINS0_19error_info_injectorINS_9gregorian16bad_day_of_monthEEEED0Ev to i8*), i8* inttoptr (i32 -28 to i8*), i8* inttoptr (i32 -28 to i8*), i8* inttoptr (i32 -28 to i8*), i8* inttoptr (i32 -28 to i8*), i8* bitcast ({ i8*, i8*, i32, i32, i8*, i32, i8*, i32 }* @_ZTIN5boost16exception_detail10clone_implINS0_19error_info_injectorINS_9gregorian16bad_day_of_monthEEEEE to i8*), i8* bitcast (%"class.boost::exception_detail::clone_base"* (%"class.boost::exception_detail::clone_impl.45"*)* @_ZTv0_n12_NK5boost16exception_detail10clone_implINS0_19error_info_injectorINS_9gregorian16bad_day_of_monthEEEE5cloneEv to i8*), i8* bitcast (void (%"class.boost::exception_detail::clone_impl.45"*)* @_ZTv0_n16_NK5boost16exception_detail10clone_implINS0_19error_info_injectorINS_9gregorian16bad_day_of_monthEEEE7rethrowEv to i8*), i8* bitcast (void (%"class.boost::exception_detail::clone_impl.45"*)* @_ZTv0_n20_N5boost16exception_detail10clone_implINS0_19error_info_injectorINS_9gregorian16bad_day_of_monthEEEED1Ev to i8*), i8* bitcast (void (%"class.boost::exception_detail::clone_impl.45"*)* @_ZTv0_n20_N5boost16exception_detail10clone_implINS0_19error_info_injectorINS_9gregorian16bad_day_of_monthEEEED0Ev to i8*)]
@_ZTTN5boost16exception_detail10clone_implINS0_19error_info_injectorINS_9gregorian16bad_day_of_monthEEEEE = linkonce_odr unnamed_addr constant [2 x i8*] [i8* bitcast (i8** getelementptr inbounds ([21 x i8*]* @_ZTVN5boost16exception_detail10clone_implINS0_19error_info_injectorINS_9gregorian16bad_day_of_monthEEEEE, i64 0, i64 3) to i8*), i8* bitcast (i8** getelementptr inbounds ([21 x i8*]* @_ZTVN5boost16exception_detail10clone_implINS0_19error_info_injectorINS_9gregorian16bad_day_of_monthEEEEE, i64 0, i64 17) to i8*)]
@_ZTVN5boost16exception_detail19error_info_injectorINS_9gregorian16bad_day_of_monthEEE = linkonce_odr unnamed_addr constant [9 x i8*] [i8* null, i8* bitcast ({ i8*, i8*, i32, i32, i8*, i32, i8*, i32 }* @_ZTIN5boost16exception_detail19error_info_injectorINS_9gregorian16bad_day_of_monthEEE to i8*), i8* bitcast (void (%"struct.boost::exception_detail::error_info_injector.46"*)* @_ZN5boost16exception_detail19error_info_injectorINS_9gregorian16bad_day_of_monthEED1Ev to i8*), i8* bitcast (void (%"struct.boost::exception_detail::error_info_injector.46"*)* @_ZN5boost16exception_detail19error_info_injectorINS_9gregorian16bad_day_of_monthEED0Ev to i8*), i8* bitcast (i8* (%"class.std::logic_error"*)* @_ZNKSt11logic_error4whatEv to i8*), i8* inttoptr (i32 -8 to i8*), i8* bitcast ({ i8*, i8*, i32, i32, i8*, i32, i8*, i32 }* @_ZTIN5boost16exception_detail19error_info_injectorINS_9gregorian16bad_day_of_monthEEE to i8*), i8* bitcast (void (%"struct.boost::exception_detail::error_info_injector.46"*)* @_ZThn8_N5boost16exception_detail19error_info_injectorINS_9gregorian16bad_day_of_monthEED1Ev to i8*), i8* bitcast (void (%"struct.boost::exception_detail::error_info_injector.46"*)* @_ZThn8_N5boost16exception_detail19error_info_injectorINS_9gregorian16bad_day_of_monthEED0Ev to i8*)]
@_ZTVSt12out_of_range = external unnamed_addr constant [5 x i8*]
@_ZTVSt11logic_error = external unnamed_addr constant [5 x i8*]
@.str40 = private unnamed_addr constant [35 x i8] c"Month number is out of range 1..12\00", align 1
@_ZTVN5boost9gregorian9bad_monthE = linkonce_odr unnamed_addr constant [5 x i8*] [i8* null, i8* bitcast ({ i8*, i8*, i8* }* @_ZTIN5boost9gregorian9bad_monthE to i8*), i8* bitcast (void (%"struct.boost::gregorian::bad_month"*)* @_ZN5boost9gregorian9bad_monthD1Ev to i8*), i8* bitcast (void (%"struct.boost::gregorian::bad_month"*)* @_ZN5boost9gregorian9bad_monthD0Ev to i8*), i8* bitcast (i8* (%"class.std::logic_error"*)* @_ZNKSt11logic_error4whatEv to i8*)]
@_ZTSN5boost9gregorian9bad_monthE = linkonce_odr constant [29 x i8] c"N5boost9gregorian9bad_monthE\00"
@_ZTIN5boost9gregorian9bad_monthE = linkonce_odr unnamed_addr constant { i8*, i8*, i8* } { i8* bitcast (i8** getelementptr inbounds (i8** @_ZTVN10__cxxabiv120__si_class_type_infoE, i32 2) to i8*), i8* getelementptr inbounds ([29 x i8]* @_ZTSN5boost9gregorian9bad_monthE, i32 0, i32 0), i8* bitcast (i8** @_ZTISt12out_of_range to i8*) }
@_ZTSN5boost16exception_detail10clone_implINS0_19error_info_injectorINS_9gregorian9bad_monthEEEEE = linkonce_odr constant [93 x i8] c"N5boost16exception_detail10clone_implINS0_19error_info_injectorINS_9gregorian9bad_monthEEEEE\00"
@_ZTSN5boost16exception_detail19error_info_injectorINS_9gregorian9bad_monthEEE = linkonce_odr constant [74 x i8] c"N5boost16exception_detail19error_info_injectorINS_9gregorian9bad_monthEEE\00"
@_ZTIN5boost16exception_detail19error_info_injectorINS_9gregorian9bad_monthEEE = linkonce_odr unnamed_addr constant { i8*, i8*, i32, i32, i8*, i32, i8*, i32 } { i8* bitcast (i8** getelementptr inbounds (i8** @_ZTVN10__cxxabiv121__vmi_class_type_infoE, i32 2) to i8*), i8* getelementptr inbounds ([74 x i8]* @_ZTSN5boost16exception_detail19error_info_injectorINS_9gregorian9bad_monthEEE, i32 0, i32 0), i32 0, i32 2, i8* bitcast ({ i8*, i8*, i8* }* @_ZTIN5boost9gregorian9bad_monthE to i8*), i32 2, i8* bitcast ({ i8*, i8* }* @_ZTIN5boost9exceptionE to i8*), i32 2050 }
@_ZTIN5boost16exception_detail10clone_implINS0_19error_info_injectorINS_9gregorian9bad_monthEEEEE = linkonce_odr unnamed_addr constant { i8*, i8*, i32, i32, i8*, i32, i8*, i32 } { i8* bitcast (i8** getelementptr inbounds (i8** @_ZTVN10__cxxabiv121__vmi_class_type_infoE, i32 2) to i8*), i8* getelementptr inbounds ([93 x i8]* @_ZTSN5boost16exception_detail10clone_implINS0_19error_info_injectorINS_9gregorian9bad_monthEEEEE, i32 0, i32 0), i32 0, i32 2, i8* bitcast ({ i8*, i8*, i32, i32, i8*, i32, i8*, i32 }* @_ZTIN5boost16exception_detail19error_info_injectorINS_9gregorian9bad_monthEEE to i8*), i32 2, i8* bitcast ({ i8*, i8* }* @_ZTIN5boost16exception_detail10clone_baseE to i8*), i32 -3069 }
@_ZTVN5boost16exception_detail10clone_implINS0_19error_info_injectorINS_9gregorian9bad_monthEEEEE = linkonce_odr unnamed_addr constant [21 x i8*] [i8* inttoptr (i32 28 to i8*), i8* null, i8* bitcast ({ i8*, i8*, i32, i32, i8*, i32, i8*, i32 }* @_ZTIN5boost16exception_detail10clone_implINS0_19error_info_injectorINS_9gregorian9bad_monthEEEEE to i8*), i8* bitcast (void (%"class.boost::exception_detail::clone_impl.48"*)* @_ZN5boost16exception_detail10clone_implINS0_19error_info_injectorINS_9gregorian9bad_monthEEEED1Ev to i8*), i8* bitcast (void (%"class.boost::exception_detail::clone_impl.48"*)* @_ZN5boost16exception_detail10clone_implINS0_19error_info_injectorINS_9gregorian9bad_monthEEEED0Ev to i8*), i8* bitcast (i8* (%"class.std::logic_error"*)* @_ZNKSt11logic_error4whatEv to i8*), i8* bitcast (%"class.boost::exception_detail::clone_base"* (%"class.boost::exception_detail::clone_impl.48"*)* @_ZNK5boost16exception_detail10clone_implINS0_19error_info_injectorINS_9gregorian9bad_monthEEEE5cloneEv to i8*), i8* bitcast (void (%"class.boost::exception_detail::clone_impl.48"*)* @_ZNK5boost16exception_detail10clone_implINS0_19error_info_injectorINS_9gregorian9bad_monthEEEE7rethrowEv to i8*), i8* inttoptr (i32 -8 to i8*), i8* bitcast ({ i8*, i8*, i32, i32, i8*, i32, i8*, i32 }* @_ZTIN5boost16exception_detail10clone_implINS0_19error_info_injectorINS_9gregorian9bad_monthEEEEE to i8*), i8* bitcast (void (%"class.boost::exception_detail::clone_impl.48"*)* @_ZThn8_N5boost16exception_detail10clone_implINS0_19error_info_injectorINS_9gregorian9bad_monthEEEED1Ev to i8*), i8* bitcast (void (%"class.boost::exception_detail::clone_impl.48"*)* @_ZThn8_N5boost16exception_detail10clone_implINS0_19error_info_injectorINS_9gregorian9bad_monthEEEED0Ev to i8*), i8* inttoptr (i32 -28 to i8*), i8* inttoptr (i32 -28 to i8*), i8* inttoptr (i32 -28 to i8*), i8* inttoptr (i32 -28 to i8*), i8* bitcast ({ i8*, i8*, i32, i32, i8*, i32, i8*, i32 }* @_ZTIN5boost16exception_detail10clone_implINS0_19error_info_injectorINS_9gregorian9bad_monthEEEEE to i8*), i8* bitcast (%"class.boost::exception_detail::clone_base"* (%"class.boost::exception_detail::clone_impl.48"*)* @_ZTv0_n12_NK5boost16exception_detail10clone_implINS0_19error_info_injectorINS_9gregorian9bad_monthEEEE5cloneEv to i8*), i8* bitcast (void (%"class.boost::exception_detail::clone_impl.48"*)* @_ZTv0_n16_NK5boost16exception_detail10clone_implINS0_19error_info_injectorINS_9gregorian9bad_monthEEEE7rethrowEv to i8*), i8* bitcast (void (%"class.boost::exception_detail::clone_impl.48"*)* @_ZTv0_n20_N5boost16exception_detail10clone_implINS0_19error_info_injectorINS_9gregorian9bad_monthEEEED1Ev to i8*), i8* bitcast (void (%"class.boost::exception_detail::clone_impl.48"*)* @_ZTv0_n20_N5boost16exception_detail10clone_implINS0_19error_info_injectorINS_9gregorian9bad_monthEEEED0Ev to i8*)]
@_ZTTN5boost16exception_detail10clone_implINS0_19error_info_injectorINS_9gregorian9bad_monthEEEEE = linkonce_odr unnamed_addr constant [2 x i8*] [i8* bitcast (i8** getelementptr inbounds ([21 x i8*]* @_ZTVN5boost16exception_detail10clone_implINS0_19error_info_injectorINS_9gregorian9bad_monthEEEEE, i64 0, i64 3) to i8*), i8* bitcast (i8** getelementptr inbounds ([21 x i8*]* @_ZTVN5boost16exception_detail10clone_implINS0_19error_info_injectorINS_9gregorian9bad_monthEEEEE, i64 0, i64 17) to i8*)]
@_ZTVN5boost16exception_detail19error_info_injectorINS_9gregorian9bad_monthEEE = linkonce_odr unnamed_addr constant [9 x i8*] [i8* null, i8* bitcast ({ i8*, i8*, i32, i32, i8*, i32, i8*, i32 }* @_ZTIN5boost16exception_detail19error_info_injectorINS_9gregorian9bad_monthEEE to i8*), i8* bitcast (void (%"struct.boost::exception_detail::error_info_injector.49"*)* @_ZN5boost16exception_detail19error_info_injectorINS_9gregorian9bad_monthEED1Ev to i8*), i8* bitcast (void (%"struct.boost::exception_detail::error_info_injector.49"*)* @_ZN5boost16exception_detail19error_info_injectorINS_9gregorian9bad_monthEED0Ev to i8*), i8* bitcast (i8* (%"class.std::logic_error"*)* @_ZNKSt11logic_error4whatEv to i8*), i8* inttoptr (i32 -8 to i8*), i8* bitcast ({ i8*, i8*, i32, i32, i8*, i32, i8*, i32 }* @_ZTIN5boost16exception_detail19error_info_injectorINS_9gregorian9bad_monthEEE to i8*), i8* bitcast (void (%"struct.boost::exception_detail::error_info_injector.49"*)* @_ZThn8_N5boost16exception_detail19error_info_injectorINS_9gregorian9bad_monthEED1Ev to i8*), i8* bitcast (void (%"struct.boost::exception_detail::error_info_injector.49"*)* @_ZThn8_N5boost16exception_detail19error_info_injectorINS_9gregorian9bad_monthEED0Ev to i8*)]
@.str41 = private unnamed_addr constant [40 x i8] c"Year is out of valid range: 1400..10000\00", align 1
@_ZTVN5boost9gregorian8bad_yearE = linkonce_odr unnamed_addr constant [5 x i8*] [i8* null, i8* bitcast ({ i8*, i8*, i8* }* @_ZTIN5boost9gregorian8bad_yearE to i8*), i8* bitcast (void (%"struct.boost::gregorian::bad_year"*)* @_ZN5boost9gregorian8bad_yearD1Ev to i8*), i8* bitcast (void (%"struct.boost::gregorian::bad_year"*)* @_ZN5boost9gregorian8bad_yearD0Ev to i8*), i8* bitcast (i8* (%"class.std::logic_error"*)* @_ZNKSt11logic_error4whatEv to i8*)]
@_ZTSN5boost9gregorian8bad_yearE = linkonce_odr constant [28 x i8] c"N5boost9gregorian8bad_yearE\00"
@_ZTIN5boost9gregorian8bad_yearE = linkonce_odr unnamed_addr constant { i8*, i8*, i8* } { i8* bitcast (i8** getelementptr inbounds (i8** @_ZTVN10__cxxabiv120__si_class_type_infoE, i32 2) to i8*), i8* getelementptr inbounds ([28 x i8]* @_ZTSN5boost9gregorian8bad_yearE, i32 0, i32 0), i8* bitcast (i8** @_ZTISt12out_of_range to i8*) }
@_ZTSN5boost16exception_detail10clone_implINS0_19error_info_injectorINS_9gregorian8bad_yearEEEEE = linkonce_odr constant [92 x i8] c"N5boost16exception_detail10clone_implINS0_19error_info_injectorINS_9gregorian8bad_yearEEEEE\00"
@_ZTSN5boost16exception_detail19error_info_injectorINS_9gregorian8bad_yearEEE = linkonce_odr constant [73 x i8] c"N5boost16exception_detail19error_info_injectorINS_9gregorian8bad_yearEEE\00"
@_ZTIN5boost16exception_detail19error_info_injectorINS_9gregorian8bad_yearEEE = linkonce_odr unnamed_addr constant { i8*, i8*, i32, i32, i8*, i32, i8*, i32 } { i8* bitcast (i8** getelementptr inbounds (i8** @_ZTVN10__cxxabiv121__vmi_class_type_infoE, i32 2) to i8*), i8* getelementptr inbounds ([73 x i8]* @_ZTSN5boost16exception_detail19error_info_injectorINS_9gregorian8bad_yearEEE, i32 0, i32 0), i32 0, i32 2, i8* bitcast ({ i8*, i8*, i8* }* @_ZTIN5boost9gregorian8bad_yearE to i8*), i32 2, i8* bitcast ({ i8*, i8* }* @_ZTIN5boost9exceptionE to i8*), i32 2050 }
@_ZTIN5boost16exception_detail10clone_implINS0_19error_info_injectorINS_9gregorian8bad_yearEEEEE = linkonce_odr unnamed_addr constant { i8*, i8*, i32, i32, i8*, i32, i8*, i32 } { i8* bitcast (i8** getelementptr inbounds (i8** @_ZTVN10__cxxabiv121__vmi_class_type_infoE, i32 2) to i8*), i8* getelementptr inbounds ([92 x i8]* @_ZTSN5boost16exception_detail10clone_implINS0_19error_info_injectorINS_9gregorian8bad_yearEEEEE, i32 0, i32 0), i32 0, i32 2, i8* bitcast ({ i8*, i8*, i32, i32, i8*, i32, i8*, i32 }* @_ZTIN5boost16exception_detail19error_info_injectorINS_9gregorian8bad_yearEEE to i8*), i32 2, i8* bitcast ({ i8*, i8* }* @_ZTIN5boost16exception_detail10clone_baseE to i8*), i32 -3069 }
@_ZTVN5boost16exception_detail10clone_implINS0_19error_info_injectorINS_9gregorian8bad_yearEEEEE = linkonce_odr unnamed_addr constant [21 x i8*] [i8* inttoptr (i32 28 to i8*), i8* null, i8* bitcast ({ i8*, i8*, i32, i32, i8*, i32, i8*, i32 }* @_ZTIN5boost16exception_detail10clone_implINS0_19error_info_injectorINS_9gregorian8bad_yearEEEEE to i8*), i8* bitcast (void (%"class.boost::exception_detail::clone_impl.51"*)* @_ZN5boost16exception_detail10clone_implINS0_19error_info_injectorINS_9gregorian8bad_yearEEEED1Ev to i8*), i8* bitcast (void (%"class.boost::exception_detail::clone_impl.51"*)* @_ZN5boost16exception_detail10clone_implINS0_19error_info_injectorINS_9gregorian8bad_yearEEEED0Ev to i8*), i8* bitcast (i8* (%"class.std::logic_error"*)* @_ZNKSt11logic_error4whatEv to i8*), i8* bitcast (%"class.boost::exception_detail::clone_base"* (%"class.boost::exception_detail::clone_impl.51"*)* @_ZNK5boost16exception_detail10clone_implINS0_19error_info_injectorINS_9gregorian8bad_yearEEEE5cloneEv to i8*), i8* bitcast (void (%"class.boost::exception_detail::clone_impl.51"*)* @_ZNK5boost16exception_detail10clone_implINS0_19error_info_injectorINS_9gregorian8bad_yearEEEE7rethrowEv to i8*), i8* inttoptr (i32 -8 to i8*), i8* bitcast ({ i8*, i8*, i32, i32, i8*, i32, i8*, i32 }* @_ZTIN5boost16exception_detail10clone_implINS0_19error_info_injectorINS_9gregorian8bad_yearEEEEE to i8*), i8* bitcast (void (%"class.boost::exception_detail::clone_impl.51"*)* @_ZThn8_N5boost16exception_detail10clone_implINS0_19error_info_injectorINS_9gregorian8bad_yearEEEED1Ev to i8*), i8* bitcast (void (%"class.boost::exception_detail::clone_impl.51"*)* @_ZThn8_N5boost16exception_detail10clone_implINS0_19error_info_injectorINS_9gregorian8bad_yearEEEED0Ev to i8*), i8* inttoptr (i32 -28 to i8*), i8* inttoptr (i32 -28 to i8*), i8* inttoptr (i32 -28 to i8*), i8* inttoptr (i32 -28 to i8*), i8* bitcast ({ i8*, i8*, i32, i32, i8*, i32, i8*, i32 }* @_ZTIN5boost16exception_detail10clone_implINS0_19error_info_injectorINS_9gregorian8bad_yearEEEEE to i8*), i8* bitcast (%"class.boost::exception_detail::clone_base"* (%"class.boost::exception_detail::clone_impl.51"*)* @_ZTv0_n12_NK5boost16exception_detail10clone_implINS0_19error_info_injectorINS_9gregorian8bad_yearEEEE5cloneEv to i8*), i8* bitcast (void (%"class.boost::exception_detail::clone_impl.51"*)* @_ZTv0_n16_NK5boost16exception_detail10clone_implINS0_19error_info_injectorINS_9gregorian8bad_yearEEEE7rethrowEv to i8*), i8* bitcast (void (%"class.boost::exception_detail::clone_impl.51"*)* @_ZTv0_n20_N5boost16exception_detail10clone_implINS0_19error_info_injectorINS_9gregorian8bad_yearEEEED1Ev to i8*), i8* bitcast (void (%"class.boost::exception_detail::clone_impl.51"*)* @_ZTv0_n20_N5boost16exception_detail10clone_implINS0_19error_info_injectorINS_9gregorian8bad_yearEEEED0Ev to i8*)]
@_ZTTN5boost16exception_detail10clone_implINS0_19error_info_injectorINS_9gregorian8bad_yearEEEEE = linkonce_odr unnamed_addr constant [2 x i8*] [i8* bitcast (i8** getelementptr inbounds ([21 x i8*]* @_ZTVN5boost16exception_detail10clone_implINS0_19error_info_injectorINS_9gregorian8bad_yearEEEEE, i64 0, i64 3) to i8*), i8* bitcast (i8** getelementptr inbounds ([21 x i8*]* @_ZTVN5boost16exception_detail10clone_implINS0_19error_info_injectorINS_9gregorian8bad_yearEEEEE, i64 0, i64 17) to i8*)]
@_ZTVN5boost16exception_detail19error_info_injectorINS_9gregorian8bad_yearEEE = linkonce_odr unnamed_addr constant [9 x i8*] [i8* null, i8* bitcast ({ i8*, i8*, i32, i32, i8*, i32, i8*, i32 }* @_ZTIN5boost16exception_detail19error_info_injectorINS_9gregorian8bad_yearEEE to i8*), i8* bitcast (void (%"struct.boost::exception_detail::error_info_injector.52"*)* @_ZN5boost16exception_detail19error_info_injectorINS_9gregorian8bad_yearEED1Ev to i8*), i8* bitcast (void (%"struct.boost::exception_detail::error_info_injector.52"*)* @_ZN5boost16exception_detail19error_info_injectorINS_9gregorian8bad_yearEED0Ev to i8*), i8* bitcast (i8* (%"class.std::logic_error"*)* @_ZNKSt11logic_error4whatEv to i8*), i8* inttoptr (i32 -8 to i8*), i8* bitcast ({ i8*, i8*, i32, i32, i8*, i32, i8*, i32 }* @_ZTIN5boost16exception_detail19error_info_injectorINS_9gregorian8bad_yearEEE to i8*), i8* bitcast (void (%"struct.boost::exception_detail::error_info_injector.52"*)* @_ZThn8_N5boost16exception_detail19error_info_injectorINS_9gregorian8bad_yearEED1Ev to i8*), i8* bitcast (void (%"struct.boost::exception_detail::error_info_injector.52"*)* @_ZThn8_N5boost16exception_detail19error_info_injectorINS_9gregorian8bad_yearEED0Ev to i8*)]
@.str42 = private unnamed_addr constant [35 x i8] c"Day of month is not valid for year\00", align 1
@.str43 = private unnamed_addr constant [44 x i8] c"could not convert calendar time to UTC time\00", align 1
@_ZTSN5boost16exception_detail10clone_implINS0_19error_info_injectorISt13runtime_errorEEEE = linkonce_odr constant [86 x i8] c"N5boost16exception_detail10clone_implINS0_19error_info_injectorISt13runtime_errorEEEE\00"
@_ZTSN5boost16exception_detail19error_info_injectorISt13runtime_errorEE = linkonce_odr constant [67 x i8] c"N5boost16exception_detail19error_info_injectorISt13runtime_errorEE\00"
@_ZTIN5boost16exception_detail19error_info_injectorISt13runtime_errorEE = linkonce_odr unnamed_addr constant { i8*, i8*, i32, i32, i8*, i32, i8*, i32 } { i8* bitcast (i8** getelementptr inbounds (i8** @_ZTVN10__cxxabiv121__vmi_class_type_infoE, i32 2) to i8*), i8* getelementptr inbounds ([67 x i8]* @_ZTSN5boost16exception_detail19error_info_injectorISt13runtime_errorEE, i32 0, i32 0), i32 0, i32 2, i8* bitcast (i8** @_ZTISt13runtime_error to i8*), i32 2, i8* bitcast ({ i8*, i8* }* @_ZTIN5boost9exceptionE to i8*), i32 2050 }
@_ZTIN5boost16exception_detail10clone_implINS0_19error_info_injectorISt13runtime_errorEEEE = linkonce_odr unnamed_addr constant { i8*, i8*, i32, i32, i8*, i32, i8*, i32 } { i8* bitcast (i8** getelementptr inbounds (i8** @_ZTVN10__cxxabiv121__vmi_class_type_infoE, i32 2) to i8*), i8* getelementptr inbounds ([86 x i8]* @_ZTSN5boost16exception_detail10clone_implINS0_19error_info_injectorISt13runtime_errorEEEE, i32 0, i32 0), i32 0, i32 2, i8* bitcast ({ i8*, i8*, i32, i32, i8*, i32, i8*, i32 }* @_ZTIN5boost16exception_detail19error_info_injectorISt13runtime_errorEE to i8*), i32 2, i8* bitcast ({ i8*, i8* }* @_ZTIN5boost16exception_detail10clone_baseE to i8*), i32 -3069 }
@_ZTVN5boost16exception_detail10clone_implINS0_19error_info_injectorISt13runtime_errorEEEE = linkonce_odr unnamed_addr constant [21 x i8*] [i8* inttoptr (i32 28 to i8*), i8* null, i8* bitcast ({ i8*, i8*, i32, i32, i8*, i32, i8*, i32 }* @_ZTIN5boost16exception_detail10clone_implINS0_19error_info_injectorISt13runtime_errorEEEE to i8*), i8* bitcast (void (%"class.boost::exception_detail::clone_impl.55"*)* @_ZN5boost16exception_detail10clone_implINS0_19error_info_injectorISt13runtime_errorEEED1Ev to i8*), i8* bitcast (void (%"class.boost::exception_detail::clone_impl.55"*)* @_ZN5boost16exception_detail10clone_implINS0_19error_info_injectorISt13runtime_errorEEED0Ev to i8*), i8* bitcast (i8* (%"class.std::runtime_error"*)* @_ZNKSt13runtime_error4whatEv to i8*), i8* bitcast (%"class.boost::exception_detail::clone_base"* (%"class.boost::exception_detail::clone_impl.55"*)* @_ZNK5boost16exception_detail10clone_implINS0_19error_info_injectorISt13runtime_errorEEE5cloneEv to i8*), i8* bitcast (void (%"class.boost::exception_detail::clone_impl.55"*)* @_ZNK5boost16exception_detail10clone_implINS0_19error_info_injectorISt13runtime_errorEEE7rethrowEv to i8*), i8* inttoptr (i32 -8 to i8*), i8* bitcast ({ i8*, i8*, i32, i32, i8*, i32, i8*, i32 }* @_ZTIN5boost16exception_detail10clone_implINS0_19error_info_injectorISt13runtime_errorEEEE to i8*), i8* bitcast (void (%"class.boost::exception_detail::clone_impl.55"*)* @_ZThn8_N5boost16exception_detail10clone_implINS0_19error_info_injectorISt13runtime_errorEEED1Ev to i8*), i8* bitcast (void (%"class.boost::exception_detail::clone_impl.55"*)* @_ZThn8_N5boost16exception_detail10clone_implINS0_19error_info_injectorISt13runtime_errorEEED0Ev to i8*), i8* inttoptr (i32 -28 to i8*), i8* inttoptr (i32 -28 to i8*), i8* inttoptr (i32 -28 to i8*), i8* inttoptr (i32 -28 to i8*), i8* bitcast ({ i8*, i8*, i32, i32, i8*, i32, i8*, i32 }* @_ZTIN5boost16exception_detail10clone_implINS0_19error_info_injectorISt13runtime_errorEEEE to i8*), i8* bitcast (%"class.boost::exception_detail::clone_base"* (%"class.boost::exception_detail::clone_impl.55"*)* @_ZTv0_n12_NK5boost16exception_detail10clone_implINS0_19error_info_injectorISt13runtime_errorEEE5cloneEv to i8*), i8* bitcast (void (%"class.boost::exception_detail::clone_impl.55"*)* @_ZTv0_n16_NK5boost16exception_detail10clone_implINS0_19error_info_injectorISt13runtime_errorEEE7rethrowEv to i8*), i8* bitcast (void (%"class.boost::exception_detail::clone_impl.55"*)* @_ZTv0_n20_N5boost16exception_detail10clone_implINS0_19error_info_injectorISt13runtime_errorEEED1Ev to i8*), i8* bitcast (void (%"class.boost::exception_detail::clone_impl.55"*)* @_ZTv0_n20_N5boost16exception_detail10clone_implINS0_19error_info_injectorISt13runtime_errorEEED0Ev to i8*)]
@_ZTTN5boost16exception_detail10clone_implINS0_19error_info_injectorISt13runtime_errorEEEE = linkonce_odr unnamed_addr constant [2 x i8*] [i8* bitcast (i8** getelementptr inbounds ([21 x i8*]* @_ZTVN5boost16exception_detail10clone_implINS0_19error_info_injectorISt13runtime_errorEEEE, i64 0, i64 3) to i8*), i8* bitcast (i8** getelementptr inbounds ([21 x i8*]* @_ZTVN5boost16exception_detail10clone_implINS0_19error_info_injectorISt13runtime_errorEEEE, i64 0, i64 17) to i8*)]
@_ZTVN5boost16exception_detail19error_info_injectorISt13runtime_errorEE = linkonce_odr unnamed_addr constant [9 x i8*] [i8* null, i8* bitcast ({ i8*, i8*, i32, i32, i8*, i32, i8*, i32 }* @_ZTIN5boost16exception_detail19error_info_injectorISt13runtime_errorEE to i8*), i8* bitcast (void (%"struct.boost::exception_detail::error_info_injector.56"*)* @_ZN5boost16exception_detail19error_info_injectorISt13runtime_errorED1Ev to i8*), i8* bitcast (void (%"struct.boost::exception_detail::error_info_injector.56"*)* @_ZN5boost16exception_detail19error_info_injectorISt13runtime_errorED0Ev to i8*), i8* bitcast (i8* (%"class.std::runtime_error"*)* @_ZNKSt13runtime_error4whatEv to i8*), i8* inttoptr (i32 -8 to i8*), i8* bitcast ({ i8*, i8*, i32, i32, i8*, i32, i8*, i32 }* @_ZTIN5boost16exception_detail19error_info_injectorISt13runtime_errorEE to i8*), i8* bitcast (void (%"struct.boost::exception_detail::error_info_injector.56"*)* @_ZThn8_N5boost16exception_detail19error_info_injectorISt13runtime_errorED1Ev to i8*), i8* bitcast (void (%"struct.boost::exception_detail::error_info_injector.56"*)* @_ZThn8_N5boost16exception_detail19error_info_injectorISt13runtime_errorED0Ev to i8*)]
@.str44 = private unnamed_addr constant [31 x i8] c"!pthread_cond_broadcast(&cond)\00", align 1
@.str45 = private unnamed_addr constant [70 x i8] c"/home/thomas/boost_1_52_0/boost/thread/pthread/condition_variable.hpp\00", align 1
@__PRETTY_FUNCTION__._ZN5boost22condition_variable_any10notify_allEv = private unnamed_addr constant [49 x i8] c"void boost::condition_variable_any::notify_all()\00", align 1
@.str46 = private unnamed_addr constant [77 x i8] c"/home/thomas/boost_1_52_0/boost/thread/pthread/pthread_mutex_scoped_lock.hpp\00", align 1
@__PRETTY_FUNCTION__._ZN5boost7pthread25pthread_mutex_scoped_lock6unlockEv = private unnamed_addr constant [57 x i8] c"void boost::pthread::pthread_mutex_scoped_lock::unlock()\00", align 1
@__PRETTY_FUNCTION__._ZN5boost7pthread25pthread_mutex_scoped_lockC2EP15pthread_mutex_t = private unnamed_addr constant [88 x i8] c"boost::pthread::pthread_mutex_scoped_lock::pthread_mutex_scoped_lock(pthread_mutex_t *)\00", align 1
@__PRETTY_FUNCTION__._ZN5boost22condition_variable_anyD2Ev = private unnamed_addr constant [57 x i8] c"boost::condition_variable_any::~condition_variable_any()\00", align 1
@.str47 = private unnamed_addr constant [29 x i8] c"!pthread_cond_destroy(&cond)\00", align 1
@.str48 = private unnamed_addr constant [52 x i8] c"condition_variable_any failed in pthread_mutex_init\00", align 1
@__PRETTY_FUNCTION__._ZN5boost22condition_variable_anyC2Ev = private unnamed_addr constant [56 x i8] c"boost::condition_variable_any::condition_variable_any()\00", align 1
@.str49 = private unnamed_addr constant [51 x i8] c"condition_variable_any failed in pthread_cond_init\00", align 1
@.str50 = private unnamed_addr constant [55 x i8] c"boost:: mutex constructor failed in pthread_mutex_init\00", align 1
@llvm.global_ctors = appending global [1 x { i32, void ()* }] [{ i32, void ()* } { i32 65535, void ()* @_GLOBAL__I_a }]

define internal void @__cxx_global_var_init() section ".text.startup" {
entry:
  call void @_ZNSt8ios_base4InitC1Ev(%"class.std::ios_base::Init"* @_ZStL8__ioinit)
  %0 = call i32 @__cxa_atexit(void (i8*)* bitcast (void (%"class.std::ios_base::Init"*)* @_ZNSt8ios_base4InitD1Ev to void (i8*)*), i8* getelementptr inbounds (%"class.std::ios_base::Init"* @_ZStL8__ioinit, i32 0, i32 0), i8* @__dso_handle) nounwind
  ret void
}

declare void @_ZNSt8ios_base4InitC1Ev(%"class.std::ios_base::Init"*)

declare void @_ZNSt8ios_base4InitD1Ev(%"class.std::ios_base::Init"*)

declare i32 @__cxa_atexit(void (i8*)*, i8*, i8*) nounwind

define internal void @__cxx_global_var_init1() section ".text.startup" {
entry:
  %call = call %"class.boost::system::error_category"* @_ZN5boost6system16generic_categoryEv()
  store %"class.boost::system::error_category"* %call, %"class.boost::system::error_category"** @_ZN5boost6systemL14posix_categoryE, align 4
  ret void
}

declare %"class.boost::system::error_category"* @_ZN5boost6system16generic_categoryEv()

define internal void @__cxx_global_var_init2() section ".text.startup" {
entry:
  %call = call %"class.boost::system::error_category"* @_ZN5boost6system16generic_categoryEv()
  store %"class.boost::system::error_category"* %call, %"class.boost::system::error_category"** @_ZN5boost6systemL10errno_ecatE, align 4
  ret void
}

define internal void @__cxx_global_var_init3() section ".text.startup" {
entry:
  %call = call %"class.boost::system::error_category"* @_ZN5boost6system15system_categoryEv()
  store %"class.boost::system::error_category"* %call, %"class.boost::system::error_category"** @_ZN5boost6systemL11native_ecatE, align 4
  ret void
}

declare %"class.boost::system::error_category"* @_ZN5boost6system15system_categoryEv()

define linkonce_odr void @_ZNK5boost6system14error_category23default_error_conditionEi(%"class.boost::system::error_condition"* noalias sret %agg.result, %"class.boost::system::error_category"* %this, i32 %ev) unnamed_addr inlinehint align 2 {
entry:
  %this.addr = alloca %"class.boost::system::error_category"*, align 4
  %ev.addr = alloca i32, align 4
  store %"class.boost::system::error_category"* %this, %"class.boost::system::error_category"** %this.addr, align 4
  store i32 %ev, i32* %ev.addr, align 4
  %this1 = load %"class.boost::system::error_category"** %this.addr
  %0 = load i32* %ev.addr, align 4
  call void @_ZN5boost6system15error_conditionC1EiRKNS0_14error_categoryE(%"class.boost::system::error_condition"* %agg.result, i32 %0, %"class.boost::system::error_category"* %this1)
  ret void
}

define linkonce_odr void @_ZN5boost6system15error_conditionC1EiRKNS0_14error_categoryE(%"class.boost::system::error_condition"* %this, i32 %val, %"class.boost::system::error_category"* %cat) unnamed_addr align 2 {
entry:
  %this.addr = alloca %"class.boost::system::error_condition"*, align 4
  %val.addr = alloca i32, align 4
  %cat.addr = alloca %"class.boost::system::error_category"*, align 4
  store %"class.boost::system::error_condition"* %this, %"class.boost::system::error_condition"** %this.addr, align 4
  store i32 %val, i32* %val.addr, align 4
  store %"class.boost::system::error_category"* %cat, %"class.boost::system::error_category"** %cat.addr, align 4
  %this1 = load %"class.boost::system::error_condition"** %this.addr
  %0 = load i32* %val.addr, align 4
  %1 = load %"class.boost::system::error_category"** %cat.addr
  call void @_ZN5boost6system15error_conditionC2EiRKNS0_14error_categoryE(%"class.boost::system::error_condition"* %this1, i32 %0, %"class.boost::system::error_category"* %1)
  ret void
}

define linkonce_odr i8* @_ZNK5boost6system12system_error4whatEv(%"class.boost::system::system_error"* %this) unnamed_addr nounwind inlinehint align 2 {
entry:
  %retval = alloca i8*, align 4
  %this.addr = alloca %"class.boost::system::system_error"*, align 4
  %exn.slot = alloca i8*
  %ehselector.slot = alloca i32
  %ref.tmp = alloca %"class.std::basic_string", align 4
  %cleanup.dest.slot = alloca i32
  store %"class.boost::system::system_error"* %this, %"class.boost::system::system_error"** %this.addr, align 4
  %this1 = load %"class.boost::system::system_error"** %this.addr
  %m_what = getelementptr inbounds %"class.boost::system::system_error"* %this1, i32 0, i32 2
  %call = invoke zeroext i1 @_ZNKSs5emptyEv(%"class.std::basic_string"* %m_what)
          to label %invoke.cont unwind label %lpad

invoke.cont:                                      ; preds = %entry
  br i1 %call, label %if.then, label %if.end23

if.then:                                          ; preds = %invoke.cont
  %m_what2 = getelementptr inbounds %"class.boost::system::system_error"* %this1, i32 0, i32 2
  %0 = bitcast %"class.boost::system::system_error"* %this1 to %"class.std::runtime_error"*
  %call3 = call i8* @_ZNKSt13runtime_error4whatEv(%"class.std::runtime_error"* %0) nounwind
  %call6 = invoke %"class.std::basic_string"* @_ZNSsaSEPKc(%"class.std::basic_string"* %m_what2, i8* %call3)
          to label %invoke.cont5 unwind label %lpad4

invoke.cont5:                                     ; preds = %if.then
  %m_what7 = getelementptr inbounds %"class.boost::system::system_error"* %this1, i32 0, i32 2
  %call9 = invoke zeroext i1 @_ZNKSs5emptyEv(%"class.std::basic_string"* %m_what7)
          to label %invoke.cont8 unwind label %lpad4

invoke.cont8:                                     ; preds = %invoke.cont5
  br i1 %call9, label %if.end, label %if.then10

if.then10:                                        ; preds = %invoke.cont8
  %m_what11 = getelementptr inbounds %"class.boost::system::system_error"* %this1, i32 0, i32 2
  %call13 = invoke %"class.std::basic_string"* @_ZNSspLEPKc(%"class.std::basic_string"* %m_what11, i8* getelementptr inbounds ([3 x i8]* @.str, i32 0, i32 0))
          to label %invoke.cont12 unwind label %lpad4

invoke.cont12:                                    ; preds = %if.then10
  br label %if.end

lpad:                                             ; preds = %if.end23, %catch, %entry
  %1 = landingpad { i8*, i32 } personality i8* bitcast (i32 (...)* @__gxx_personality_v0 to i8*)
          filter [0 x i8*] zeroinitializer
  %2 = extractvalue { i8*, i32 } %1, 0
  store i8* %2, i8** %exn.slot
  %3 = extractvalue { i8*, i32 } %1, 1
  store i32 %3, i32* %ehselector.slot
  br label %filter.dispatch

filter.dispatch:                                  ; preds = %lpad
  %exn27 = load i8** %exn.slot
  call void @__cxa_call_unexpected(i8* %exn27) noreturn
  unreachable

lpad4:                                            ; preds = %invoke.cont17, %if.end, %if.then10, %invoke.cont5, %if.then
  %4 = landingpad { i8*, i32 } personality i8* bitcast (i32 (...)* @__gxx_personality_v0 to i8*)
          catch i8* null
  %5 = extractvalue { i8*, i32 } %4, 0
  store i8* %5, i8** %exn.slot
  %6 = extractvalue { i8*, i32 } %4, 1
  store i32 %6, i32* %ehselector.slot
  br label %catch

if.end:                                           ; preds = %invoke.cont12, %invoke.cont8
  %m_what14 = getelementptr inbounds %"class.boost::system::system_error"* %this1, i32 0, i32 2
  %m_error_code = getelementptr inbounds %"class.boost::system::system_error"* %this1, i32 0, i32 1
  invoke void @_ZNK5boost6system10error_code7messageEv(%"class.std::basic_string"* sret %ref.tmp, %"class.boost::system::error_code"* %m_error_code)
          to label %invoke.cont15 unwind label %lpad4

invoke.cont15:                                    ; preds = %if.end
  %call18 = invoke %"class.std::basic_string"* @_ZNSspLERKSs(%"class.std::basic_string"* %m_what14, %"class.std::basic_string"* %ref.tmp)
          to label %invoke.cont17 unwind label %lpad16

invoke.cont17:                                    ; preds = %invoke.cont15
  invoke void @_ZNSsD1Ev(%"class.std::basic_string"* %ref.tmp)
          to label %invoke.cont19 unwind label %lpad4

invoke.cont19:                                    ; preds = %invoke.cont17
  br label %try.cont

lpad16:                                           ; preds = %invoke.cont15
  %7 = landingpad { i8*, i32 } personality i8* bitcast (i32 (...)* @__gxx_personality_v0 to i8*)
          catch i8* null
  %8 = extractvalue { i8*, i32 } %7, 0
  store i8* %8, i8** %exn.slot
  %9 = extractvalue { i8*, i32 } %7, 1
  store i32 %9, i32* %ehselector.slot
  invoke void @_ZNSsD1Ev(%"class.std::basic_string"* %ref.tmp)
          to label %invoke.cont20 unwind label %terminate.lpad

invoke.cont20:                                    ; preds = %lpad16
  br label %catch

catch:                                            ; preds = %invoke.cont20, %lpad4
  %exn = load i8** %exn.slot
  %10 = call i8* @__cxa_begin_catch(i8* %exn) nounwind
  %11 = bitcast %"class.boost::system::system_error"* %this1 to %"class.std::runtime_error"*
  %call21 = call i8* @_ZNKSt13runtime_error4whatEv(%"class.std::runtime_error"* %11) nounwind
  store i8* %call21, i8** %retval
  store i32 1, i32* %cleanup.dest.slot
  invoke void @__cxa_end_catch()
          to label %invoke.cont22 unwind label %lpad

invoke.cont22:                                    ; preds = %catch
  br label %return

try.cont:                                         ; preds = %invoke.cont19
  br label %if.end23

if.end23:                                         ; preds = %try.cont, %invoke.cont
  %m_what24 = getelementptr inbounds %"class.boost::system::system_error"* %this1, i32 0, i32 2
  %call26 = invoke i8* @_ZNKSs5c_strEv(%"class.std::basic_string"* %m_what24)
          to label %invoke.cont25 unwind label %lpad

invoke.cont25:                                    ; preds = %if.end23
  store i8* %call26, i8** %retval
  br label %return

return:                                           ; preds = %invoke.cont25, %invoke.cont22
  %12 = load i8** %retval
  ret i8* %12

terminate.lpad:                                   ; preds = %lpad16
  %13 = landingpad { i8*, i32 } personality i8* bitcast (i32 (...)* @__gxx_personality_v0 to i8*)
          catch i8* null
  call void @_ZSt9terminatev() noreturn nounwind
  unreachable
}

declare zeroext i1 @_ZNKSs5emptyEv(%"class.std::basic_string"*)

declare i32 @__gxx_personality_v0(...)

declare %"class.std::basic_string"* @_ZNSsaSEPKc(%"class.std::basic_string"*, i8*)

declare i8* @_ZNKSt13runtime_error4whatEv(%"class.std::runtime_error"*) nounwind

declare %"class.std::basic_string"* @_ZNSspLEPKc(%"class.std::basic_string"*, i8*)

declare %"class.std::basic_string"* @_ZNSspLERKSs(%"class.std::basic_string"*, %"class.std::basic_string"*)

define linkonce_odr void @_ZNK5boost6system10error_code7messageEv(%"class.std::basic_string"* noalias sret %agg.result, %"class.boost::system::error_code"* %this) align 2 {
entry:
  %this.addr = alloca %"class.boost::system::error_code"*, align 4
  store %"class.boost::system::error_code"* %this, %"class.boost::system::error_code"** %this.addr, align 4
  %this1 = load %"class.boost::system::error_code"** %this.addr
  %m_cat = getelementptr inbounds %"class.boost::system::error_code"* %this1, i32 0, i32 1
  %0 = load %"class.boost::system::error_category"** %m_cat, align 4
  %1 = bitcast %"class.boost::system::error_category"* %0 to void (%"class.std::basic_string"*, %"class.boost::system::error_category"*, i32)***
  %vtable = load void (%"class.std::basic_string"*, %"class.boost::system::error_category"*, i32)*** %1
  %vfn = getelementptr inbounds void (%"class.std::basic_string"*, %"class.boost::system::error_category"*, i32)** %vtable, i64 3
  %2 = load void (%"class.std::basic_string"*, %"class.boost::system::error_category"*, i32)** %vfn
  %call = call i32 @_ZNK5boost6system10error_code5valueEv(%"class.boost::system::error_code"* %this1)
  call void %2(%"class.std::basic_string"* sret %agg.result, %"class.boost::system::error_category"* %0, i32 %call)
  ret void
}

declare void @_ZNSsD1Ev(%"class.std::basic_string"*)

declare void @_ZSt9terminatev()

declare i8* @__cxa_begin_catch(i8*)

declare void @__cxa_end_catch()

declare i8* @_ZNKSs5c_strEv(%"class.std::basic_string"*)

declare void @__cxa_call_unexpected(i8*)

define internal void @__cxx_global_var_init4() section ".text.startup" {
entry:
  call void @_ZN5boost3argILi1EEC1Ev(%"struct.boost::arg"* @_ZN12_GLOBAL__N_12_1E)
  ret void
}

define linkonce_odr void @_ZN5boost3argILi1EEC1Ev(%"struct.boost::arg"* %this) unnamed_addr align 2 {
entry:
  %this.addr = alloca %"struct.boost::arg"*, align 4
  store %"struct.boost::arg"* %this, %"struct.boost::arg"** %this.addr, align 4
  %this1 = load %"struct.boost::arg"** %this.addr
  call void @_ZN5boost3argILi1EEC2Ev(%"struct.boost::arg"* %this1)
  ret void
}

define internal void @__cxx_global_var_init5() section ".text.startup" {
entry:
  call void @_ZN5boost3argILi2EEC1Ev(%"struct.boost::arg.0"* @_ZN12_GLOBAL__N_12_2E)
  ret void
}

define linkonce_odr void @_ZN5boost3argILi2EEC1Ev(%"struct.boost::arg.0"* %this) unnamed_addr align 2 {
entry:
  %this.addr = alloca %"struct.boost::arg.0"*, align 4
  store %"struct.boost::arg.0"* %this, %"struct.boost::arg.0"** %this.addr, align 4
  %this1 = load %"struct.boost::arg.0"** %this.addr
  call void @_ZN5boost3argILi2EEC2Ev(%"struct.boost::arg.0"* %this1)
  ret void
}

define internal void @__cxx_global_var_init6() section ".text.startup" {
entry:
  call void @_ZN5boost3argILi3EEC1Ev(%"struct.boost::arg.2"* @_ZN12_GLOBAL__N_12_3E)
  ret void
}

define linkonce_odr void @_ZN5boost3argILi3EEC1Ev(%"struct.boost::arg.2"* %this) unnamed_addr align 2 {
entry:
  %this.addr = alloca %"struct.boost::arg.2"*, align 4
  store %"struct.boost::arg.2"* %this, %"struct.boost::arg.2"** %this.addr, align 4
  %this1 = load %"struct.boost::arg.2"** %this.addr
  call void @_ZN5boost3argILi3EEC2Ev(%"struct.boost::arg.2"* %this1)
  ret void
}

define internal void @__cxx_global_var_init7() section ".text.startup" {
entry:
  call void @_ZN5boost3argILi4EEC1Ev(%"struct.boost::arg.4"* @_ZN12_GLOBAL__N_12_4E)
  ret void
}

define linkonce_odr void @_ZN5boost3argILi4EEC1Ev(%"struct.boost::arg.4"* %this) unnamed_addr align 2 {
entry:
  %this.addr = alloca %"struct.boost::arg.4"*, align 4
  store %"struct.boost::arg.4"* %this, %"struct.boost::arg.4"** %this.addr, align 4
  %this1 = load %"struct.boost::arg.4"** %this.addr
  call void @_ZN5boost3argILi4EEC2Ev(%"struct.boost::arg.4"* %this1)
  ret void
}

define internal void @__cxx_global_var_init8() section ".text.startup" {
entry:
  call void @_ZN5boost3argILi5EEC1Ev(%"struct.boost::arg.6"* @_ZN12_GLOBAL__N_12_5E)
  ret void
}

define linkonce_odr void @_ZN5boost3argILi5EEC1Ev(%"struct.boost::arg.6"* %this) unnamed_addr align 2 {
entry:
  %this.addr = alloca %"struct.boost::arg.6"*, align 4
  store %"struct.boost::arg.6"* %this, %"struct.boost::arg.6"** %this.addr, align 4
  %this1 = load %"struct.boost::arg.6"** %this.addr
  call void @_ZN5boost3argILi5EEC2Ev(%"struct.boost::arg.6"* %this1)
  ret void
}

define internal void @__cxx_global_var_init9() section ".text.startup" {
entry:
  call void @_ZN5boost3argILi6EEC1Ev(%"struct.boost::arg.8"* @_ZN12_GLOBAL__N_12_6E)
  ret void
}

define linkonce_odr void @_ZN5boost3argILi6EEC1Ev(%"struct.boost::arg.8"* %this) unnamed_addr align 2 {
entry:
  %this.addr = alloca %"struct.boost::arg.8"*, align 4
  store %"struct.boost::arg.8"* %this, %"struct.boost::arg.8"** %this.addr, align 4
  %this1 = load %"struct.boost::arg.8"** %this.addr
  call void @_ZN5boost3argILi6EEC2Ev(%"struct.boost::arg.8"* %this1)
  ret void
}

define internal void @__cxx_global_var_init10() section ".text.startup" {
entry:
  call void @_ZN5boost3argILi7EEC1Ev(%"struct.boost::arg.10"* @_ZN12_GLOBAL__N_12_7E)
  ret void
}

define linkonce_odr void @_ZN5boost3argILi7EEC1Ev(%"struct.boost::arg.10"* %this) unnamed_addr align 2 {
entry:
  %this.addr = alloca %"struct.boost::arg.10"*, align 4
  store %"struct.boost::arg.10"* %this, %"struct.boost::arg.10"** %this.addr, align 4
  %this1 = load %"struct.boost::arg.10"** %this.addr
  call void @_ZN5boost3argILi7EEC2Ev(%"struct.boost::arg.10"* %this1)
  ret void
}

define internal void @__cxx_global_var_init11() section ".text.startup" {
entry:
  call void @_ZN5boost3argILi8EEC1Ev(%"struct.boost::arg.12"* @_ZN12_GLOBAL__N_12_8E)
  ret void
}

define linkonce_odr void @_ZN5boost3argILi8EEC1Ev(%"struct.boost::arg.12"* %this) unnamed_addr align 2 {
entry:
  %this.addr = alloca %"struct.boost::arg.12"*, align 4
  store %"struct.boost::arg.12"* %this, %"struct.boost::arg.12"** %this.addr, align 4
  %this1 = load %"struct.boost::arg.12"** %this.addr
  call void @_ZN5boost3argILi8EEC2Ev(%"struct.boost::arg.12"* %this1)
  ret void
}

define internal void @__cxx_global_var_init12() section ".text.startup" {
entry:
  call void @_ZN5boost3argILi9EEC1Ev(%"struct.boost::arg.14"* @_ZN12_GLOBAL__N_12_9E)
  ret void
}

define linkonce_odr void @_ZN5boost3argILi9EEC1Ev(%"struct.boost::arg.14"* %this) unnamed_addr align 2 {
entry:
  %this.addr = alloca %"struct.boost::arg.14"*, align 4
  store %"struct.boost::arg.14"* %this, %"struct.boost::arg.14"** %this.addr, align 4
  %this1 = load %"struct.boost::arg.14"** %this.addr
  call void @_ZN5boost3argILi9EEC2Ev(%"struct.boost::arg.14"* %this1)
  ret void
}

define internal void @__cxx_global_var_init13() section ".text.startup" {
entry:
  call void @_ZN5boost5mutexC1Ev(%"class.boost::mutex"* @mutex)
  %0 = call i32 @__cxa_atexit(void (i8*)* bitcast (void (%"class.boost::mutex"*)* @_ZN5boost5mutexD1Ev to void (i8*)*), i8* bitcast (%"class.boost::mutex"* @mutex to i8*), i8* @__dso_handle) nounwind
  ret void
}

define linkonce_odr void @_ZN5boost5mutexC1Ev(%"class.boost::mutex"* %this) unnamed_addr align 2 {
entry:
  %this.addr = alloca %"class.boost::mutex"*, align 4
  store %"class.boost::mutex"* %this, %"class.boost::mutex"** %this.addr, align 4
  %this1 = load %"class.boost::mutex"** %this.addr
  call void @_ZN5boost5mutexC2Ev(%"class.boost::mutex"* %this1)
  ret void
}

define linkonce_odr void @_ZN5boost5mutexD1Ev(%"class.boost::mutex"* %this) unnamed_addr align 2 {
entry:
  %this.addr = alloca %"class.boost::mutex"*, align 4
  store %"class.boost::mutex"* %this, %"class.boost::mutex"** %this.addr, align 4
  %this1 = load %"class.boost::mutex"** %this.addr
  call void @_ZN5boost5mutexD2Ev(%"class.boost::mutex"* %this1)
  ret void
}

define internal void @__cxx_global_var_init14() section ".text.startup" {
entry:
  call void @_ZN5boost22condition_variable_anyC1Ev(%"class.boost::condition_variable_any"* @cond)
  %0 = call i32 @__cxa_atexit(void (i8*)* bitcast (void (%"class.boost::condition_variable_any"*)* @_ZN5boost22condition_variable_anyD1Ev to void (i8*)*), i8* bitcast (%"class.boost::condition_variable_any"* @cond to i8*), i8* @__dso_handle) nounwind
  ret void
}

define linkonce_odr void @_ZN5boost22condition_variable_anyC1Ev(%"class.boost::condition_variable_any"* %this) unnamed_addr align 2 {
entry:
  %this.addr = alloca %"class.boost::condition_variable_any"*, align 4
  store %"class.boost::condition_variable_any"* %this, %"class.boost::condition_variable_any"** %this.addr, align 4
  %this1 = load %"class.boost::condition_variable_any"** %this.addr
  call void @_ZN5boost22condition_variable_anyC2Ev(%"class.boost::condition_variable_any"* %this1)
  ret void
}

define linkonce_odr void @_ZN5boost22condition_variable_anyD1Ev(%"class.boost::condition_variable_any"* %this) unnamed_addr align 2 {
entry:
  %this.addr = alloca %"class.boost::condition_variable_any"*, align 4
  store %"class.boost::condition_variable_any"* %this, %"class.boost::condition_variable_any"** %this.addr, align 4
  %this1 = load %"class.boost::condition_variable_any"** %this.addr
  call void @_ZN5boost22condition_variable_anyD2Ev(%"class.boost::condition_variable_any"* %this1)
  ret void
}

define i8* @_Z11player_namei(i32 %state) {
entry:
  %retval = alloca i8*, align 4
  %state.addr = alloca i32, align 4
  store i32 %state, i32* %state.addr, align 4
  %0 = load i32* %state.addr, align 4
  %cmp = icmp eq i32 %0, 1
  br i1 %cmp, label %if.then, label %if.end

if.then:                                          ; preds = %entry
  store i8* getelementptr inbounds ([9 x i8]* @.str15, i32 0, i32 0), i8** %retval
  br label %return

if.end:                                           ; preds = %entry
  %1 = load i32* %state.addr, align 4
  %cmp1 = icmp eq i32 %1, 2
  br i1 %cmp1, label %if.then2, label %if.end3

if.then2:                                         ; preds = %if.end
  store i8* getelementptr inbounds ([9 x i8]* @.str16, i32 0, i32 0), i8** %retval
  br label %return

if.end3:                                          ; preds = %if.end
  %exception = call i8* @__cxa_allocate_exception(i32 4) nounwind
  %2 = bitcast i8* %exception to i8**
  store i8* getelementptr inbounds ([11 x i8]* @.str17, i32 0, i32 0), i8** %2
  call void @__cxa_throw(i8* %exception, i8* bitcast (i8** @_ZTIPKc to i8*), i8* null) noreturn
  unreachable

return:                                           ; preds = %if.then2, %if.then
  %3 = load i8** %retval
  ret i8* %3
}

declare i8* @__cxa_allocate_exception(i32)

declare void @__cxa_throw(i8*, i8*, i8*)

define void @_Z6playerPv(i8* %param) {
entry:
  %param.addr = alloca i8*, align 4
  %lock = alloca %"class.boost::unique_lock", align 4
  %active = alloca i32, align 4
  %other = alloca i32, align 4
  %exn.slot = alloca i8*
  %ehselector.slot = alloca i32
  store i8* %param, i8** %param.addr, align 4
  call void @_ZN5boost11unique_lockINS_5mutexEEC1ERS1_(%"class.boost::unique_lock"* %lock, %"class.boost::mutex"* @mutex)
  %0 = load i8** %param.addr, align 4
  %1 = ptrtoint i8* %0 to i32
  store i32 %1, i32* %active, align 4
  %2 = load i32* %active, align 4
  %cmp = icmp eq i32 %2, 1
  %cond = select i1 %cmp, i32 2, i32 1
  store i32 %cond, i32* %other, align 4
  br label %while.cond

while.cond:                                       ; preds = %do.end, %entry
  %3 = load i32* @state, align 4
  %cmp1 = icmp slt i32 %3, 3
  br i1 %cmp1, label %while.body, label %while.end

while.body:                                       ; preds = %while.cond
  %4 = load i32* %active, align 4
  %call = invoke i8* @_Z11player_namei(i32 %4)
          to label %invoke.cont unwind label %lpad

invoke.cont:                                      ; preds = %while.body
  %call3 = invoke %"class.std::basic_ostream"* @_ZStlsISt11char_traitsIcEERSt13basic_ostreamIcT_ES5_PKc(%"class.std::basic_ostream"* @_ZSt4cout, i8* %call)
          to label %invoke.cont2 unwind label %lpad

invoke.cont2:                                     ; preds = %invoke.cont
  %call5 = invoke %"class.std::basic_ostream"* @_ZStlsISt11char_traitsIcEERSt13basic_ostreamIcT_ES5_PKc(%"class.std::basic_ostream"* %call3, i8* getelementptr inbounds ([8 x i8]* @.str18, i32 0, i32 0))
          to label %invoke.cont4 unwind label %lpad

invoke.cont4:                                     ; preds = %invoke.cont2
  %call7 = invoke %"class.std::basic_ostream"* @_ZNSolsEPFRSoS_E(%"class.std::basic_ostream"* %call5, %"class.std::basic_ostream"* (%"class.std::basic_ostream"*)* @_ZSt4endlIcSt11char_traitsIcEERSt13basic_ostreamIT_T0_ES6_)
          to label %invoke.cont6 unwind label %lpad

invoke.cont6:                                     ; preds = %invoke.cont4
  %5 = load i32* %other, align 4
  store i32 %5, i32* @state, align 4
  invoke void @_ZN5boost22condition_variable_any10notify_allEv(%"class.boost::condition_variable_any"* @cond)
          to label %invoke.cont8 unwind label %lpad

invoke.cont8:                                     ; preds = %invoke.cont6
  br label %do.body

do.body:                                          ; preds = %do.cond, %invoke.cont8
  invoke void @_ZN5boost22condition_variable_any4waitINS_11unique_lockINS_5mutexEEEEEvRT_(%"class.boost::condition_variable_any"* @cond, %"class.boost::unique_lock"* %lock)
          to label %invoke.cont9 unwind label %lpad

invoke.cont9:                                     ; preds = %do.body
  %6 = load i32* @state, align 4
  %7 = load i32* %other, align 4
  %cmp10 = icmp eq i32 %6, %7
  br i1 %cmp10, label %if.then, label %if.end

if.then:                                          ; preds = %invoke.cont9
  %call12 = invoke %"class.std::basic_ostream"* @_ZStlsISt11char_traitsIcEERSt13basic_ostreamIcT_ES5_PKc(%"class.std::basic_ostream"* @_ZSt4cout, i8* getelementptr inbounds ([4 x i8]* @.str19, i32 0, i32 0))
          to label %invoke.cont11 unwind label %lpad

invoke.cont11:                                    ; preds = %if.then
  %8 = load i32* %active, align 4
  %call14 = invoke i8* @_Z11player_namei(i32 %8)
          to label %invoke.cont13 unwind label %lpad

invoke.cont13:                                    ; preds = %invoke.cont11
  %call16 = invoke %"class.std::basic_ostream"* @_ZStlsISt11char_traitsIcEERSt13basic_ostreamIcT_ES5_PKc(%"class.std::basic_ostream"* %call12, i8* %call14)
          to label %invoke.cont15 unwind label %lpad

invoke.cont15:                                    ; preds = %invoke.cont13
  %call18 = invoke %"class.std::basic_ostream"* @_ZStlsISt11char_traitsIcEERSt13basic_ostreamIcT_ES5_PKc(%"class.std::basic_ostream"* %call16, i8* getelementptr inbounds ([19 x i8]* @.str20, i32 0, i32 0))
          to label %invoke.cont17 unwind label %lpad

invoke.cont17:                                    ; preds = %invoke.cont15
  %call20 = invoke %"class.std::basic_ostream"* @_ZNSolsEPFRSoS_E(%"class.std::basic_ostream"* %call18, %"class.std::basic_ostream"* (%"class.std::basic_ostream"*)* @_ZSt4endlIcSt11char_traitsIcEERSt13basic_ostreamIT_T0_ES6_)
          to label %invoke.cont19 unwind label %lpad

invoke.cont19:                                    ; preds = %invoke.cont17
  br label %if.end

lpad:                                             ; preds = %invoke.cont28, %invoke.cont26, %invoke.cont24, %invoke.cont22, %while.end, %invoke.cont17, %invoke.cont15, %invoke.cont13, %invoke.cont11, %if.then, %do.body, %invoke.cont6, %invoke.cont4, %invoke.cont2, %invoke.cont, %while.body
  %9 = landingpad { i8*, i32 } personality i8* bitcast (i32 (...)* @__gxx_personality_v0 to i8*)
          cleanup
  %10 = extractvalue { i8*, i32 } %9, 0
  store i8* %10, i8** %exn.slot
  %11 = extractvalue { i8*, i32 } %9, 1
  store i32 %11, i32* %ehselector.slot
  invoke void @_ZN5boost11unique_lockINS_5mutexEED1Ev(%"class.boost::unique_lock"* %lock)
          to label %invoke.cont31 unwind label %terminate.lpad

if.end:                                           ; preds = %invoke.cont19, %invoke.cont9
  br label %do.cond

do.cond:                                          ; preds = %if.end
  %12 = load i32* @state, align 4
  %13 = load i32* %other, align 4
  %cmp21 = icmp eq i32 %12, %13
  br i1 %cmp21, label %do.body, label %do.end

do.end:                                           ; preds = %do.cond
  br label %while.cond

while.end:                                        ; preds = %while.cond
  %14 = load i32* @state, align 4
  %inc = add nsw i32 %14, 1
  store i32 %inc, i32* @state, align 4
  %15 = load i32* %active, align 4
  %call23 = invoke i8* @_Z11player_namei(i32 %15)
          to label %invoke.cont22 unwind label %lpad

invoke.cont22:                                    ; preds = %while.end
  %call25 = invoke %"class.std::basic_ostream"* @_ZStlsISt11char_traitsIcEERSt13basic_ostreamIcT_ES5_PKc(%"class.std::basic_ostream"* @_ZSt4cout, i8* %call23)
          to label %invoke.cont24 unwind label %lpad

invoke.cont24:                                    ; preds = %invoke.cont22
  %call27 = invoke %"class.std::basic_ostream"* @_ZStlsISt11char_traitsIcEERSt13basic_ostreamIcT_ES5_PKc(%"class.std::basic_ostream"* %call25, i8* getelementptr inbounds ([8 x i8]* @.str21, i32 0, i32 0))
          to label %invoke.cont26 unwind label %lpad

invoke.cont26:                                    ; preds = %invoke.cont24
  %call29 = invoke %"class.std::basic_ostream"* @_ZNSolsEPFRSoS_E(%"class.std::basic_ostream"* %call27, %"class.std::basic_ostream"* (%"class.std::basic_ostream"*)* @_ZSt4endlIcSt11char_traitsIcEERSt13basic_ostreamIT_T0_ES6_)
          to label %invoke.cont28 unwind label %lpad

invoke.cont28:                                    ; preds = %invoke.cont26
  invoke void @_ZN5boost22condition_variable_any10notify_allEv(%"class.boost::condition_variable_any"* @cond)
          to label %invoke.cont30 unwind label %lpad

invoke.cont30:                                    ; preds = %invoke.cont28
  call void @_ZN5boost11unique_lockINS_5mutexEED1Ev(%"class.boost::unique_lock"* %lock)
  ret void

invoke.cont31:                                    ; preds = %lpad
  br label %eh.resume

eh.resume:                                        ; preds = %invoke.cont31
  %exn = load i8** %exn.slot
  %sel = load i32* %ehselector.slot
  %lpad.val = insertvalue { i8*, i32 } undef, i8* %exn, 0
  %lpad.val32 = insertvalue { i8*, i32 } %lpad.val, i32 %sel, 1
  resume { i8*, i32 } %lpad.val32

terminate.lpad:                                   ; preds = %lpad
  %16 = landingpad { i8*, i32 } personality i8* bitcast (i32 (...)* @__gxx_personality_v0 to i8*)
          catch i8* null
  call void @_ZSt9terminatev() noreturn nounwind
  unreachable
}

define linkonce_odr void @_ZN5boost11unique_lockINS_5mutexEEC1ERS1_(%"class.boost::unique_lock"* %this, %"class.boost::mutex"* %m_) unnamed_addr align 2 {
entry:
  %this.addr = alloca %"class.boost::unique_lock"*, align 4
  %m_.addr = alloca %"class.boost::mutex"*, align 4
  store %"class.boost::unique_lock"* %this, %"class.boost::unique_lock"** %this.addr, align 4
  store %"class.boost::mutex"* %m_, %"class.boost::mutex"** %m_.addr, align 4
  %this1 = load %"class.boost::unique_lock"** %this.addr
  %0 = load %"class.boost::mutex"** %m_.addr
  call void @_ZN5boost11unique_lockINS_5mutexEEC2ERS1_(%"class.boost::unique_lock"* %this1, %"class.boost::mutex"* %0)
  ret void
}

declare %"class.std::basic_ostream"* @_ZStlsISt11char_traitsIcEERSt13basic_ostreamIcT_ES5_PKc(%"class.std::basic_ostream"*, i8*)

declare %"class.std::basic_ostream"* @_ZNSolsEPFRSoS_E(%"class.std::basic_ostream"*, %"class.std::basic_ostream"* (%"class.std::basic_ostream"*)*)

declare %"class.std::basic_ostream"* @_ZSt4endlIcSt11char_traitsIcEERSt13basic_ostreamIT_T0_ES6_(%"class.std::basic_ostream"*)

define linkonce_odr void @_ZN5boost22condition_variable_any10notify_allEv(%"class.boost::condition_variable_any"* %this) align 2 {
entry:
  %this.addr = alloca %"class.boost::condition_variable_any"*, align 4
  %internal_lock = alloca %"class.boost::pthread::pthread_mutex_scoped_lock", align 4
  store %"class.boost::condition_variable_any"* %this, %"class.boost::condition_variable_any"** %this.addr, align 4
  %this1 = load %"class.boost::condition_variable_any"** %this.addr
  %internal_mutex = getelementptr inbounds %"class.boost::condition_variable_any"* %this1, i32 0, i32 0
  call void @_ZN5boost7pthread25pthread_mutex_scoped_lockC1EP15pthread_mutex_t(%"class.boost::pthread::pthread_mutex_scoped_lock"* %internal_lock, %union.pthread_mutex_t* %internal_mutex)
  %cond = getelementptr inbounds %"class.boost::condition_variable_any"* %this1, i32 0, i32 1
  %call = call i32 @pthread_cond_broadcast(%union.pthread_cond_t* %cond) nounwind
  %tobool = icmp ne i32 %call, 0
  br i1 %tobool, label %cond.false, label %cond.true

cond.true:                                        ; preds = %entry
  br label %cond.end

cond.false:                                       ; preds = %entry
  call void @__assert_fail(i8* getelementptr inbounds ([31 x i8]* @.str44, i32 0, i32 0), i8* getelementptr inbounds ([70 x i8]* @.str45, i32 0, i32 0), i32 300, i8* getelementptr inbounds ([49 x i8]* @__PRETTY_FUNCTION__._ZN5boost22condition_variable_any10notify_allEv, i32 0, i32 0)) noreturn nounwind
  unreachable
                                                  ; No predecessors!
  br label %cond.end

cond.end:                                         ; preds = %0, %cond.true
  call void @_ZN5boost7pthread25pthread_mutex_scoped_lockD1Ev(%"class.boost::pthread::pthread_mutex_scoped_lock"* %internal_lock)
  ret void
}

define linkonce_odr void @_ZN5boost22condition_variable_any4waitINS_11unique_lockINS_5mutexEEEEEvRT_(%"class.boost::condition_variable_any"* %this, %"class.boost::unique_lock"* %m) align 2 {
entry:
  %this.addr = alloca %"class.boost::condition_variable_any"*, align 4
  %m.addr = alloca %"class.boost::unique_lock"*, align 4
  %res = alloca i32, align 4
  %guard = alloca %"struct.boost::thread_cv_detail::lock_on_exit", align 4
  %check_for_interruption = alloca %"class.boost::detail::interruption_checker", align 4
  %exn.slot = alloca i8*
  %ehselector.slot = alloca i32
  %ref.tmp = alloca %"class.boost::condition_error", align 4
  store %"class.boost::condition_variable_any"* %this, %"class.boost::condition_variable_any"** %this.addr, align 4
  store %"class.boost::unique_lock"* %m, %"class.boost::unique_lock"** %m.addr, align 4
  %this1 = load %"class.boost::condition_variable_any"** %this.addr
  store i32 0, i32* %res, align 4
  call void @_ZN5boost16thread_cv_detail12lock_on_exitINS_11unique_lockINS_5mutexEEEEC1Ev(%"struct.boost::thread_cv_detail::lock_on_exit"* %guard)
  %internal_mutex = getelementptr inbounds %"class.boost::condition_variable_any"* %this1, i32 0, i32 0
  %cond = getelementptr inbounds %"class.boost::condition_variable_any"* %this1, i32 0, i32 1
  invoke void @_ZN5boost6detail20interruption_checkerC1EP15pthread_mutex_tP14pthread_cond_t(%"class.boost::detail::interruption_checker"* %check_for_interruption, %union.pthread_mutex_t* %internal_mutex, %union.pthread_cond_t* %cond)
          to label %invoke.cont unwind label %lpad

invoke.cont:                                      ; preds = %entry
  %0 = load %"class.boost::unique_lock"** %m.addr, align 4
  invoke void @_ZN5boost16thread_cv_detail12lock_on_exitINS_11unique_lockINS_5mutexEEEE8activateERS4_(%"struct.boost::thread_cv_detail::lock_on_exit"* %guard, %"class.boost::unique_lock"* %0)
          to label %invoke.cont3 unwind label %lpad2

invoke.cont3:                                     ; preds = %invoke.cont
  %cond4 = getelementptr inbounds %"class.boost::condition_variable_any"* %this1, i32 0, i32 1
  %internal_mutex5 = getelementptr inbounds %"class.boost::condition_variable_any"* %this1, i32 0, i32 0
  %call = invoke i32 @pthread_cond_wait(%union.pthread_cond_t* %cond4, %union.pthread_mutex_t* %internal_mutex5)
          to label %invoke.cont6 unwind label %lpad2

invoke.cont6:                                     ; preds = %invoke.cont3
  store i32 %call, i32* %res, align 4
  invoke void @_ZN5boost6detail20interruption_checkerD1Ev(%"class.boost::detail::interruption_checker"* %check_for_interruption)
          to label %invoke.cont7 unwind label %lpad

invoke.cont7:                                     ; preds = %invoke.cont6
  call void @_ZN5boost16thread_cv_detail12lock_on_exitINS_11unique_lockINS_5mutexEEEED1Ev(%"struct.boost::thread_cv_detail::lock_on_exit"* %guard)
  call void @_ZN5boost11this_thread18interruption_pointEv()
  %1 = load i32* %res, align 4
  %tobool = icmp ne i32 %1, 0
  br i1 %tobool, label %if.then, label %if.end

if.then:                                          ; preds = %invoke.cont7
  %2 = load i32* %res, align 4
  call void @_ZN5boost15condition_errorC1EiPKc(%"class.boost::condition_error"* %ref.tmp, i32 %2, i8* getelementptr inbounds ([51 x i8]* @.str30, i32 0, i32 0))
  invoke void @_ZN5boost15throw_exceptionINS_15condition_errorEEEvRKT_(%"class.boost::condition_error"* %ref.tmp) noreturn
          to label %invoke.cont11 unwind label %lpad10

invoke.cont11:                                    ; preds = %if.then
  unreachable

lpad:                                             ; preds = %invoke.cont6, %entry
  %3 = landingpad { i8*, i32 } personality i8* bitcast (i32 (...)* @__gxx_personality_v0 to i8*)
          cleanup
  %4 = extractvalue { i8*, i32 } %3, 0
  store i8* %4, i8** %exn.slot
  %5 = extractvalue { i8*, i32 } %3, 1
  store i32 %5, i32* %ehselector.slot
  br label %ehcleanup

lpad2:                                            ; preds = %invoke.cont3, %invoke.cont
  %6 = landingpad { i8*, i32 } personality i8* bitcast (i32 (...)* @__gxx_personality_v0 to i8*)
          cleanup
  %7 = extractvalue { i8*, i32 } %6, 0
  store i8* %7, i8** %exn.slot
  %8 = extractvalue { i8*, i32 } %6, 1
  store i32 %8, i32* %ehselector.slot
  invoke void @_ZN5boost6detail20interruption_checkerD1Ev(%"class.boost::detail::interruption_checker"* %check_for_interruption)
          to label %invoke.cont8 unwind label %terminate.lpad

invoke.cont8:                                     ; preds = %lpad2
  br label %ehcleanup

ehcleanup:                                        ; preds = %invoke.cont8, %lpad
  invoke void @_ZN5boost16thread_cv_detail12lock_on_exitINS_11unique_lockINS_5mutexEEEED1Ev(%"struct.boost::thread_cv_detail::lock_on_exit"* %guard)
          to label %invoke.cont9 unwind label %terminate.lpad

invoke.cont9:                                     ; preds = %ehcleanup
  br label %eh.resume

lpad10:                                           ; preds = %if.then
  %9 = landingpad { i8*, i32 } personality i8* bitcast (i32 (...)* @__gxx_personality_v0 to i8*)
          cleanup
  %10 = extractvalue { i8*, i32 } %9, 0
  store i8* %10, i8** %exn.slot
  %11 = extractvalue { i8*, i32 } %9, 1
  store i32 %11, i32* %ehselector.slot
  call void @_ZN5boost15condition_errorD1Ev(%"class.boost::condition_error"* %ref.tmp) nounwind
  br label %eh.resume

if.end:                                           ; preds = %invoke.cont7
  ret void

eh.resume:                                        ; preds = %lpad10, %invoke.cont9
  %exn = load i8** %exn.slot
  %sel = load i32* %ehselector.slot
  %lpad.val = insertvalue { i8*, i32 } undef, i8* %exn, 0
  %lpad.val13 = insertvalue { i8*, i32 } %lpad.val, i32 %sel, 1
  resume { i8*, i32 } %lpad.val13

terminate.lpad:                                   ; preds = %ehcleanup, %lpad2
  %12 = landingpad { i8*, i32 } personality i8* bitcast (i32 (...)* @__gxx_personality_v0 to i8*)
          catch i8* null
  call void @_ZSt9terminatev() noreturn nounwind
  unreachable
}

define linkonce_odr void @_ZN5boost11unique_lockINS_5mutexEED1Ev(%"class.boost::unique_lock"* %this) unnamed_addr align 2 {
entry:
  %this.addr = alloca %"class.boost::unique_lock"*, align 4
  store %"class.boost::unique_lock"* %this, %"class.boost::unique_lock"** %this.addr, align 4
  %this1 = load %"class.boost::unique_lock"** %this.addr
  call void @_ZN5boost11unique_lockINS_5mutexEED2Ev(%"class.boost::unique_lock"* %this1)
  ret void
}

define i32 @main(i32 %argc, i8** %argv) {
entry:
  %retval = alloca i32, align 4
  %argc.addr = alloca i32, align 4
  %argv.addr = alloca i8**, align 4
  %thrda = alloca %"class.boost::thread", align 4
  %agg.tmp = alloca %class.thread_adapter, align 4
  %thrdb = alloca %"class.boost::thread", align 4
  %agg.tmp1 = alloca %class.thread_adapter, align 4
  %exn.slot = alloca i8*
  %ehselector.slot = alloca i32
  %xt = alloca %"struct.boost::xtime", align 4
  %ref.tmp = alloca %"class.boost::posix_time::ptime", align 4
  %lock = alloca %"class.boost::unique_lock", align 4
  %i = alloca i32, align 4
  %lock16 = alloca %"class.boost::unique_lock", align 4
  %cleanup.dest.slot = alloca i32
  store i32 0, i32* %retval
  store i32 %argc, i32* %argc.addr, align 4
  store i8** %argv, i8*** %argv.addr, align 4
  store i32 0, i32* @state, align 4
  call void @_ZN14thread_adapterC1EPFvPvES0_(%class.thread_adapter* %agg.tmp, void (i8*)* @_Z6playerPv, i8* inttoptr (i32 1 to i8*))
  call void @_ZN5boost6threadC1I14thread_adapterEET_NS_10disable_ifINS_14is_convertibleIRS3_NS_6detail13thread_move_tIS3_EEEEPNS0_5dummyEE4typeE(%"class.boost::thread"* %thrda, %class.thread_adapter* byval align 4 %agg.tmp, %"struct.boost::thread::dummy"* null)
  invoke void @_ZN14thread_adapterC1EPFvPvES0_(%class.thread_adapter* %agg.tmp1, void (i8*)* @_Z6playerPv, i8* inttoptr (i32 2 to i8*))
          to label %invoke.cont unwind label %lpad

invoke.cont:                                      ; preds = %entry
  invoke void @_ZN5boost6threadC1I14thread_adapterEET_NS_10disable_ifINS_14is_convertibleIRS3_NS_6detail13thread_move_tIS3_EEEEPNS0_5dummyEE4typeE(%"class.boost::thread"* %thrdb, %class.thread_adapter* byval align 4 %agg.tmp1, %"struct.boost::thread::dummy"* null)
          to label %invoke.cont2 unwind label %lpad

invoke.cont2:                                     ; preds = %invoke.cont
  %call = invoke i32 @_ZN5boost9xtime_getEPNS_5xtimeEi(%"struct.boost::xtime"* %xt, i32 1)
          to label %invoke.cont4 unwind label %lpad3

invoke.cont4:                                     ; preds = %invoke.cont2
  %sec = getelementptr inbounds %"struct.boost::xtime"* %xt, i32 0, i32 0
  %0 = load i64* %sec, align 4
  %add = add nsw i64 %0, 1
  store i64 %add, i64* %sec, align 4
  invoke void @_ZNK5boost5xtimecvNS_10posix_time5ptimeEEv(%"class.boost::posix_time::ptime"* sret %ref.tmp, %"struct.boost::xtime"* %xt)
          to label %invoke.cont5 unwind label %lpad3

invoke.cont5:                                     ; preds = %invoke.cont4
  invoke void @_ZN5boost6thread5sleepERKNS_10posix_time5ptimeE(%"class.boost::posix_time::ptime"* %ref.tmp)
          to label %invoke.cont6 unwind label %lpad3

invoke.cont6:                                     ; preds = %invoke.cont5
  invoke void @_ZN5boost11unique_lockINS_5mutexEEC1ERS1_(%"class.boost::unique_lock"* %lock, %"class.boost::mutex"* @mutex)
          to label %invoke.cont7 unwind label %lpad3

invoke.cont7:                                     ; preds = %invoke.cont6
  %call10 = invoke %"class.std::basic_ostream"* @_ZStlsISt11char_traitsIcEERSt13basic_ostreamIcT_ES5_PKc(%"class.std::basic_ostream"* @_ZSt4cout, i8* getelementptr inbounds ([15 x i8]* @.str22, i32 0, i32 0))
          to label %invoke.cont9 unwind label %lpad8

invoke.cont9:                                     ; preds = %invoke.cont7
  %call12 = invoke %"class.std::basic_ostream"* @_ZNSolsEPFRSoS_E(%"class.std::basic_ostream"* %call10, %"class.std::basic_ostream"* (%"class.std::basic_ostream"*)* @_ZSt4endlIcSt11char_traitsIcEERSt13basic_ostreamIT_T0_ES6_)
          to label %invoke.cont11 unwind label %lpad8

invoke.cont11:                                    ; preds = %invoke.cont9
  invoke void @_ZN5boost11unique_lockINS_5mutexEED1Ev(%"class.boost::unique_lock"* %lock)
          to label %invoke.cont13 unwind label %lpad3

invoke.cont13:                                    ; preds = %invoke.cont11
  store i32 0, i32* %i, align 4
  br label %for.cond

for.cond:                                         ; preds = %for.inc, %invoke.cont13
  %1 = load i32* %i, align 4
  %cmp = icmp slt i32 %1, 1000000000
  br i1 %cmp, label %for.body, label %for.end

for.body:                                         ; preds = %for.cond
  invoke void @_ZN5boost22condition_variable_any10notify_allEv(%"class.boost::condition_variable_any"* @cond)
          to label %invoke.cont15 unwind label %lpad3

invoke.cont15:                                    ; preds = %for.body
  br label %for.inc

for.inc:                                          ; preds = %invoke.cont15
  %2 = load i32* %i, align 4
  %inc = add nsw i32 %2, 1
  store i32 %inc, i32* %i, align 4
  br label %for.cond

lpad:                                             ; preds = %invoke.cont33, %invoke.cont, %entry
  %3 = landingpad { i8*, i32 } personality i8* bitcast (i32 (...)* @__gxx_personality_v0 to i8*)
          cleanup
  %4 = extractvalue { i8*, i32 } %3, 0
  store i8* %4, i8** %exn.slot
  %5 = extractvalue { i8*, i32 } %3, 1
  store i32 %5, i32* %ehselector.slot
  br label %ehcleanup36

lpad3:                                            ; preds = %invoke.cont32, %invoke.cont30, %invoke.cont28, %invoke.cont26, %do.end, %for.end, %for.body, %invoke.cont11, %invoke.cont6, %invoke.cont5, %invoke.cont4, %invoke.cont2
  %6 = landingpad { i8*, i32 } personality i8* bitcast (i32 (...)* @__gxx_personality_v0 to i8*)
          cleanup
  %7 = extractvalue { i8*, i32 } %6, 0
  store i8* %7, i8** %exn.slot
  %8 = extractvalue { i8*, i32 } %6, 1
  store i32 %8, i32* %ehselector.slot
  br label %ehcleanup

lpad8:                                            ; preds = %invoke.cont9, %invoke.cont7
  %9 = landingpad { i8*, i32 } personality i8* bitcast (i32 (...)* @__gxx_personality_v0 to i8*)
          cleanup
  %10 = extractvalue { i8*, i32 } %9, 0
  store i8* %10, i8** %exn.slot
  %11 = extractvalue { i8*, i32 } %9, 1
  store i32 %11, i32* %ehselector.slot
  invoke void @_ZN5boost11unique_lockINS_5mutexEED1Ev(%"class.boost::unique_lock"* %lock)
          to label %invoke.cont14 unwind label %terminate.lpad

invoke.cont14:                                    ; preds = %lpad8
  br label %ehcleanup

for.end:                                          ; preds = %for.cond
  invoke void @_ZN5boost11unique_lockINS_5mutexEEC1ERS1_(%"class.boost::unique_lock"* %lock16, %"class.boost::mutex"* @mutex)
          to label %invoke.cont17 unwind label %lpad3

invoke.cont17:                                    ; preds = %for.end
  %call20 = invoke %"class.std::basic_ostream"* @_ZStlsISt11char_traitsIcEERSt13basic_ostreamIcT_ES5_PKc(%"class.std::basic_ostream"* @_ZSt4cout, i8* getelementptr inbounds ([16 x i8]* @.str23, i32 0, i32 0))
          to label %invoke.cont19 unwind label %lpad18

invoke.cont19:                                    ; preds = %invoke.cont17
  %call22 = invoke %"class.std::basic_ostream"* @_ZNSolsEPFRSoS_E(%"class.std::basic_ostream"* %call20, %"class.std::basic_ostream"* (%"class.std::basic_ostream"*)* @_ZSt4endlIcSt11char_traitsIcEERSt13basic_ostreamIT_T0_ES6_)
          to label %invoke.cont21 unwind label %lpad18

invoke.cont21:                                    ; preds = %invoke.cont19
  store i32 3, i32* @state, align 4
  invoke void @_ZN5boost22condition_variable_any10notify_allEv(%"class.boost::condition_variable_any"* @cond)
          to label %invoke.cont23 unwind label %lpad18

invoke.cont23:                                    ; preds = %invoke.cont21
  br label %do.body

do.body:                                          ; preds = %do.cond, %invoke.cont23
  invoke void @_ZN5boost22condition_variable_any4waitINS_11unique_lockINS_5mutexEEEEEvRT_(%"class.boost::condition_variable_any"* @cond, %"class.boost::unique_lock"* %lock16)
          to label %invoke.cont24 unwind label %lpad18

invoke.cont24:                                    ; preds = %do.body
  br label %do.cond

do.cond:                                          ; preds = %invoke.cont24
  %12 = load i32* @state, align 4
  %cmp25 = icmp ne i32 %12, 5
  br i1 %cmp25, label %do.body, label %do.end

do.end:                                           ; preds = %do.cond
  invoke void @_ZN5boost11unique_lockINS_5mutexEED1Ev(%"class.boost::unique_lock"* %lock16)
          to label %invoke.cont26 unwind label %lpad3

invoke.cont26:                                    ; preds = %do.end
  %call29 = invoke %"class.std::basic_ostream"* @_ZStlsISt11char_traitsIcEERSt13basic_ostreamIcT_ES5_PKc(%"class.std::basic_ostream"* @_ZSt4cout, i8* getelementptr inbounds ([10 x i8]* @.str24, i32 0, i32 0))
          to label %invoke.cont28 unwind label %lpad3

invoke.cont28:                                    ; preds = %invoke.cont26
  %call31 = invoke %"class.std::basic_ostream"* @_ZNSolsEPFRSoS_E(%"class.std::basic_ostream"* %call29, %"class.std::basic_ostream"* (%"class.std::basic_ostream"*)* @_ZSt4endlIcSt11char_traitsIcEERSt13basic_ostreamIT_T0_ES6_)
          to label %invoke.cont30 unwind label %lpad3

invoke.cont30:                                    ; preds = %invoke.cont28
  invoke void @_ZN5boost6thread4joinEv(%"class.boost::thread"* %thrda)
          to label %invoke.cont32 unwind label %lpad3

invoke.cont32:                                    ; preds = %invoke.cont30
  invoke void @_ZN5boost6thread4joinEv(%"class.boost::thread"* %thrdb)
          to label %invoke.cont33 unwind label %lpad3

invoke.cont33:                                    ; preds = %invoke.cont32
  store i32 0, i32* %retval
  store i32 1, i32* %cleanup.dest.slot
  invoke void @_ZN5boost6threadD1Ev(%"class.boost::thread"* %thrdb)
          to label %invoke.cont34 unwind label %lpad

lpad18:                                           ; preds = %do.body, %invoke.cont21, %invoke.cont19, %invoke.cont17
  %13 = landingpad { i8*, i32 } personality i8* bitcast (i32 (...)* @__gxx_personality_v0 to i8*)
          cleanup
  %14 = extractvalue { i8*, i32 } %13, 0
  store i8* %14, i8** %exn.slot
  %15 = extractvalue { i8*, i32 } %13, 1
  store i32 %15, i32* %ehselector.slot
  invoke void @_ZN5boost11unique_lockINS_5mutexEED1Ev(%"class.boost::unique_lock"* %lock16)
          to label %invoke.cont27 unwind label %terminate.lpad

invoke.cont27:                                    ; preds = %lpad18
  br label %ehcleanup

invoke.cont34:                                    ; preds = %invoke.cont33
  call void @_ZN5boost6threadD1Ev(%"class.boost::thread"* %thrda)
  %16 = load i32* %retval
  ret i32 %16

ehcleanup:                                        ; preds = %invoke.cont27, %invoke.cont14, %lpad3
  invoke void @_ZN5boost6threadD1Ev(%"class.boost::thread"* %thrdb)
          to label %invoke.cont35 unwind label %terminate.lpad

invoke.cont35:                                    ; preds = %ehcleanup
  br label %ehcleanup36

ehcleanup36:                                      ; preds = %invoke.cont35, %lpad
  invoke void @_ZN5boost6threadD1Ev(%"class.boost::thread"* %thrda)
          to label %invoke.cont37 unwind label %terminate.lpad

invoke.cont37:                                    ; preds = %ehcleanup36
  br label %eh.resume

eh.resume:                                        ; preds = %invoke.cont37
  %exn = load i8** %exn.slot
  %sel = load i32* %ehselector.slot
  %lpad.val = insertvalue { i8*, i32 } undef, i8* %exn, 0
  %lpad.val38 = insertvalue { i8*, i32 } %lpad.val, i32 %sel, 1
  resume { i8*, i32 } %lpad.val38

terminate.lpad:                                   ; preds = %ehcleanup36, %ehcleanup, %lpad18, %lpad8
  %17 = landingpad { i8*, i32 } personality i8* bitcast (i32 (...)* @__gxx_personality_v0 to i8*)
          catch i8* null
  call void @_ZSt9terminatev() noreturn nounwind
  unreachable
}

define linkonce_odr void @_ZN5boost6threadC1I14thread_adapterEET_NS_10disable_ifINS_14is_convertibleIRS3_NS_6detail13thread_move_tIS3_EEEEPNS0_5dummyEE4typeE(%"class.boost::thread"* %this, %class.thread_adapter* byval align 4 %f, %"struct.boost::thread::dummy"*) unnamed_addr align 2 {
entry:
  %this.addr = alloca %"class.boost::thread"*, align 4
  %.addr = alloca %"struct.boost::thread::dummy"*, align 4
  store %"class.boost::thread"* %this, %"class.boost::thread"** %this.addr, align 4
  store %"struct.boost::thread::dummy"* %0, %"struct.boost::thread::dummy"** %.addr, align 4
  %this1 = load %"class.boost::thread"** %this.addr
  %1 = load %"struct.boost::thread::dummy"** %.addr, align 4
  call void @_ZN5boost6threadC2I14thread_adapterEET_NS_10disable_ifINS_14is_convertibleIRS3_NS_6detail13thread_move_tIS3_EEEEPNS0_5dummyEE4typeE(%"class.boost::thread"* %this1, %class.thread_adapter* byval align 4 %f, %"struct.boost::thread::dummy"* %1)
  ret void
}

define linkonce_odr void @_ZN14thread_adapterC1EPFvPvES0_(%class.thread_adapter* %this, void (i8*)* %func, i8* %param) unnamed_addr align 2 {
entry:
  %this.addr = alloca %class.thread_adapter*, align 4
  %func.addr = alloca void (i8*)*, align 4
  %param.addr = alloca i8*, align 4
  store %class.thread_adapter* %this, %class.thread_adapter** %this.addr, align 4
  store void (i8*)* %func, void (i8*)** %func.addr, align 4
  store i8* %param, i8** %param.addr, align 4
  %this1 = load %class.thread_adapter** %this.addr
  %0 = load void (i8*)** %func.addr, align 4
  %1 = load i8** %param.addr, align 4
  call void @_ZN14thread_adapterC2EPFvPvES0_(%class.thread_adapter* %this1, void (i8*)* %0, i8* %1)
  ret void
}

define linkonce_odr i32 @_ZN5boost9xtime_getEPNS_5xtimeEi(%"struct.boost::xtime"* %xtp, i32 %clock_type) inlinehint {
entry:
  %retval = alloca i32, align 4
  %xtp.addr = alloca %"struct.boost::xtime"*, align 4
  %clock_type.addr = alloca i32, align 4
  %ref.tmp = alloca %"struct.boost::xtime", align 4
  %ref.tmp1 = alloca %"class.boost::posix_time::ptime", align 4
  store %"struct.boost::xtime"* %xtp, %"struct.boost::xtime"** %xtp.addr, align 4
  store i32 %clock_type, i32* %clock_type.addr, align 4
  %0 = load i32* %clock_type.addr, align 4
  %cmp = icmp eq i32 %0, 1
  br i1 %cmp, label %if.then, label %if.end

if.then:                                          ; preds = %entry
  %1 = load %"struct.boost::xtime"** %xtp.addr, align 4
  call void @_ZN5boost15get_system_timeEv(%"class.boost::posix_time::ptime"* sret %ref.tmp1)
  call void @_ZN5boost9get_xtimeERKNS_10posix_time5ptimeE(%"struct.boost::xtime"* sret %ref.tmp, %"class.boost::posix_time::ptime"* %ref.tmp1)
  %2 = bitcast %"struct.boost::xtime"* %1 to i8*
  %3 = bitcast %"struct.boost::xtime"* %ref.tmp to i8*
  call void @llvm.memcpy.p0i8.p0i8.i32(i8* %2, i8* %3, i32 12, i32 4, i1 false)
  %4 = load i32* %clock_type.addr, align 4
  store i32 %4, i32* %retval
  br label %return

if.end:                                           ; preds = %entry
  store i32 0, i32* %retval
  br label %return

return:                                           ; preds = %if.end, %if.then
  %5 = load i32* %retval
  ret i32 %5
}

define linkonce_odr void @_ZN5boost6thread5sleepERKNS_10posix_time5ptimeE(%"class.boost::posix_time::ptime"* %xt) inlinehint align 2 {
entry:
  %xt.addr = alloca %"class.boost::posix_time::ptime"*, align 4
  store %"class.boost::posix_time::ptime"* %xt, %"class.boost::posix_time::ptime"** %xt.addr, align 4
  %0 = load %"class.boost::posix_time::ptime"** %xt.addr, align 4
  call void @_ZN5boost11this_thread5sleepERKNS_10posix_time5ptimeE(%"class.boost::posix_time::ptime"* %0)
  ret void
}

define linkonce_odr void @_ZNK5boost5xtimecvNS_10posix_time5ptimeEEv(%"class.boost::posix_time::ptime"* noalias sret %agg.result, %"struct.boost::xtime"* %this) align 2 {
entry:
  %this.addr = alloca %"struct.boost::xtime"*, align 4
  %tmp = alloca %"class.boost::posix_time::ptime", align 4
  %ref.tmp = alloca %"class.boost::posix_time::seconds", align 4
  %tmp2 = alloca %"class.boost::posix_time::ptime", align 4
  %ref.tmp3 = alloca %"class.boost::date_time::subsecond_duration", align 4
  store %"struct.boost::xtime"* %this, %"struct.boost::xtime"** %this.addr, align 4
  %this1 = load %"struct.boost::xtime"** %this.addr
  call void @_ZN5boost10posix_time11from_time_tEl(%"class.boost::posix_time::ptime"* sret %tmp, i32 0)
  %0 = bitcast %"class.boost::posix_time::ptime"* %tmp to %"class.boost::date_time::base_time"*
  %sec = getelementptr inbounds %"struct.boost::xtime"* %this1, i32 0, i32 0
  %1 = load i64* %sec, align 4
  %conv = trunc i64 %1 to i32
  call void @_ZN5boost10posix_time7secondsC1El(%"class.boost::posix_time::seconds"* %ref.tmp, i32 %conv)
  %2 = bitcast %"class.boost::posix_time::seconds"* %ref.tmp to %"class.boost::posix_time::time_duration"*
  call void @_ZNK5boost9date_time9base_timeINS_10posix_time5ptimeENS0_19counted_time_systemINS0_16counted_time_repINS2_33millisec_posix_time_system_configEEEEEEplERKNS2_13time_durationE(%"class.boost::posix_time::ptime"* sret %tmp2, %"class.boost::date_time::base_time"* %0, %"class.boost::posix_time::time_duration"* %2)
  %3 = bitcast %"class.boost::posix_time::ptime"* %tmp2 to %"class.boost::date_time::base_time"*
  %nsec = getelementptr inbounds %"struct.boost::xtime"* %this1, i32 0, i32 1
  %4 = load i32* %nsec, align 4
  %add = add nsw i32 %4, 500
  %div = sdiv i32 %add, 1000
  %conv4 = sext i32 %div to i64
  call void @_ZN5boost9date_time18subsecond_durationINS_10posix_time13time_durationELx1000000EEC1Ex(%"class.boost::date_time::subsecond_duration"* %ref.tmp3, i64 %conv4)
  %5 = bitcast %"class.boost::date_time::subsecond_duration"* %ref.tmp3 to %"class.boost::posix_time::time_duration"*
  call void @_ZNK5boost9date_time9base_timeINS_10posix_time5ptimeENS0_19counted_time_systemINS0_16counted_time_repINS2_33millisec_posix_time_system_configEEEEEEplERKNS2_13time_durationE(%"class.boost::posix_time::ptime"* sret %agg.result, %"class.boost::date_time::base_time"* %3, %"class.boost::posix_time::time_duration"* %5)
  ret void
}

declare void @_ZN5boost6thread4joinEv(%"class.boost::thread"*)

define linkonce_odr void @_ZN5boost6threadD1Ev(%"class.boost::thread"* %this) unnamed_addr align 2 {
entry:
  %this.addr = alloca %"class.boost::thread"*, align 4
  store %"class.boost::thread"* %this, %"class.boost::thread"** %this.addr, align 4
  %this1 = load %"class.boost::thread"** %this.addr
  call void @_ZN5boost6threadD2Ev(%"class.boost::thread"* %this1)
  ret void
}

define linkonce_odr void @_ZN5boost6system14error_categoryD1Ev(%"class.boost::system::error_category"* %this) unnamed_addr align 2 {
entry:
  %this.addr = alloca %"class.boost::system::error_category"*, align 4
  store %"class.boost::system::error_category"* %this, %"class.boost::system::error_category"** %this.addr, align 4
  %this1 = load %"class.boost::system::error_category"** %this.addr
  call void @_ZN5boost6system14error_categoryD2Ev(%"class.boost::system::error_category"* %this1)
  ret void
}

define linkonce_odr void @_ZN5boost6system14error_categoryD0Ev(%"class.boost::system::error_category"* %this) unnamed_addr align 2 {
entry:
  %this.addr = alloca %"class.boost::system::error_category"*, align 4
  %exn.slot = alloca i8*
  %ehselector.slot = alloca i32
  store %"class.boost::system::error_category"* %this, %"class.boost::system::error_category"** %this.addr, align 4
  %this1 = load %"class.boost::system::error_category"** %this.addr
  invoke void @_ZN5boost6system14error_categoryD1Ev(%"class.boost::system::error_category"* %this1)
          to label %invoke.cont unwind label %lpad

invoke.cont:                                      ; preds = %entry
  %0 = bitcast %"class.boost::system::error_category"* %this1 to i8*
  call void @_ZdlPv(i8* %0) nounwind
  ret void

lpad:                                             ; preds = %entry
  %1 = landingpad { i8*, i32 } personality i8* bitcast (i32 (...)* @__gxx_personality_v0 to i8*)
          cleanup
  %2 = extractvalue { i8*, i32 } %1, 0
  store i8* %2, i8** %exn.slot
  %3 = extractvalue { i8*, i32 } %1, 1
  store i32 %3, i32* %ehselector.slot
  %4 = bitcast %"class.boost::system::error_category"* %this1 to i8*
  call void @_ZdlPv(i8* %4) nounwind
  br label %eh.resume

eh.resume:                                        ; preds = %lpad
  %exn = load i8** %exn.slot
  %sel = load i32* %ehselector.slot
  %lpad.val = insertvalue { i8*, i32 } undef, i8* %exn, 0
  %lpad.val2 = insertvalue { i8*, i32 } %lpad.val, i32 %sel, 1
  resume { i8*, i32 } %lpad.val2
}

declare void @__cxa_pure_virtual()

define linkonce_odr zeroext i1 @_ZNK5boost6system14error_category10equivalentEiRKNS0_15error_conditionE(%"class.boost::system::error_category"* %this, i32 %code, %"class.boost::system::error_condition"* %condition) unnamed_addr inlinehint align 2 {
entry:
  %this.addr = alloca %"class.boost::system::error_category"*, align 4
  %code.addr = alloca i32, align 4
  %condition.addr = alloca %"class.boost::system::error_condition"*, align 4
  %ref.tmp = alloca %"class.boost::system::error_condition", align 4
  store %"class.boost::system::error_category"* %this, %"class.boost::system::error_category"** %this.addr, align 4
  store i32 %code, i32* %code.addr, align 4
  store %"class.boost::system::error_condition"* %condition, %"class.boost::system::error_condition"** %condition.addr, align 4
  %this1 = load %"class.boost::system::error_category"** %this.addr
  %0 = bitcast %"class.boost::system::error_category"* %this1 to void (%"class.boost::system::error_condition"*, %"class.boost::system::error_category"*, i32)***
  %vtable = load void (%"class.boost::system::error_condition"*, %"class.boost::system::error_category"*, i32)*** %0
  %vfn = getelementptr inbounds void (%"class.boost::system::error_condition"*, %"class.boost::system::error_category"*, i32)** %vtable, i64 4
  %1 = load void (%"class.boost::system::error_condition"*, %"class.boost::system::error_category"*, i32)** %vfn
  %2 = load i32* %code.addr, align 4
  call void %1(%"class.boost::system::error_condition"* sret %ref.tmp, %"class.boost::system::error_category"* %this1, i32 %2)
  %3 = load %"class.boost::system::error_condition"** %condition.addr, align 4
  %call = call zeroext i1 @_ZN5boost6systemeqERKNS0_15error_conditionES3_(%"class.boost::system::error_condition"* %ref.tmp, %"class.boost::system::error_condition"* %3)
  ret i1 %call
}

define linkonce_odr zeroext i1 @_ZNK5boost6system14error_category10equivalentERKNS0_10error_codeEi(%"class.boost::system::error_category"* %this, %"class.boost::system::error_code"* %code, i32 %condition) unnamed_addr inlinehint align 2 {
entry:
  %this.addr = alloca %"class.boost::system::error_category"*, align 4
  %code.addr = alloca %"class.boost::system::error_code"*, align 4
  %condition.addr = alloca i32, align 4
  store %"class.boost::system::error_category"* %this, %"class.boost::system::error_category"** %this.addr, align 4
  store %"class.boost::system::error_code"* %code, %"class.boost::system::error_code"** %code.addr, align 4
  store i32 %condition, i32* %condition.addr, align 4
  %this1 = load %"class.boost::system::error_category"** %this.addr
  %0 = load %"class.boost::system::error_code"** %code.addr, align 4
  %call = call %"class.boost::system::error_category"* @_ZNK5boost6system10error_code8categoryEv(%"class.boost::system::error_code"* %0)
  %call2 = call zeroext i1 @_ZNK5boost6system14error_categoryeqERKS1_(%"class.boost::system::error_category"* %this1, %"class.boost::system::error_category"* %call)
  br i1 %call2, label %land.rhs, label %land.end

land.rhs:                                         ; preds = %entry
  %1 = load %"class.boost::system::error_code"** %code.addr, align 4
  %call3 = call i32 @_ZNK5boost6system10error_code5valueEv(%"class.boost::system::error_code"* %1)
  %2 = load i32* %condition.addr, align 4
  %cmp = icmp eq i32 %call3, %2
  br label %land.end

land.end:                                         ; preds = %land.rhs, %entry
  %3 = phi i1 [ false, %entry ], [ %cmp, %land.rhs ]
  ret i1 %3
}

define linkonce_odr void @_ZN5boost6system12system_errorD1Ev(%"class.boost::system::system_error"* %this) unnamed_addr nounwind align 2 {
entry:
  %this.addr = alloca %"class.boost::system::system_error"*, align 4
  store %"class.boost::system::system_error"* %this, %"class.boost::system::system_error"** %this.addr, align 4
  %this1 = load %"class.boost::system::system_error"** %this.addr
  call void @_ZN5boost6system12system_errorD2Ev(%"class.boost::system::system_error"* %this1) nounwind
  ret void
}

define linkonce_odr void @_ZN5boost6system12system_errorD0Ev(%"class.boost::system::system_error"* %this) unnamed_addr nounwind align 2 {
entry:
  %this.addr = alloca %"class.boost::system::system_error"*, align 4
  store %"class.boost::system::system_error"* %this, %"class.boost::system::system_error"** %this.addr, align 4
  %this1 = load %"class.boost::system::system_error"** %this.addr
  call void @_ZN5boost6system12system_errorD1Ev(%"class.boost::system::system_error"* %this1) nounwind
  %0 = bitcast %"class.boost::system::system_error"* %this1 to i8*
  call void @_ZdlPv(i8* %0) nounwind
  ret void
}

define linkonce_odr void @_ZN5boost6threadC2I14thread_adapterEET_NS_10disable_ifINS_14is_convertibleIRS3_NS_6detail13thread_move_tIS3_EEEEPNS0_5dummyEE4typeE(%"class.boost::thread"* %this, %class.thread_adapter* byval align 4 %f, %"struct.boost::thread::dummy"*) unnamed_addr align 2 {
entry:
  %this.addr = alloca %"class.boost::thread"*, align 4
  %.addr = alloca %"struct.boost::thread::dummy"*, align 4
  %agg.tmp = alloca %class.thread_adapter, align 4
  %exn.slot = alloca i8*
  %ehselector.slot = alloca i32
  store %"class.boost::thread"* %this, %"class.boost::thread"** %this.addr, align 4
  store %"struct.boost::thread::dummy"* %0, %"struct.boost::thread::dummy"** %.addr, align 4
  %this1 = load %"class.boost::thread"** %this.addr
  %thread_info = getelementptr inbounds %"class.boost::thread"* %this1, i32 0, i32 0
  %1 = bitcast %class.thread_adapter* %agg.tmp to i8*
  %2 = bitcast %class.thread_adapter* %f to i8*
  call void @llvm.memcpy.p0i8.p0i8.i32(i8* %1, i8* %2, i32 8, i32 4, i1 false)
  call void @_ZN5boost6thread16make_thread_infoI14thread_adapterEENS_10shared_ptrINS_6detail16thread_data_baseEEET_(%"class.boost::shared_ptr"* sret %thread_info, %class.thread_adapter* byval align 4 %agg.tmp)
  invoke void @_ZN5boost6thread12start_threadEv(%"class.boost::thread"* %this1)
          to label %invoke.cont unwind label %lpad

invoke.cont:                                      ; preds = %entry
  ret void

lpad:                                             ; preds = %entry
  %3 = landingpad { i8*, i32 } personality i8* bitcast (i32 (...)* @__gxx_personality_v0 to i8*)
          cleanup
  %4 = extractvalue { i8*, i32 } %3, 0
  store i8* %4, i8** %exn.slot
  %5 = extractvalue { i8*, i32 } %3, 1
  store i32 %5, i32* %ehselector.slot
  invoke void @_ZN5boost10shared_ptrINS_6detail16thread_data_baseEED1Ev(%"class.boost::shared_ptr"* %thread_info)
          to label %invoke.cont2 unwind label %terminate.lpad

invoke.cont2:                                     ; preds = %lpad
  br label %eh.resume

eh.resume:                                        ; preds = %invoke.cont2
  %exn = load i8** %exn.slot
  %sel = load i32* %ehselector.slot
  %lpad.val = insertvalue { i8*, i32 } undef, i8* %exn, 0
  %lpad.val3 = insertvalue { i8*, i32 } %lpad.val, i32 %sel, 1
  resume { i8*, i32 } %lpad.val3

terminate.lpad:                                   ; preds = %lpad
  %6 = landingpad { i8*, i32 } personality i8* bitcast (i32 (...)* @__gxx_personality_v0 to i8*)
          catch i8* null
  call void @_ZSt9terminatev() noreturn nounwind
  unreachable
}

define linkonce_odr void @_ZN5boost6thread16make_thread_infoI14thread_adapterEENS_10shared_ptrINS_6detail16thread_data_baseEEET_(%"class.boost::shared_ptr"* noalias sret %agg.result, %class.thread_adapter* byval align 4 %f) inlinehint align 2 {
entry:
  %call = call %"class.boost::detail::thread_data"* @_ZN5boost6detail8heap_newINS0_11thread_dataI14thread_adapterEES3_EEPT_RT0_(%class.thread_adapter* %f)
  call void @_ZN5boost10shared_ptrINS_6detail16thread_data_baseEEC1INS1_11thread_dataI14thread_adapterEEEEPT_(%"class.boost::shared_ptr"* %agg.result, %"class.boost::detail::thread_data"* %call)
  ret void
}

declare void @llvm.memcpy.p0i8.p0i8.i32(i8* nocapture, i8* nocapture, i32, i32, i1) nounwind

declare void @_ZN5boost6thread12start_threadEv(%"class.boost::thread"*)

define linkonce_odr void @_ZN5boost10shared_ptrINS_6detail16thread_data_baseEED1Ev(%"class.boost::shared_ptr"* %this) unnamed_addr inlinehint align 2 {
entry:
  %this.addr = alloca %"class.boost::shared_ptr"*, align 4
  store %"class.boost::shared_ptr"* %this, %"class.boost::shared_ptr"** %this.addr, align 4
  %this1 = load %"class.boost::shared_ptr"** %this.addr
  call void @_ZN5boost10shared_ptrINS_6detail16thread_data_baseEED2Ev(%"class.boost::shared_ptr"* %this1)
  ret void
}

define linkonce_odr void @_ZN5boost10shared_ptrINS_6detail16thread_data_baseEED2Ev(%"class.boost::shared_ptr"* %this) unnamed_addr inlinehint align 2 {
entry:
  %this.addr = alloca %"class.boost::shared_ptr"*, align 4
  store %"class.boost::shared_ptr"* %this, %"class.boost::shared_ptr"** %this.addr, align 4
  %this1 = load %"class.boost::shared_ptr"** %this.addr
  %pn = getelementptr inbounds %"class.boost::shared_ptr"* %this1, i32 0, i32 1
  call void @_ZN5boost6detail12shared_countD1Ev(%"class.boost::detail::shared_count"* %pn)
  ret void
}

define linkonce_odr void @_ZN5boost6detail12shared_countD1Ev(%"class.boost::detail::shared_count"* %this) unnamed_addr align 2 {
entry:
  %this.addr = alloca %"class.boost::detail::shared_count"*, align 4
  store %"class.boost::detail::shared_count"* %this, %"class.boost::detail::shared_count"** %this.addr, align 4
  %this1 = load %"class.boost::detail::shared_count"** %this.addr
  call void @_ZN5boost6detail12shared_countD2Ev(%"class.boost::detail::shared_count"* %this1)
  ret void
}

define linkonce_odr void @_ZN5boost6detail12shared_countD2Ev(%"class.boost::detail::shared_count"* %this) unnamed_addr align 2 {
entry:
  %this.addr = alloca %"class.boost::detail::shared_count"*, align 4
  store %"class.boost::detail::shared_count"* %this, %"class.boost::detail::shared_count"** %this.addr, align 4
  %this1 = load %"class.boost::detail::shared_count"** %this.addr
  %pi_ = getelementptr inbounds %"class.boost::detail::shared_count"* %this1, i32 0, i32 0
  %0 = load %"class.boost::detail::sp_counted_base"** %pi_, align 4
  %cmp = icmp ne %"class.boost::detail::sp_counted_base"* %0, null
  br i1 %cmp, label %if.then, label %if.end

if.then:                                          ; preds = %entry
  %pi_2 = getelementptr inbounds %"class.boost::detail::shared_count"* %this1, i32 0, i32 0
  %1 = load %"class.boost::detail::sp_counted_base"** %pi_2, align 4
  call void @_ZN5boost6detail15sp_counted_base7releaseEv(%"class.boost::detail::sp_counted_base"* %1)
  br label %if.end

if.end:                                           ; preds = %if.then, %entry
  ret void
}

define linkonce_odr void @_ZN5boost6detail15sp_counted_base7releaseEv(%"class.boost::detail::sp_counted_base"* %this) align 2 {
entry:
  %this.addr = alloca %"class.boost::detail::sp_counted_base"*, align 4
  store %"class.boost::detail::sp_counted_base"* %this, %"class.boost::detail::sp_counted_base"** %this.addr, align 4
  %this1 = load %"class.boost::detail::sp_counted_base"** %this.addr
  %use_count_ = getelementptr inbounds %"class.boost::detail::sp_counted_base"* %this1, i32 0, i32 1
  %call = call i32 @_ZN5boost6detail23atomic_exchange_and_addEPii(i32* %use_count_, i32 -1)
  %cmp = icmp eq i32 %call, 1
  br i1 %cmp, label %if.then, label %if.end

if.then:                                          ; preds = %entry
  %0 = bitcast %"class.boost::detail::sp_counted_base"* %this1 to void (%"class.boost::detail::sp_counted_base"*)***
  %vtable = load void (%"class.boost::detail::sp_counted_base"*)*** %0
  %vfn = getelementptr inbounds void (%"class.boost::detail::sp_counted_base"*)** %vtable, i64 2
  %1 = load void (%"class.boost::detail::sp_counted_base"*)** %vfn
  call void %1(%"class.boost::detail::sp_counted_base"* %this1)
  call void @_ZN5boost6detail15sp_counted_base12weak_releaseEv(%"class.boost::detail::sp_counted_base"* %this1)
  br label %if.end

if.end:                                           ; preds = %if.then, %entry
  ret void
}

define linkonce_odr i32 @_ZN5boost6detail23atomic_exchange_and_addEPii(i32* %pw, i32 %dv) nounwind inlinehint {
entry:
  %pw.addr = alloca i32*, align 4
  %dv.addr = alloca i32, align 4
  %r = alloca i32, align 4
  store i32* %pw, i32** %pw.addr, align 4
  store i32 %dv, i32* %dv.addr, align 4
  %0 = load i32** %pw.addr, align 4
  %1 = load i32** %pw.addr, align 4
  %2 = load i32* %dv.addr, align 4
  %3 = call i32 asm sideeffect "lock\0A\09xadd $1, $0", "=*m,=r,*m,1,~{memory},~{cc},~{dirflag},~{fpsr},~{flags}"(i32* %0, i32* %1, i32 %2) nounwind, !srcloc !0
  store i32 %3, i32* %r, align 4
  %4 = load i32* %r, align 4
  ret i32 %4
}

define linkonce_odr void @_ZN5boost6detail15sp_counted_base12weak_releaseEv(%"class.boost::detail::sp_counted_base"* %this) align 2 {
entry:
  %this.addr = alloca %"class.boost::detail::sp_counted_base"*, align 4
  store %"class.boost::detail::sp_counted_base"* %this, %"class.boost::detail::sp_counted_base"** %this.addr, align 4
  %this1 = load %"class.boost::detail::sp_counted_base"** %this.addr
  %weak_count_ = getelementptr inbounds %"class.boost::detail::sp_counted_base"* %this1, i32 0, i32 2
  %call = call i32 @_ZN5boost6detail23atomic_exchange_and_addEPii(i32* %weak_count_, i32 -1)
  %cmp = icmp eq i32 %call, 1
  br i1 %cmp, label %if.then, label %if.end

if.then:                                          ; preds = %entry
  %0 = bitcast %"class.boost::detail::sp_counted_base"* %this1 to void (%"class.boost::detail::sp_counted_base"*)***
  %vtable = load void (%"class.boost::detail::sp_counted_base"*)*** %0
  %vfn = getelementptr inbounds void (%"class.boost::detail::sp_counted_base"*)** %vtable, i64 3
  %1 = load void (%"class.boost::detail::sp_counted_base"*)** %vfn
  call void %1(%"class.boost::detail::sp_counted_base"* %this1)
  br label %if.end

if.end:                                           ; preds = %if.then, %entry
  ret void
}

define linkonce_odr void @_ZN5boost10shared_ptrINS_6detail16thread_data_baseEEC1INS1_11thread_dataI14thread_adapterEEEEPT_(%"class.boost::shared_ptr"* %this, %"class.boost::detail::thread_data"* %p) unnamed_addr align 2 {
entry:
  %this.addr = alloca %"class.boost::shared_ptr"*, align 4
  %p.addr = alloca %"class.boost::detail::thread_data"*, align 4
  store %"class.boost::shared_ptr"* %this, %"class.boost::shared_ptr"** %this.addr, align 4
  store %"class.boost::detail::thread_data"* %p, %"class.boost::detail::thread_data"** %p.addr, align 4
  %this1 = load %"class.boost::shared_ptr"** %this.addr
  %0 = load %"class.boost::detail::thread_data"** %p.addr, align 4
  call void @_ZN5boost10shared_ptrINS_6detail16thread_data_baseEEC2INS1_11thread_dataI14thread_adapterEEEEPT_(%"class.boost::shared_ptr"* %this1, %"class.boost::detail::thread_data"* %0)
  ret void
}

define linkonce_odr %"class.boost::detail::thread_data"* @_ZN5boost6detail8heap_newINS0_11thread_dataI14thread_adapterEES3_EEPT_RT0_(%class.thread_adapter* %a1) inlinehint {
entry:
  %a1.addr = alloca %class.thread_adapter*, align 4
  store %class.thread_adapter* %a1, %class.thread_adapter** %a1.addr, align 4
  %0 = load %class.thread_adapter** %a1.addr, align 4
  %call = call %"class.boost::detail::thread_data"* @_ZN5boost6detail13heap_new_implINS0_11thread_dataI14thread_adapterEERS3_EEPT_T0_(%class.thread_adapter* %0)
  ret %"class.boost::detail::thread_data"* %call
}

define linkonce_odr %"class.boost::detail::thread_data"* @_ZN5boost6detail13heap_new_implINS0_11thread_dataI14thread_adapterEERS3_EEPT_T0_(%class.thread_adapter* %a1) inlinehint {
entry:
  %a1.addr = alloca %class.thread_adapter*, align 4
  %agg.tmp = alloca %class.thread_adapter, align 4
  %exn.slot = alloca i8*
  %ehselector.slot = alloca i32
  store %class.thread_adapter* %a1, %class.thread_adapter** %a1.addr, align 4
  %call = call noalias i8* @_Znwj(i32 280)
  %0 = bitcast i8* %call to %"class.boost::detail::thread_data"*
  %1 = load %class.thread_adapter** %a1.addr, align 4
  %2 = bitcast %class.thread_adapter* %agg.tmp to i8*
  %3 = bitcast %class.thread_adapter* %1 to i8*
  call void @llvm.memcpy.p0i8.p0i8.i32(i8* %2, i8* %3, i32 8, i32 4, i1 false)
  invoke void @_ZN5boost6detail11thread_dataI14thread_adapterEC1ES2_(%"class.boost::detail::thread_data"* %0, %class.thread_adapter* byval align 4 %agg.tmp)
          to label %invoke.cont unwind label %lpad

invoke.cont:                                      ; preds = %entry
  ret %"class.boost::detail::thread_data"* %0

lpad:                                             ; preds = %entry
  %4 = landingpad { i8*, i32 } personality i8* bitcast (i32 (...)* @__gxx_personality_v0 to i8*)
          cleanup
  %5 = extractvalue { i8*, i32 } %4, 0
  store i8* %5, i8** %exn.slot
  %6 = extractvalue { i8*, i32 } %4, 1
  store i32 %6, i32* %ehselector.slot
  call void @_ZdlPv(i8* %call) nounwind
  br label %eh.resume

eh.resume:                                        ; preds = %lpad
  %exn = load i8** %exn.slot
  %sel = load i32* %ehselector.slot
  %lpad.val = insertvalue { i8*, i32 } undef, i8* %exn, 0
  %lpad.val1 = insertvalue { i8*, i32 } %lpad.val, i32 %sel, 1
  resume { i8*, i32 } %lpad.val1
}

declare noalias i8* @_Znwj(i32)

define linkonce_odr void @_ZN5boost6detail11thread_dataI14thread_adapterEC1ES2_(%"class.boost::detail::thread_data"* %this, %class.thread_adapter* byval align 4 %f_) unnamed_addr align 2 {
entry:
  %this.addr = alloca %"class.boost::detail::thread_data"*, align 4
  store %"class.boost::detail::thread_data"* %this, %"class.boost::detail::thread_data"** %this.addr, align 4
  %this1 = load %"class.boost::detail::thread_data"** %this.addr
  call void @_ZN5boost6detail11thread_dataI14thread_adapterEC2ES2_(%"class.boost::detail::thread_data"* %this1, %class.thread_adapter* byval align 4 %f_)
  ret void
}

declare void @_ZdlPv(i8*) nounwind

define linkonce_odr void @_ZN5boost6detail11thread_dataI14thread_adapterEC2ES2_(%"class.boost::detail::thread_data"* %this, %class.thread_adapter* byval align 4 %f_) unnamed_addr align 2 {
entry:
  %this.addr = alloca %"class.boost::detail::thread_data"*, align 4
  store %"class.boost::detail::thread_data"* %this, %"class.boost::detail::thread_data"** %this.addr, align 4
  %this1 = load %"class.boost::detail::thread_data"** %this.addr
  %0 = bitcast %"class.boost::detail::thread_data"* %this1 to %"struct.boost::detail::thread_data_base"*
  call void @_ZN5boost6detail16thread_data_baseC2Ev(%"struct.boost::detail::thread_data_base"* %0)
  %1 = bitcast %"class.boost::detail::thread_data"* %this1 to i8***
  store i8** getelementptr inbounds ([5 x i8*]* @_ZTVN5boost6detail11thread_dataI14thread_adapterEE, i64 0, i64 2), i8*** %1
  %f = getelementptr inbounds %"class.boost::detail::thread_data"* %this1, i32 0, i32 1
  %2 = bitcast %class.thread_adapter* %f to i8*
  %3 = bitcast %class.thread_adapter* %f_ to i8*
  call void @llvm.memcpy.p0i8.p0i8.i32(i8* %2, i8* %3, i32 8, i32 4, i1 false)
  ret void
}

define linkonce_odr void @_ZN5boost6detail16thread_data_baseC2Ev(%"struct.boost::detail::thread_data_base"* %this) unnamed_addr align 2 {
entry:
  %this.addr = alloca %"struct.boost::detail::thread_data_base"*, align 4
  %exn.slot = alloca i8*
  %ehselector.slot = alloca i32
  store %"struct.boost::detail::thread_data_base"* %this, %"struct.boost::detail::thread_data_base"** %this.addr, align 4
  %this1 = load %"struct.boost::detail::thread_data_base"** %this.addr
  %0 = bitcast %"struct.boost::detail::thread_data_base"* %this1 to i8*
  %1 = getelementptr inbounds i8* %0, i64 4
  %2 = bitcast i8* %1 to %"class.boost::enable_shared_from_this"*
  call void @_ZN5boost23enable_shared_from_thisINS_6detail16thread_data_baseEEC2Ev(%"class.boost::enable_shared_from_this"* %2)
  %3 = bitcast %"struct.boost::detail::thread_data_base"* %this1 to i8***
  store i8** getelementptr inbounds ([5 x i8*]* @_ZTVN5boost6detail16thread_data_baseE, i64 0, i64 2), i8*** %3
  %self = getelementptr inbounds %"struct.boost::detail::thread_data_base"* %this1, i32 0, i32 2
  invoke void @_ZN5boost10shared_ptrINS_6detail16thread_data_baseEEC1Ev(%"class.boost::shared_ptr"* %self)
          to label %invoke.cont unwind label %lpad

invoke.cont:                                      ; preds = %entry
  %data_mutex = getelementptr inbounds %"struct.boost::detail::thread_data_base"* %this1, i32 0, i32 4
  invoke void @_ZN5boost5mutexC1Ev(%"class.boost::mutex"* %data_mutex)
          to label %invoke.cont3 unwind label %lpad2

invoke.cont3:                                     ; preds = %invoke.cont
  %done_condition = getelementptr inbounds %"struct.boost::detail::thread_data_base"* %this1, i32 0, i32 5
  invoke void @_ZN5boost18condition_variableC1Ev(%"class.boost::condition_variable"* %done_condition)
          to label %invoke.cont5 unwind label %lpad4

invoke.cont5:                                     ; preds = %invoke.cont3
  %sleep_mutex = getelementptr inbounds %"struct.boost::detail::thread_data_base"* %this1, i32 0, i32 6
  invoke void @_ZN5boost5mutexC1Ev(%"class.boost::mutex"* %sleep_mutex)
          to label %invoke.cont7 unwind label %lpad6

invoke.cont7:                                     ; preds = %invoke.cont5
  %sleep_condition = getelementptr inbounds %"struct.boost::detail::thread_data_base"* %this1, i32 0, i32 7
  invoke void @_ZN5boost18condition_variableC1Ev(%"class.boost::condition_variable"* %sleep_condition)
          to label %invoke.cont9 unwind label %lpad8

invoke.cont9:                                     ; preds = %invoke.cont7
  %done = getelementptr inbounds %"struct.boost::detail::thread_data_base"* %this1, i32 0, i32 8
  store i8 0, i8* %done, align 1
  %join_started = getelementptr inbounds %"struct.boost::detail::thread_data_base"* %this1, i32 0, i32 9
  store i8 0, i8* %join_started, align 1
  %joined = getelementptr inbounds %"struct.boost::detail::thread_data_base"* %this1, i32 0, i32 10
  store i8 0, i8* %joined, align 1
  %thread_exit_callbacks = getelementptr inbounds %"struct.boost::detail::thread_data_base"* %this1, i32 0, i32 11
  store %"struct.boost::detail::thread_exit_callback_node"* null, %"struct.boost::detail::thread_exit_callback_node"** %thread_exit_callbacks, align 4
  %tss_data = getelementptr inbounds %"struct.boost::detail::thread_data_base"* %this1, i32 0, i32 12
  invoke void @_ZNSt3mapIPKvN5boost6detail13tss_data_nodeESt4lessIS1_ESaISt4pairIKS1_S4_EEEC1Ev(%"class.std::map"* %tss_data)
          to label %invoke.cont11 unwind label %lpad10

invoke.cont11:                                    ; preds = %invoke.cont9
  %interrupt_enabled = getelementptr inbounds %"struct.boost::detail::thread_data_base"* %this1, i32 0, i32 13
  store i8 1, i8* %interrupt_enabled, align 1
  %interrupt_requested = getelementptr inbounds %"struct.boost::detail::thread_data_base"* %this1, i32 0, i32 14
  store i8 0, i8* %interrupt_requested, align 1
  %current_cond = getelementptr inbounds %"struct.boost::detail::thread_data_base"* %this1, i32 0, i32 16
  store %union.pthread_cond_t* null, %union.pthread_cond_t** %current_cond, align 4
  %notify = getelementptr inbounds %"struct.boost::detail::thread_data_base"* %this1, i32 0, i32 17
  invoke void @_ZNSt6vectorISt4pairIPN5boost18condition_variableEPNS1_5mutexEESaIS6_EEC1Ev(%"class.std::vector"* %notify)
          to label %invoke.cont13 unwind label %lpad12

invoke.cont13:                                    ; preds = %invoke.cont11
  ret void

lpad:                                             ; preds = %entry
  %4 = landingpad { i8*, i32 } personality i8* bitcast (i32 (...)* @__gxx_personality_v0 to i8*)
          cleanup
  %5 = extractvalue { i8*, i32 } %4, 0
  store i8* %5, i8** %exn.slot
  %6 = extractvalue { i8*, i32 } %4, 1
  store i32 %6, i32* %ehselector.slot
  br label %ehcleanup24

lpad2:                                            ; preds = %invoke.cont
  %7 = landingpad { i8*, i32 } personality i8* bitcast (i32 (...)* @__gxx_personality_v0 to i8*)
          cleanup
  %8 = extractvalue { i8*, i32 } %7, 0
  store i8* %8, i8** %exn.slot
  %9 = extractvalue { i8*, i32 } %7, 1
  store i32 %9, i32* %ehselector.slot
  br label %ehcleanup22

lpad4:                                            ; preds = %invoke.cont3
  %10 = landingpad { i8*, i32 } personality i8* bitcast (i32 (...)* @__gxx_personality_v0 to i8*)
          cleanup
  %11 = extractvalue { i8*, i32 } %10, 0
  store i8* %11, i8** %exn.slot
  %12 = extractvalue { i8*, i32 } %10, 1
  store i32 %12, i32* %ehselector.slot
  br label %ehcleanup20

lpad6:                                            ; preds = %invoke.cont5
  %13 = landingpad { i8*, i32 } personality i8* bitcast (i32 (...)* @__gxx_personality_v0 to i8*)
          cleanup
  %14 = extractvalue { i8*, i32 } %13, 0
  store i8* %14, i8** %exn.slot
  %15 = extractvalue { i8*, i32 } %13, 1
  store i32 %15, i32* %ehselector.slot
  br label %ehcleanup18

lpad8:                                            ; preds = %invoke.cont7
  %16 = landingpad { i8*, i32 } personality i8* bitcast (i32 (...)* @__gxx_personality_v0 to i8*)
          cleanup
  %17 = extractvalue { i8*, i32 } %16, 0
  store i8* %17, i8** %exn.slot
  %18 = extractvalue { i8*, i32 } %16, 1
  store i32 %18, i32* %ehselector.slot
  br label %ehcleanup16

lpad10:                                           ; preds = %invoke.cont9
  %19 = landingpad { i8*, i32 } personality i8* bitcast (i32 (...)* @__gxx_personality_v0 to i8*)
          cleanup
  %20 = extractvalue { i8*, i32 } %19, 0
  store i8* %20, i8** %exn.slot
  %21 = extractvalue { i8*, i32 } %19, 1
  store i32 %21, i32* %ehselector.slot
  br label %ehcleanup

lpad12:                                           ; preds = %invoke.cont11
  %22 = landingpad { i8*, i32 } personality i8* bitcast (i32 (...)* @__gxx_personality_v0 to i8*)
          cleanup
  %23 = extractvalue { i8*, i32 } %22, 0
  store i8* %23, i8** %exn.slot
  %24 = extractvalue { i8*, i32 } %22, 1
  store i32 %24, i32* %ehselector.slot
  invoke void @_ZNSt3mapIPKvN5boost6detail13tss_data_nodeESt4lessIS1_ESaISt4pairIKS1_S4_EEED1Ev(%"class.std::map"* %tss_data)
          to label %invoke.cont14 unwind label %terminate.lpad

invoke.cont14:                                    ; preds = %lpad12
  br label %ehcleanup

ehcleanup:                                        ; preds = %invoke.cont14, %lpad10
  invoke void @_ZN5boost18condition_variableD1Ev(%"class.boost::condition_variable"* %sleep_condition)
          to label %invoke.cont15 unwind label %terminate.lpad

invoke.cont15:                                    ; preds = %ehcleanup
  br label %ehcleanup16

ehcleanup16:                                      ; preds = %invoke.cont15, %lpad8
  invoke void @_ZN5boost5mutexD1Ev(%"class.boost::mutex"* %sleep_mutex)
          to label %invoke.cont17 unwind label %terminate.lpad

invoke.cont17:                                    ; preds = %ehcleanup16
  br label %ehcleanup18

ehcleanup18:                                      ; preds = %invoke.cont17, %lpad6
  invoke void @_ZN5boost18condition_variableD1Ev(%"class.boost::condition_variable"* %done_condition)
          to label %invoke.cont19 unwind label %terminate.lpad

invoke.cont19:                                    ; preds = %ehcleanup18
  br label %ehcleanup20

ehcleanup20:                                      ; preds = %invoke.cont19, %lpad4
  invoke void @_ZN5boost5mutexD1Ev(%"class.boost::mutex"* %data_mutex)
          to label %invoke.cont21 unwind label %terminate.lpad

invoke.cont21:                                    ; preds = %ehcleanup20
  br label %ehcleanup22

ehcleanup22:                                      ; preds = %invoke.cont21, %lpad2
  invoke void @_ZN5boost10shared_ptrINS_6detail16thread_data_baseEED1Ev(%"class.boost::shared_ptr"* %self)
          to label %invoke.cont23 unwind label %terminate.lpad

invoke.cont23:                                    ; preds = %ehcleanup22
  br label %ehcleanup24

ehcleanup24:                                      ; preds = %invoke.cont23, %lpad
  %25 = bitcast %"struct.boost::detail::thread_data_base"* %this1 to i8*
  %26 = getelementptr inbounds i8* %25, i64 4
  %27 = bitcast i8* %26 to %"class.boost::enable_shared_from_this"*
  invoke void @_ZN5boost23enable_shared_from_thisINS_6detail16thread_data_baseEED2Ev(%"class.boost::enable_shared_from_this"* %27)
          to label %invoke.cont25 unwind label %terminate.lpad

invoke.cont25:                                    ; preds = %ehcleanup24
  br label %eh.resume

eh.resume:                                        ; preds = %invoke.cont25
  %exn = load i8** %exn.slot
  %sel = load i32* %ehselector.slot
  %lpad.val = insertvalue { i8*, i32 } undef, i8* %exn, 0
  %lpad.val26 = insertvalue { i8*, i32 } %lpad.val, i32 %sel, 1
  resume { i8*, i32 } %lpad.val26

terminate.lpad:                                   ; preds = %ehcleanup24, %ehcleanup22, %ehcleanup20, %ehcleanup18, %ehcleanup16, %ehcleanup, %lpad12
  %28 = landingpad { i8*, i32 } personality i8* bitcast (i32 (...)* @__gxx_personality_v0 to i8*)
          catch i8* null
  call void @_ZSt9terminatev() noreturn nounwind
  unreachable
}

define linkonce_odr void @_ZN5boost6detail11thread_dataI14thread_adapterED1Ev(%"class.boost::detail::thread_data"* %this) unnamed_addr inlinehint align 2 {
entry:
  %this.addr = alloca %"class.boost::detail::thread_data"*, align 4
  store %"class.boost::detail::thread_data"* %this, %"class.boost::detail::thread_data"** %this.addr, align 4
  %this1 = load %"class.boost::detail::thread_data"** %this.addr
  call void @_ZN5boost6detail11thread_dataI14thread_adapterED2Ev(%"class.boost::detail::thread_data"* %this1)
  ret void
}

define linkonce_odr void @_ZN5boost6detail11thread_dataI14thread_adapterED0Ev(%"class.boost::detail::thread_data"* %this) unnamed_addr inlinehint align 2 {
entry:
  %this.addr = alloca %"class.boost::detail::thread_data"*, align 4
  %exn.slot = alloca i8*
  %ehselector.slot = alloca i32
  store %"class.boost::detail::thread_data"* %this, %"class.boost::detail::thread_data"** %this.addr, align 4
  %this1 = load %"class.boost::detail::thread_data"** %this.addr
  invoke void @_ZN5boost6detail11thread_dataI14thread_adapterED1Ev(%"class.boost::detail::thread_data"* %this1)
          to label %invoke.cont unwind label %lpad

invoke.cont:                                      ; preds = %entry
  %0 = bitcast %"class.boost::detail::thread_data"* %this1 to i8*
  call void @_ZdlPv(i8* %0) nounwind
  ret void

lpad:                                             ; preds = %entry
  %1 = landingpad { i8*, i32 } personality i8* bitcast (i32 (...)* @__gxx_personality_v0 to i8*)
          cleanup
  %2 = extractvalue { i8*, i32 } %1, 0
  store i8* %2, i8** %exn.slot
  %3 = extractvalue { i8*, i32 } %1, 1
  store i32 %3, i32* %ehselector.slot
  %4 = bitcast %"class.boost::detail::thread_data"* %this1 to i8*
  call void @_ZdlPv(i8* %4) nounwind
  br label %eh.resume

eh.resume:                                        ; preds = %lpad
  %exn = load i8** %exn.slot
  %sel = load i32* %ehselector.slot
  %lpad.val = insertvalue { i8*, i32 } undef, i8* %exn, 0
  %lpad.val2 = insertvalue { i8*, i32 } %lpad.val, i32 %sel, 1
  resume { i8*, i32 } %lpad.val2
}

define linkonce_odr void @_ZN5boost6detail11thread_dataI14thread_adapterE3runEv(%"class.boost::detail::thread_data"* %this) unnamed_addr align 2 {
entry:
  %this.addr = alloca %"class.boost::detail::thread_data"*, align 4
  store %"class.boost::detail::thread_data"* %this, %"class.boost::detail::thread_data"** %this.addr, align 4
  %this1 = load %"class.boost::detail::thread_data"** %this.addr
  %f = getelementptr inbounds %"class.boost::detail::thread_data"* %this1, i32 0, i32 1
  call void @_ZNK14thread_adapterclEv(%class.thread_adapter* %f)
  ret void
}

define linkonce_odr void @_ZNK14thread_adapterclEv(%class.thread_adapter* %this) align 2 {
entry:
  %this.addr = alloca %class.thread_adapter*, align 4
  store %class.thread_adapter* %this, %class.thread_adapter** %this.addr, align 4
  %this1 = load %class.thread_adapter** %this.addr
  %_func = getelementptr inbounds %class.thread_adapter* %this1, i32 0, i32 0
  %0 = load void (i8*)** %_func, align 4
  %_param = getelementptr inbounds %class.thread_adapter* %this1, i32 0, i32 1
  %1 = load i8** %_param, align 4
  call void %0(i8* %1)
  ret void
}

define linkonce_odr void @_ZN5boost6detail11thread_dataI14thread_adapterED2Ev(%"class.boost::detail::thread_data"* %this) unnamed_addr inlinehint align 2 {
entry:
  %this.addr = alloca %"class.boost::detail::thread_data"*, align 4
  store %"class.boost::detail::thread_data"* %this, %"class.boost::detail::thread_data"** %this.addr, align 4
  %this1 = load %"class.boost::detail::thread_data"** %this.addr
  %0 = bitcast %"class.boost::detail::thread_data"* %this1 to %"struct.boost::detail::thread_data_base"*
  call void @_ZN5boost6detail16thread_data_baseD2Ev(%"struct.boost::detail::thread_data_base"* %0)
  ret void
}

declare void @_ZN5boost6detail16thread_data_baseD2Ev(%"struct.boost::detail::thread_data_base"*)

define linkonce_odr void @_ZN5boost23enable_shared_from_thisINS_6detail16thread_data_baseEEC2Ev(%"class.boost::enable_shared_from_this"* %this) unnamed_addr align 2 {
entry:
  %this.addr = alloca %"class.boost::enable_shared_from_this"*, align 4
  store %"class.boost::enable_shared_from_this"* %this, %"class.boost::enable_shared_from_this"** %this.addr, align 4
  %this1 = load %"class.boost::enable_shared_from_this"** %this.addr
  %weak_this_ = getelementptr inbounds %"class.boost::enable_shared_from_this"* %this1, i32 0, i32 0
  call void @_ZN5boost8weak_ptrINS_6detail16thread_data_baseEEC1Ev(%"class.boost::weak_ptr"* %weak_this_)
  ret void
}

define linkonce_odr void @_ZN5boost10shared_ptrINS_6detail16thread_data_baseEEC1Ev(%"class.boost::shared_ptr"* %this) unnamed_addr align 2 {
entry:
  %this.addr = alloca %"class.boost::shared_ptr"*, align 4
  store %"class.boost::shared_ptr"* %this, %"class.boost::shared_ptr"** %this.addr, align 4
  %this1 = load %"class.boost::shared_ptr"** %this.addr
  call void @_ZN5boost10shared_ptrINS_6detail16thread_data_baseEEC2Ev(%"class.boost::shared_ptr"* %this1)
  ret void
}

define linkonce_odr void @_ZN5boost18condition_variableC1Ev(%"class.boost::condition_variable"* %this) unnamed_addr align 2 {
entry:
  %this.addr = alloca %"class.boost::condition_variable"*, align 4
  store %"class.boost::condition_variable"* %this, %"class.boost::condition_variable"** %this.addr, align 4
  %this1 = load %"class.boost::condition_variable"** %this.addr
  call void @_ZN5boost18condition_variableC2Ev(%"class.boost::condition_variable"* %this1)
  ret void
}

define linkonce_odr void @_ZNSt3mapIPKvN5boost6detail13tss_data_nodeESt4lessIS1_ESaISt4pairIKS1_S4_EEEC1Ev(%"class.std::map"* %this) unnamed_addr align 2 {
entry:
  %this.addr = alloca %"class.std::map"*, align 4
  store %"class.std::map"* %this, %"class.std::map"** %this.addr, align 4
  %this1 = load %"class.std::map"** %this.addr
  call void @_ZNSt3mapIPKvN5boost6detail13tss_data_nodeESt4lessIS1_ESaISt4pairIKS1_S4_EEEC2Ev(%"class.std::map"* %this1)
  ret void
}

define linkonce_odr void @_ZNSt6vectorISt4pairIPN5boost18condition_variableEPNS1_5mutexEESaIS6_EEC1Ev(%"class.std::vector"* %this) unnamed_addr align 2 {
entry:
  %this.addr = alloca %"class.std::vector"*, align 4
  store %"class.std::vector"* %this, %"class.std::vector"** %this.addr, align 4
  %this1 = load %"class.std::vector"** %this.addr
  call void @_ZNSt6vectorISt4pairIPN5boost18condition_variableEPNS1_5mutexEESaIS6_EEC2Ev(%"class.std::vector"* %this1)
  ret void
}

define linkonce_odr void @_ZNSt3mapIPKvN5boost6detail13tss_data_nodeESt4lessIS1_ESaISt4pairIKS1_S4_EEED1Ev(%"class.std::map"* %this) unnamed_addr inlinehint align 2 {
entry:
  %this.addr = alloca %"class.std::map"*, align 4
  store %"class.std::map"* %this, %"class.std::map"** %this.addr, align 4
  %this1 = load %"class.std::map"** %this.addr
  call void @_ZNSt3mapIPKvN5boost6detail13tss_data_nodeESt4lessIS1_ESaISt4pairIKS1_S4_EEED2Ev(%"class.std::map"* %this1)
  ret void
}

define linkonce_odr void @_ZN5boost18condition_variableD1Ev(%"class.boost::condition_variable"* %this) unnamed_addr align 2 {
entry:
  %this.addr = alloca %"class.boost::condition_variable"*, align 4
  store %"class.boost::condition_variable"* %this, %"class.boost::condition_variable"** %this.addr, align 4
  %this1 = load %"class.boost::condition_variable"** %this.addr
  call void @_ZN5boost18condition_variableD2Ev(%"class.boost::condition_variable"* %this1)
  ret void
}

define linkonce_odr void @_ZN5boost23enable_shared_from_thisINS_6detail16thread_data_baseEED2Ev(%"class.boost::enable_shared_from_this"* %this) unnamed_addr align 2 {
entry:
  %this.addr = alloca %"class.boost::enable_shared_from_this"*, align 4
  store %"class.boost::enable_shared_from_this"* %this, %"class.boost::enable_shared_from_this"** %this.addr, align 4
  %this1 = load %"class.boost::enable_shared_from_this"** %this.addr
  %weak_this_ = getelementptr inbounds %"class.boost::enable_shared_from_this"* %this1, i32 0, i32 0
  call void @_ZN5boost8weak_ptrINS_6detail16thread_data_baseEED1Ev(%"class.boost::weak_ptr"* %weak_this_)
  ret void
}

define linkonce_odr void @_ZN5boost8weak_ptrINS_6detail16thread_data_baseEED1Ev(%"class.boost::weak_ptr"* %this) unnamed_addr inlinehint align 2 {
entry:
  %this.addr = alloca %"class.boost::weak_ptr"*, align 4
  store %"class.boost::weak_ptr"* %this, %"class.boost::weak_ptr"** %this.addr, align 4
  %this1 = load %"class.boost::weak_ptr"** %this.addr
  call void @_ZN5boost8weak_ptrINS_6detail16thread_data_baseEED2Ev(%"class.boost::weak_ptr"* %this1)
  ret void
}

define linkonce_odr void @_ZN5boost8weak_ptrINS_6detail16thread_data_baseEED2Ev(%"class.boost::weak_ptr"* %this) unnamed_addr inlinehint align 2 {
entry:
  %this.addr = alloca %"class.boost::weak_ptr"*, align 4
  store %"class.boost::weak_ptr"* %this, %"class.boost::weak_ptr"** %this.addr, align 4
  %this1 = load %"class.boost::weak_ptr"** %this.addr
  %pn = getelementptr inbounds %"class.boost::weak_ptr"* %this1, i32 0, i32 1
  call void @_ZN5boost6detail10weak_countD1Ev(%"class.boost::detail::weak_count"* %pn)
  ret void
}

define linkonce_odr void @_ZN5boost6detail10weak_countD1Ev(%"class.boost::detail::weak_count"* %this) unnamed_addr align 2 {
entry:
  %this.addr = alloca %"class.boost::detail::weak_count"*, align 4
  store %"class.boost::detail::weak_count"* %this, %"class.boost::detail::weak_count"** %this.addr, align 4
  %this1 = load %"class.boost::detail::weak_count"** %this.addr
  call void @_ZN5boost6detail10weak_countD2Ev(%"class.boost::detail::weak_count"* %this1)
  ret void
}

define linkonce_odr void @_ZN5boost6detail10weak_countD2Ev(%"class.boost::detail::weak_count"* %this) unnamed_addr align 2 {
entry:
  %this.addr = alloca %"class.boost::detail::weak_count"*, align 4
  store %"class.boost::detail::weak_count"* %this, %"class.boost::detail::weak_count"** %this.addr, align 4
  %this1 = load %"class.boost::detail::weak_count"** %this.addr
  %pi_ = getelementptr inbounds %"class.boost::detail::weak_count"* %this1, i32 0, i32 0
  %0 = load %"class.boost::detail::sp_counted_base"** %pi_, align 4
  %cmp = icmp ne %"class.boost::detail::sp_counted_base"* %0, null
  br i1 %cmp, label %if.then, label %if.end

if.then:                                          ; preds = %entry
  %pi_2 = getelementptr inbounds %"class.boost::detail::weak_count"* %this1, i32 0, i32 0
  %1 = load %"class.boost::detail::sp_counted_base"** %pi_2, align 4
  call void @_ZN5boost6detail15sp_counted_base12weak_releaseEv(%"class.boost::detail::sp_counted_base"* %1)
  br label %if.end

if.end:                                           ; preds = %if.then, %entry
  ret void
}

define linkonce_odr void @_ZN5boost18condition_variableD2Ev(%"class.boost::condition_variable"* %this) unnamed_addr nounwind align 2 {
entry:
  %this.addr = alloca %"class.boost::condition_variable"*, align 4
  %ret = alloca i32, align 4
  store %"class.boost::condition_variable"* %this, %"class.boost::condition_variable"** %this.addr, align 4
  %this1 = load %"class.boost::condition_variable"** %this.addr
  %internal_mutex = getelementptr inbounds %"class.boost::condition_variable"* %this1, i32 0, i32 0
  %call = call i32 @pthread_mutex_destroy(%union.pthread_mutex_t* %internal_mutex) nounwind
  %tobool = icmp ne i32 %call, 0
  br i1 %tobool, label %cond.false, label %cond.true

cond.true:                                        ; preds = %entry
  br label %cond.end

cond.false:                                       ; preds = %entry
  call void @__assert_fail(i8* getelementptr inbounds ([40 x i8]* @.str25, i32 0, i32 0), i8* getelementptr inbounds ([74 x i8]* @.str26, i32 0, i32 0), i32 52, i8* getelementptr inbounds ([49 x i8]* @__PRETTY_FUNCTION__._ZN5boost18condition_variableD2Ev, i32 0, i32 0)) noreturn nounwind
  unreachable
                                                  ; No predecessors!
  br label %cond.end

cond.end:                                         ; preds = %0, %cond.true
  br label %do.body

do.body:                                          ; preds = %do.cond, %cond.end
  %cond = getelementptr inbounds %"class.boost::condition_variable"* %this1, i32 0, i32 1
  %call2 = call i32 @pthread_cond_destroy(%union.pthread_cond_t* %cond) nounwind
  store i32 %call2, i32* %ret, align 4
  br label %do.cond

do.cond:                                          ; preds = %do.body
  %1 = load i32* %ret, align 4
  %cmp = icmp eq i32 %1, 4
  br i1 %cmp, label %do.body, label %do.end

do.end:                                           ; preds = %do.cond
  %2 = load i32* %ret, align 4
  %tobool3 = icmp ne i32 %2, 0
  br i1 %tobool3, label %cond.false5, label %cond.true4

cond.true4:                                       ; preds = %do.end
  br label %cond.end6

cond.false5:                                      ; preds = %do.end
  call void @__assert_fail(i8* getelementptr inbounds ([5 x i8]* @.str27, i32 0, i32 0), i8* getelementptr inbounds ([74 x i8]* @.str26, i32 0, i32 0), i32 57, i8* getelementptr inbounds ([49 x i8]* @__PRETTY_FUNCTION__._ZN5boost18condition_variableD2Ev, i32 0, i32 0)) noreturn nounwind
  unreachable
                                                  ; No predecessors!
  br label %cond.end6

cond.end6:                                        ; preds = %3, %cond.true4
  ret void
}

declare i32 @pthread_mutex_destroy(%union.pthread_mutex_t*) nounwind

declare void @__assert_fail(i8*, i8*, i32, i8*) noreturn nounwind

declare i32 @pthread_cond_destroy(%union.pthread_cond_t*) nounwind

define linkonce_odr void @_ZNSt3mapIPKvN5boost6detail13tss_data_nodeESt4lessIS1_ESaISt4pairIKS1_S4_EEED2Ev(%"class.std::map"* %this) unnamed_addr inlinehint align 2 {
entry:
  %this.addr = alloca %"class.std::map"*, align 4
  store %"class.std::map"* %this, %"class.std::map"** %this.addr, align 4
  %this1 = load %"class.std::map"** %this.addr
  %_M_t = getelementptr inbounds %"class.std::map"* %this1, i32 0, i32 0
  call void @_ZNSt8_Rb_treeIPKvSt4pairIKS1_N5boost6detail13tss_data_nodeEESt10_Select1stIS7_ESt4lessIS1_ESaIS7_EED1Ev(%"class.std::_Rb_tree"* %_M_t)
  ret void
}

define linkonce_odr void @_ZNSt8_Rb_treeIPKvSt4pairIKS1_N5boost6detail13tss_data_nodeEESt10_Select1stIS7_ESt4lessIS1_ESaIS7_EED1Ev(%"class.std::_Rb_tree"* %this) unnamed_addr align 2 {
entry:
  %this.addr = alloca %"class.std::_Rb_tree"*, align 4
  store %"class.std::_Rb_tree"* %this, %"class.std::_Rb_tree"** %this.addr, align 4
  %this1 = load %"class.std::_Rb_tree"** %this.addr
  call void @_ZNSt8_Rb_treeIPKvSt4pairIKS1_N5boost6detail13tss_data_nodeEESt10_Select1stIS7_ESt4lessIS1_ESaIS7_EED2Ev(%"class.std::_Rb_tree"* %this1)
  ret void
}

define linkonce_odr void @_ZNSt8_Rb_treeIPKvSt4pairIKS1_N5boost6detail13tss_data_nodeEESt10_Select1stIS7_ESt4lessIS1_ESaIS7_EED2Ev(%"class.std::_Rb_tree"* %this) unnamed_addr align 2 {
entry:
  %this.addr = alloca %"class.std::_Rb_tree"*, align 4
  %exn.slot = alloca i8*
  %ehselector.slot = alloca i32
  store %"class.std::_Rb_tree"* %this, %"class.std::_Rb_tree"** %this.addr, align 4
  %this1 = load %"class.std::_Rb_tree"** %this.addr
  %call = invoke %"struct.std::_Rb_tree_node"* @_ZNSt8_Rb_treeIPKvSt4pairIKS1_N5boost6detail13tss_data_nodeEESt10_Select1stIS7_ESt4lessIS1_ESaIS7_EE8_M_beginEv(%"class.std::_Rb_tree"* %this1)
          to label %invoke.cont unwind label %lpad

invoke.cont:                                      ; preds = %entry
  invoke void @_ZNSt8_Rb_treeIPKvSt4pairIKS1_N5boost6detail13tss_data_nodeEESt10_Select1stIS7_ESt4lessIS1_ESaIS7_EE8_M_eraseEPSt13_Rb_tree_nodeIS7_E(%"class.std::_Rb_tree"* %this1, %"struct.std::_Rb_tree_node"* %call)
          to label %invoke.cont2 unwind label %lpad

invoke.cont2:                                     ; preds = %invoke.cont
  %_M_impl = getelementptr inbounds %"class.std::_Rb_tree"* %this1, i32 0, i32 0
  call void @_ZNSt8_Rb_treeIPKvSt4pairIKS1_N5boost6detail13tss_data_nodeEESt10_Select1stIS7_ESt4lessIS1_ESaIS7_EE13_Rb_tree_implISB_Lb0EED1Ev(%"struct.std::_Rb_tree<const void *, std::pair<const void *const, boost::detail::tss_data_node>, std::_Select1st<std::pair<const void *const, boost::detail::tss_data_node> >, std::less<const void *>, std::allocator<std::pair<const void *const, boost::detail::tss_data_node> > >::_Rb_tree_impl"* %_M_impl) nounwind
  ret void

lpad:                                             ; preds = %invoke.cont, %entry
  %0 = landingpad { i8*, i32 } personality i8* bitcast (i32 (...)* @__gxx_personality_v0 to i8*)
          cleanup
  %1 = extractvalue { i8*, i32 } %0, 0
  store i8* %1, i8** %exn.slot
  %2 = extractvalue { i8*, i32 } %0, 1
  store i32 %2, i32* %ehselector.slot
  %_M_impl3 = getelementptr inbounds %"class.std::_Rb_tree"* %this1, i32 0, i32 0
  call void @_ZNSt8_Rb_treeIPKvSt4pairIKS1_N5boost6detail13tss_data_nodeEESt10_Select1stIS7_ESt4lessIS1_ESaIS7_EE13_Rb_tree_implISB_Lb0EED1Ev(%"struct.std::_Rb_tree<const void *, std::pair<const void *const, boost::detail::tss_data_node>, std::_Select1st<std::pair<const void *const, boost::detail::tss_data_node> >, std::less<const void *>, std::allocator<std::pair<const void *const, boost::detail::tss_data_node> > >::_Rb_tree_impl"* %_M_impl3) nounwind
  br label %eh.resume

eh.resume:                                        ; preds = %lpad
  %exn = load i8** %exn.slot
  %sel = load i32* %ehselector.slot
  %lpad.val = insertvalue { i8*, i32 } undef, i8* %exn, 0
  %lpad.val4 = insertvalue { i8*, i32 } %lpad.val, i32 %sel, 1
  resume { i8*, i32 } %lpad.val4
}

define linkonce_odr void @_ZNSt8_Rb_treeIPKvSt4pairIKS1_N5boost6detail13tss_data_nodeEESt10_Select1stIS7_ESt4lessIS1_ESaIS7_EE8_M_eraseEPSt13_Rb_tree_nodeIS7_E(%"class.std::_Rb_tree"* %this, %"struct.std::_Rb_tree_node"* %__x) align 2 {
entry:
  %this.addr = alloca %"class.std::_Rb_tree"*, align 4
  %__x.addr = alloca %"struct.std::_Rb_tree_node"*, align 4
  %__y = alloca %"struct.std::_Rb_tree_node"*, align 4
  store %"class.std::_Rb_tree"* %this, %"class.std::_Rb_tree"** %this.addr, align 4
  store %"struct.std::_Rb_tree_node"* %__x, %"struct.std::_Rb_tree_node"** %__x.addr, align 4
  %this1 = load %"class.std::_Rb_tree"** %this.addr
  br label %while.cond

while.cond:                                       ; preds = %while.body, %entry
  %0 = load %"struct.std::_Rb_tree_node"** %__x.addr, align 4
  %cmp = icmp ne %"struct.std::_Rb_tree_node"* %0, null
  br i1 %cmp, label %while.body, label %while.end

while.body:                                       ; preds = %while.cond
  %1 = load %"struct.std::_Rb_tree_node"** %__x.addr, align 4
  %2 = bitcast %"struct.std::_Rb_tree_node"* %1 to %"struct.std::_Rb_tree_node_base"*
  %call = call %"struct.std::_Rb_tree_node"* @_ZNSt8_Rb_treeIPKvSt4pairIKS1_N5boost6detail13tss_data_nodeEESt10_Select1stIS7_ESt4lessIS1_ESaIS7_EE8_S_rightEPSt18_Rb_tree_node_base(%"struct.std::_Rb_tree_node_base"* %2)
  call void @_ZNSt8_Rb_treeIPKvSt4pairIKS1_N5boost6detail13tss_data_nodeEESt10_Select1stIS7_ESt4lessIS1_ESaIS7_EE8_M_eraseEPSt13_Rb_tree_nodeIS7_E(%"class.std::_Rb_tree"* %this1, %"struct.std::_Rb_tree_node"* %call)
  %3 = load %"struct.std::_Rb_tree_node"** %__x.addr, align 4
  %4 = bitcast %"struct.std::_Rb_tree_node"* %3 to %"struct.std::_Rb_tree_node_base"*
  %call2 = call %"struct.std::_Rb_tree_node"* @_ZNSt8_Rb_treeIPKvSt4pairIKS1_N5boost6detail13tss_data_nodeEESt10_Select1stIS7_ESt4lessIS1_ESaIS7_EE7_S_leftEPSt18_Rb_tree_node_base(%"struct.std::_Rb_tree_node_base"* %4)
  store %"struct.std::_Rb_tree_node"* %call2, %"struct.std::_Rb_tree_node"** %__y, align 4
  %5 = load %"struct.std::_Rb_tree_node"** %__x.addr, align 4
  call void @_ZNSt8_Rb_treeIPKvSt4pairIKS1_N5boost6detail13tss_data_nodeEESt10_Select1stIS7_ESt4lessIS1_ESaIS7_EE15_M_destroy_nodeEPSt13_Rb_tree_nodeIS7_E(%"class.std::_Rb_tree"* %this1, %"struct.std::_Rb_tree_node"* %5)
  %6 = load %"struct.std::_Rb_tree_node"** %__y, align 4
  store %"struct.std::_Rb_tree_node"* %6, %"struct.std::_Rb_tree_node"** %__x.addr, align 4
  br label %while.cond

while.end:                                        ; preds = %while.cond
  ret void
}

define linkonce_odr %"struct.std::_Rb_tree_node"* @_ZNSt8_Rb_treeIPKvSt4pairIKS1_N5boost6detail13tss_data_nodeEESt10_Select1stIS7_ESt4lessIS1_ESaIS7_EE8_M_beginEv(%"class.std::_Rb_tree"* %this) nounwind align 2 {
entry:
  %this.addr = alloca %"class.std::_Rb_tree"*, align 4
  store %"class.std::_Rb_tree"* %this, %"class.std::_Rb_tree"** %this.addr, align 4
  %this1 = load %"class.std::_Rb_tree"** %this.addr
  %_M_impl = getelementptr inbounds %"class.std::_Rb_tree"* %this1, i32 0, i32 0
  %_M_header = getelementptr inbounds %"struct.std::_Rb_tree<const void *, std::pair<const void *const, boost::detail::tss_data_node>, std::_Select1st<std::pair<const void *const, boost::detail::tss_data_node> >, std::less<const void *>, std::allocator<std::pair<const void *const, boost::detail::tss_data_node> > >::_Rb_tree_impl"* %_M_impl, i32 0, i32 1
  %_M_parent = getelementptr inbounds %"struct.std::_Rb_tree_node_base"* %_M_header, i32 0, i32 1
  %0 = load %"struct.std::_Rb_tree_node_base"** %_M_parent, align 4
  %1 = bitcast %"struct.std::_Rb_tree_node_base"* %0 to %"struct.std::_Rb_tree_node"*
  ret %"struct.std::_Rb_tree_node"* %1
}

define linkonce_odr void @_ZNSt8_Rb_treeIPKvSt4pairIKS1_N5boost6detail13tss_data_nodeEESt10_Select1stIS7_ESt4lessIS1_ESaIS7_EE13_Rb_tree_implISB_Lb0EED1Ev(%"struct.std::_Rb_tree<const void *, std::pair<const void *const, boost::detail::tss_data_node>, std::_Select1st<std::pair<const void *const, boost::detail::tss_data_node> >, std::less<const void *>, std::allocator<std::pair<const void *const, boost::detail::tss_data_node> > >::_Rb_tree_impl"* %this) unnamed_addr nounwind inlinehint align 2 {
entry:
  %this.addr = alloca %"struct.std::_Rb_tree<const void *, std::pair<const void *const, boost::detail::tss_data_node>, std::_Select1st<std::pair<const void *const, boost::detail::tss_data_node> >, std::less<const void *>, std::allocator<std::pair<const void *const, boost::detail::tss_data_node> > >::_Rb_tree_impl"*, align 4
  store %"struct.std::_Rb_tree<const void *, std::pair<const void *const, boost::detail::tss_data_node>, std::_Select1st<std::pair<const void *const, boost::detail::tss_data_node> >, std::less<const void *>, std::allocator<std::pair<const void *const, boost::detail::tss_data_node> > >::_Rb_tree_impl"* %this, %"struct.std::_Rb_tree<const void *, std::pair<const void *const, boost::detail::tss_data_node>, std::_Select1st<std::pair<const void *const, boost::detail::tss_data_node> >, std::less<const void *>, std::allocator<std::pair<const void *const, boost::detail::tss_data_node> > >::_Rb_tree_impl"** %this.addr, align 4
  %this1 = load %"struct.std::_Rb_tree<const void *, std::pair<const void *const, boost::detail::tss_data_node>, std::_Select1st<std::pair<const void *const, boost::detail::tss_data_node> >, std::less<const void *>, std::allocator<std::pair<const void *const, boost::detail::tss_data_node> > >::_Rb_tree_impl"** %this.addr
  call void @_ZNSt8_Rb_treeIPKvSt4pairIKS1_N5boost6detail13tss_data_nodeEESt10_Select1stIS7_ESt4lessIS1_ESaIS7_EE13_Rb_tree_implISB_Lb0EED2Ev(%"struct.std::_Rb_tree<const void *, std::pair<const void *const, boost::detail::tss_data_node>, std::_Select1st<std::pair<const void *const, boost::detail::tss_data_node> >, std::less<const void *>, std::allocator<std::pair<const void *const, boost::detail::tss_data_node> > >::_Rb_tree_impl"* %this1) nounwind
  ret void
}

define linkonce_odr void @_ZNSt8_Rb_treeIPKvSt4pairIKS1_N5boost6detail13tss_data_nodeEESt10_Select1stIS7_ESt4lessIS1_ESaIS7_EE13_Rb_tree_implISB_Lb0EED2Ev(%"struct.std::_Rb_tree<const void *, std::pair<const void *const, boost::detail::tss_data_node>, std::_Select1st<std::pair<const void *const, boost::detail::tss_data_node> >, std::less<const void *>, std::allocator<std::pair<const void *const, boost::detail::tss_data_node> > >::_Rb_tree_impl"* %this) unnamed_addr nounwind inlinehint align 2 {
entry:
  %this.addr = alloca %"struct.std::_Rb_tree<const void *, std::pair<const void *const, boost::detail::tss_data_node>, std::_Select1st<std::pair<const void *const, boost::detail::tss_data_node> >, std::less<const void *>, std::allocator<std::pair<const void *const, boost::detail::tss_data_node> > >::_Rb_tree_impl"*, align 4
  store %"struct.std::_Rb_tree<const void *, std::pair<const void *const, boost::detail::tss_data_node>, std::_Select1st<std::pair<const void *const, boost::detail::tss_data_node> >, std::less<const void *>, std::allocator<std::pair<const void *const, boost::detail::tss_data_node> > >::_Rb_tree_impl"* %this, %"struct.std::_Rb_tree<const void *, std::pair<const void *const, boost::detail::tss_data_node>, std::_Select1st<std::pair<const void *const, boost::detail::tss_data_node> >, std::less<const void *>, std::allocator<std::pair<const void *const, boost::detail::tss_data_node> > >::_Rb_tree_impl"** %this.addr, align 4
  %this1 = load %"struct.std::_Rb_tree<const void *, std::pair<const void *const, boost::detail::tss_data_node>, std::_Select1st<std::pair<const void *const, boost::detail::tss_data_node> >, std::less<const void *>, std::allocator<std::pair<const void *const, boost::detail::tss_data_node> > >::_Rb_tree_impl"** %this.addr
  %0 = bitcast %"struct.std::_Rb_tree<const void *, std::pair<const void *const, boost::detail::tss_data_node>, std::_Select1st<std::pair<const void *const, boost::detail::tss_data_node> >, std::less<const void *>, std::allocator<std::pair<const void *const, boost::detail::tss_data_node> > >::_Rb_tree_impl"* %this1 to %"class.std::allocator.16"*
  call void @_ZNSaISt13_Rb_tree_nodeISt4pairIKPKvN5boost6detail13tss_data_nodeEEEED2Ev(%"class.std::allocator.16"* %0) nounwind
  ret void
}

define linkonce_odr void @_ZNSaISt13_Rb_tree_nodeISt4pairIKPKvN5boost6detail13tss_data_nodeEEEED2Ev(%"class.std::allocator.16"* %this) unnamed_addr nounwind align 2 {
entry:
  %this.addr = alloca %"class.std::allocator.16"*, align 4
  store %"class.std::allocator.16"* %this, %"class.std::allocator.16"** %this.addr, align 4
  %this1 = load %"class.std::allocator.16"** %this.addr
  %0 = bitcast %"class.std::allocator.16"* %this1 to %"class.__gnu_cxx::new_allocator.17"*
  call void @_ZN9__gnu_cxx13new_allocatorISt13_Rb_tree_nodeISt4pairIKPKvN5boost6detail13tss_data_nodeEEEED2Ev(%"class.__gnu_cxx::new_allocator.17"* %0) nounwind
  ret void
}

define linkonce_odr void @_ZN9__gnu_cxx13new_allocatorISt13_Rb_tree_nodeISt4pairIKPKvN5boost6detail13tss_data_nodeEEEED2Ev(%"class.__gnu_cxx::new_allocator.17"* %this) unnamed_addr nounwind align 2 {
entry:
  %this.addr = alloca %"class.__gnu_cxx::new_allocator.17"*, align 4
  store %"class.__gnu_cxx::new_allocator.17"* %this, %"class.__gnu_cxx::new_allocator.17"** %this.addr, align 4
  %this1 = load %"class.__gnu_cxx::new_allocator.17"** %this.addr
  ret void
}

define linkonce_odr %"struct.std::_Rb_tree_node"* @_ZNSt8_Rb_treeIPKvSt4pairIKS1_N5boost6detail13tss_data_nodeEESt10_Select1stIS7_ESt4lessIS1_ESaIS7_EE8_S_rightEPSt18_Rb_tree_node_base(%"struct.std::_Rb_tree_node_base"* %__x) nounwind align 2 {
entry:
  %__x.addr = alloca %"struct.std::_Rb_tree_node_base"*, align 4
  store %"struct.std::_Rb_tree_node_base"* %__x, %"struct.std::_Rb_tree_node_base"** %__x.addr, align 4
  %0 = load %"struct.std::_Rb_tree_node_base"** %__x.addr, align 4
  %_M_right = getelementptr inbounds %"struct.std::_Rb_tree_node_base"* %0, i32 0, i32 3
  %1 = load %"struct.std::_Rb_tree_node_base"** %_M_right, align 4
  %2 = bitcast %"struct.std::_Rb_tree_node_base"* %1 to %"struct.std::_Rb_tree_node"*
  ret %"struct.std::_Rb_tree_node"* %2
}

define linkonce_odr %"struct.std::_Rb_tree_node"* @_ZNSt8_Rb_treeIPKvSt4pairIKS1_N5boost6detail13tss_data_nodeEESt10_Select1stIS7_ESt4lessIS1_ESaIS7_EE7_S_leftEPSt18_Rb_tree_node_base(%"struct.std::_Rb_tree_node_base"* %__x) nounwind align 2 {
entry:
  %__x.addr = alloca %"struct.std::_Rb_tree_node_base"*, align 4
  store %"struct.std::_Rb_tree_node_base"* %__x, %"struct.std::_Rb_tree_node_base"** %__x.addr, align 4
  %0 = load %"struct.std::_Rb_tree_node_base"** %__x.addr, align 4
  %_M_left = getelementptr inbounds %"struct.std::_Rb_tree_node_base"* %0, i32 0, i32 2
  %1 = load %"struct.std::_Rb_tree_node_base"** %_M_left, align 4
  %2 = bitcast %"struct.std::_Rb_tree_node_base"* %1 to %"struct.std::_Rb_tree_node"*
  ret %"struct.std::_Rb_tree_node"* %2
}

define linkonce_odr void @_ZNSt8_Rb_treeIPKvSt4pairIKS1_N5boost6detail13tss_data_nodeEESt10_Select1stIS7_ESt4lessIS1_ESaIS7_EE15_M_destroy_nodeEPSt13_Rb_tree_nodeIS7_E(%"class.std::_Rb_tree"* %this, %"struct.std::_Rb_tree_node"* %__p) align 2 {
entry:
  %this.addr = alloca %"class.std::_Rb_tree"*, align 4
  %__p.addr = alloca %"struct.std::_Rb_tree_node"*, align 4
  %temp.lvalue = alloca %"class.std::allocator.24", align 1
  %exn.slot = alloca i8*
  %ehselector.slot = alloca i32
  store %"class.std::_Rb_tree"* %this, %"class.std::_Rb_tree"** %this.addr, align 4
  store %"struct.std::_Rb_tree_node"* %__p, %"struct.std::_Rb_tree_node"** %__p.addr, align 4
  %this1 = load %"class.std::_Rb_tree"** %this.addr
  call void @_ZNKSt8_Rb_treeIPKvSt4pairIKS1_N5boost6detail13tss_data_nodeEESt10_Select1stIS7_ESt4lessIS1_ESaIS7_EE13get_allocatorEv(%"class.std::allocator.24"* sret %temp.lvalue, %"class.std::_Rb_tree"* %this1)
  %0 = bitcast %"class.std::allocator.24"* %temp.lvalue to %"class.__gnu_cxx::new_allocator.25"*
  %1 = load %"struct.std::_Rb_tree_node"** %__p.addr, align 4
  %_M_value_field = getelementptr inbounds %"struct.std::_Rb_tree_node"* %1, i32 0, i32 1
  %call = invoke %"struct.std::pair.22"* @_ZSt11__addressofISt4pairIKPKvN5boost6detail13tss_data_nodeEEEPT_RS8_(%"struct.std::pair.22"* %_M_value_field)
          to label %invoke.cont unwind label %lpad

invoke.cont:                                      ; preds = %entry
  invoke void @_ZN9__gnu_cxx13new_allocatorISt4pairIKPKvN5boost6detail13tss_data_nodeEEE7destroyEPS8_(%"class.__gnu_cxx::new_allocator.25"* %0, %"struct.std::pair.22"* %call)
          to label %invoke.cont2 unwind label %lpad

invoke.cont2:                                     ; preds = %invoke.cont
  call void @_ZNSaISt4pairIKPKvN5boost6detail13tss_data_nodeEEED1Ev(%"class.std::allocator.24"* %temp.lvalue) nounwind
  %2 = load %"struct.std::_Rb_tree_node"** %__p.addr, align 4
  call void @_ZNSt8_Rb_treeIPKvSt4pairIKS1_N5boost6detail13tss_data_nodeEESt10_Select1stIS7_ESt4lessIS1_ESaIS7_EE11_M_put_nodeEPSt13_Rb_tree_nodeIS7_E(%"class.std::_Rb_tree"* %this1, %"struct.std::_Rb_tree_node"* %2)
  ret void

lpad:                                             ; preds = %invoke.cont, %entry
  %3 = landingpad { i8*, i32 } personality i8* bitcast (i32 (...)* @__gxx_personality_v0 to i8*)
          cleanup
  %4 = extractvalue { i8*, i32 } %3, 0
  store i8* %4, i8** %exn.slot
  %5 = extractvalue { i8*, i32 } %3, 1
  store i32 %5, i32* %ehselector.slot
  call void @_ZNSaISt4pairIKPKvN5boost6detail13tss_data_nodeEEED1Ev(%"class.std::allocator.24"* %temp.lvalue) nounwind
  br label %eh.resume

eh.resume:                                        ; preds = %lpad
  %exn = load i8** %exn.slot
  %sel = load i32* %ehselector.slot
  %lpad.val = insertvalue { i8*, i32 } undef, i8* %exn, 0
  %lpad.val3 = insertvalue { i8*, i32 } %lpad.val, i32 %sel, 1
  resume { i8*, i32 } %lpad.val3
}

define linkonce_odr void @_ZNKSt8_Rb_treeIPKvSt4pairIKS1_N5boost6detail13tss_data_nodeEESt10_Select1stIS7_ESt4lessIS1_ESaIS7_EE13get_allocatorEv(%"class.std::allocator.24"* noalias sret %agg.result, %"class.std::_Rb_tree"* %this) align 2 {
entry:
  %this.addr = alloca %"class.std::_Rb_tree"*, align 4
  store %"class.std::_Rb_tree"* %this, %"class.std::_Rb_tree"** %this.addr, align 4
  %this1 = load %"class.std::_Rb_tree"** %this.addr
  %call = call %"class.std::allocator.16"* @_ZNKSt8_Rb_treeIPKvSt4pairIKS1_N5boost6detail13tss_data_nodeEESt10_Select1stIS7_ESt4lessIS1_ESaIS7_EE21_M_get_Node_allocatorEv(%"class.std::_Rb_tree"* %this1)
  call void @_ZNSaISt4pairIKPKvN5boost6detail13tss_data_nodeEEEC1ISt13_Rb_tree_nodeIS6_EEERKSaIT_E(%"class.std::allocator.24"* %agg.result, %"class.std::allocator.16"* %call) nounwind
  ret void
}

define linkonce_odr void @_ZN9__gnu_cxx13new_allocatorISt4pairIKPKvN5boost6detail13tss_data_nodeEEE7destroyEPS8_(%"class.__gnu_cxx::new_allocator.25"* %this, %"struct.std::pair.22"* %__p) align 2 {
entry:
  %this.addr = alloca %"class.__gnu_cxx::new_allocator.25"*, align 4
  %__p.addr = alloca %"struct.std::pair.22"*, align 4
  store %"class.__gnu_cxx::new_allocator.25"* %this, %"class.__gnu_cxx::new_allocator.25"** %this.addr, align 4
  store %"struct.std::pair.22"* %__p, %"struct.std::pair.22"** %__p.addr, align 4
  %this1 = load %"class.__gnu_cxx::new_allocator.25"** %this.addr
  %0 = load %"struct.std::pair.22"** %__p.addr, align 4
  call void @_ZNSt4pairIKPKvN5boost6detail13tss_data_nodeEED1Ev(%"struct.std::pair.22"* %0)
  ret void
}

define linkonce_odr %"struct.std::pair.22"* @_ZSt11__addressofISt4pairIKPKvN5boost6detail13tss_data_nodeEEEPT_RS8_(%"struct.std::pair.22"* %__r) nounwind inlinehint {
entry:
  %__r.addr = alloca %"struct.std::pair.22"*, align 4
  store %"struct.std::pair.22"* %__r, %"struct.std::pair.22"** %__r.addr, align 4
  %0 = load %"struct.std::pair.22"** %__r.addr, align 4
  %1 = bitcast %"struct.std::pair.22"* %0 to i8*
  %2 = bitcast i8* %1 to %"struct.std::pair.22"*
  ret %"struct.std::pair.22"* %2
}

define linkonce_odr void @_ZNSaISt4pairIKPKvN5boost6detail13tss_data_nodeEEED1Ev(%"class.std::allocator.24"* %this) unnamed_addr nounwind align 2 {
entry:
  %this.addr = alloca %"class.std::allocator.24"*, align 4
  store %"class.std::allocator.24"* %this, %"class.std::allocator.24"** %this.addr, align 4
  %this1 = load %"class.std::allocator.24"** %this.addr
  call void @_ZNSaISt4pairIKPKvN5boost6detail13tss_data_nodeEEED2Ev(%"class.std::allocator.24"* %this1) nounwind
  ret void
}

define linkonce_odr void @_ZNSt8_Rb_treeIPKvSt4pairIKS1_N5boost6detail13tss_data_nodeEESt10_Select1stIS7_ESt4lessIS1_ESaIS7_EE11_M_put_nodeEPSt13_Rb_tree_nodeIS7_E(%"class.std::_Rb_tree"* %this, %"struct.std::_Rb_tree_node"* %__p) align 2 {
entry:
  %this.addr = alloca %"class.std::_Rb_tree"*, align 4
  %__p.addr = alloca %"struct.std::_Rb_tree_node"*, align 4
  store %"class.std::_Rb_tree"* %this, %"class.std::_Rb_tree"** %this.addr, align 4
  store %"struct.std::_Rb_tree_node"* %__p, %"struct.std::_Rb_tree_node"** %__p.addr, align 4
  %this1 = load %"class.std::_Rb_tree"** %this.addr
  %_M_impl = getelementptr inbounds %"class.std::_Rb_tree"* %this1, i32 0, i32 0
  %0 = bitcast %"struct.std::_Rb_tree<const void *, std::pair<const void *const, boost::detail::tss_data_node>, std::_Select1st<std::pair<const void *const, boost::detail::tss_data_node> >, std::less<const void *>, std::allocator<std::pair<const void *const, boost::detail::tss_data_node> > >::_Rb_tree_impl"* %_M_impl to %"class.std::allocator.16"*
  %1 = bitcast %"class.std::allocator.16"* %0 to %"class.__gnu_cxx::new_allocator.17"*
  %2 = load %"struct.std::_Rb_tree_node"** %__p.addr, align 4
  call void @_ZN9__gnu_cxx13new_allocatorISt13_Rb_tree_nodeISt4pairIKPKvN5boost6detail13tss_data_nodeEEEE10deallocateEPSA_j(%"class.__gnu_cxx::new_allocator.17"* %1, %"struct.std::_Rb_tree_node"* %2, i32 1)
  ret void
}

define linkonce_odr void @_ZN9__gnu_cxx13new_allocatorISt13_Rb_tree_nodeISt4pairIKPKvN5boost6detail13tss_data_nodeEEEE10deallocateEPSA_j(%"class.__gnu_cxx::new_allocator.17"* %this, %"struct.std::_Rb_tree_node"* %__p, i32) nounwind align 2 {
entry:
  %this.addr = alloca %"class.__gnu_cxx::new_allocator.17"*, align 4
  %__p.addr = alloca %"struct.std::_Rb_tree_node"*, align 4
  %.addr = alloca i32, align 4
  store %"class.__gnu_cxx::new_allocator.17"* %this, %"class.__gnu_cxx::new_allocator.17"** %this.addr, align 4
  store %"struct.std::_Rb_tree_node"* %__p, %"struct.std::_Rb_tree_node"** %__p.addr, align 4
  store i32 %0, i32* %.addr, align 4
  %this1 = load %"class.__gnu_cxx::new_allocator.17"** %this.addr
  %1 = load %"struct.std::_Rb_tree_node"** %__p.addr, align 4
  %2 = bitcast %"struct.std::_Rb_tree_node"* %1 to i8*
  call void @_ZdlPv(i8* %2) nounwind
  ret void
}

define linkonce_odr void @_ZNSaISt4pairIKPKvN5boost6detail13tss_data_nodeEEED2Ev(%"class.std::allocator.24"* %this) unnamed_addr nounwind align 2 {
entry:
  %this.addr = alloca %"class.std::allocator.24"*, align 4
  store %"class.std::allocator.24"* %this, %"class.std::allocator.24"** %this.addr, align 4
  %this1 = load %"class.std::allocator.24"** %this.addr
  %0 = bitcast %"class.std::allocator.24"* %this1 to %"class.__gnu_cxx::new_allocator.25"*
  call void @_ZN9__gnu_cxx13new_allocatorISt4pairIKPKvN5boost6detail13tss_data_nodeEEED2Ev(%"class.__gnu_cxx::new_allocator.25"* %0) nounwind
  ret void
}

define linkonce_odr void @_ZN9__gnu_cxx13new_allocatorISt4pairIKPKvN5boost6detail13tss_data_nodeEEED2Ev(%"class.__gnu_cxx::new_allocator.25"* %this) unnamed_addr nounwind align 2 {
entry:
  %this.addr = alloca %"class.__gnu_cxx::new_allocator.25"*, align 4
  store %"class.__gnu_cxx::new_allocator.25"* %this, %"class.__gnu_cxx::new_allocator.25"** %this.addr, align 4
  %this1 = load %"class.__gnu_cxx::new_allocator.25"** %this.addr
  ret void
}

define linkonce_odr void @_ZNSt4pairIKPKvN5boost6detail13tss_data_nodeEED1Ev(%"struct.std::pair.22"* %this) unnamed_addr inlinehint align 2 {
entry:
  %this.addr = alloca %"struct.std::pair.22"*, align 4
  store %"struct.std::pair.22"* %this, %"struct.std::pair.22"** %this.addr, align 4
  %this1 = load %"struct.std::pair.22"** %this.addr
  call void @_ZNSt4pairIKPKvN5boost6detail13tss_data_nodeEED2Ev(%"struct.std::pair.22"* %this1)
  ret void
}

define linkonce_odr void @_ZNSt4pairIKPKvN5boost6detail13tss_data_nodeEED2Ev(%"struct.std::pair.22"* %this) unnamed_addr inlinehint align 2 {
entry:
  %this.addr = alloca %"struct.std::pair.22"*, align 4
  store %"struct.std::pair.22"* %this, %"struct.std::pair.22"** %this.addr, align 4
  %this1 = load %"struct.std::pair.22"** %this.addr
  %second = getelementptr inbounds %"struct.std::pair.22"* %this1, i32 0, i32 1
  call void @_ZN5boost6detail13tss_data_nodeD1Ev(%"struct.boost::detail::tss_data_node"* %second)
  ret void
}

define linkonce_odr void @_ZN5boost6detail13tss_data_nodeD1Ev(%"struct.boost::detail::tss_data_node"* %this) unnamed_addr inlinehint align 2 {
entry:
  %this.addr = alloca %"struct.boost::detail::tss_data_node"*, align 4
  store %"struct.boost::detail::tss_data_node"* %this, %"struct.boost::detail::tss_data_node"** %this.addr, align 4
  %this1 = load %"struct.boost::detail::tss_data_node"** %this.addr
  call void @_ZN5boost6detail13tss_data_nodeD2Ev(%"struct.boost::detail::tss_data_node"* %this1)
  ret void
}

define linkonce_odr void @_ZN5boost6detail13tss_data_nodeD2Ev(%"struct.boost::detail::tss_data_node"* %this) unnamed_addr inlinehint align 2 {
entry:
  %this.addr = alloca %"struct.boost::detail::tss_data_node"*, align 4
  store %"struct.boost::detail::tss_data_node"* %this, %"struct.boost::detail::tss_data_node"** %this.addr, align 4
  %this1 = load %"struct.boost::detail::tss_data_node"** %this.addr
  %func = getelementptr inbounds %"struct.boost::detail::tss_data_node"* %this1, i32 0, i32 0
  call void @_ZN5boost10shared_ptrINS_6detail20tss_cleanup_functionEED1Ev(%"class.boost::shared_ptr.23"* %func)
  ret void
}

define linkonce_odr void @_ZN5boost10shared_ptrINS_6detail20tss_cleanup_functionEED1Ev(%"class.boost::shared_ptr.23"* %this) unnamed_addr inlinehint align 2 {
entry:
  %this.addr = alloca %"class.boost::shared_ptr.23"*, align 4
  store %"class.boost::shared_ptr.23"* %this, %"class.boost::shared_ptr.23"** %this.addr, align 4
  %this1 = load %"class.boost::shared_ptr.23"** %this.addr
  call void @_ZN5boost10shared_ptrINS_6detail20tss_cleanup_functionEED2Ev(%"class.boost::shared_ptr.23"* %this1)
  ret void
}

define linkonce_odr void @_ZN5boost10shared_ptrINS_6detail20tss_cleanup_functionEED2Ev(%"class.boost::shared_ptr.23"* %this) unnamed_addr inlinehint align 2 {
entry:
  %this.addr = alloca %"class.boost::shared_ptr.23"*, align 4
  store %"class.boost::shared_ptr.23"* %this, %"class.boost::shared_ptr.23"** %this.addr, align 4
  %this1 = load %"class.boost::shared_ptr.23"** %this.addr
  %pn = getelementptr inbounds %"class.boost::shared_ptr.23"* %this1, i32 0, i32 1
  call void @_ZN5boost6detail12shared_countD1Ev(%"class.boost::detail::shared_count"* %pn)
  ret void
}

define linkonce_odr void @_ZNSaISt4pairIKPKvN5boost6detail13tss_data_nodeEEEC1ISt13_Rb_tree_nodeIS6_EEERKSaIT_E(%"class.std::allocator.24"* %this, %"class.std::allocator.16"*) unnamed_addr nounwind align 2 {
entry:
  %this.addr = alloca %"class.std::allocator.24"*, align 4
  %.addr = alloca %"class.std::allocator.16"*, align 4
  store %"class.std::allocator.24"* %this, %"class.std::allocator.24"** %this.addr, align 4
  store %"class.std::allocator.16"* %0, %"class.std::allocator.16"** %.addr, align 4
  %this1 = load %"class.std::allocator.24"** %this.addr
  %1 = load %"class.std::allocator.16"** %.addr
  call void @_ZNSaISt4pairIKPKvN5boost6detail13tss_data_nodeEEEC2ISt13_Rb_tree_nodeIS6_EEERKSaIT_E(%"class.std::allocator.24"* %this1, %"class.std::allocator.16"* %1) nounwind
  ret void
}

define linkonce_odr %"class.std::allocator.16"* @_ZNKSt8_Rb_treeIPKvSt4pairIKS1_N5boost6detail13tss_data_nodeEESt10_Select1stIS7_ESt4lessIS1_ESaIS7_EE21_M_get_Node_allocatorEv(%"class.std::_Rb_tree"* %this) nounwind align 2 {
entry:
  %this.addr = alloca %"class.std::_Rb_tree"*, align 4
  store %"class.std::_Rb_tree"* %this, %"class.std::_Rb_tree"** %this.addr, align 4
  %this1 = load %"class.std::_Rb_tree"** %this.addr
  %_M_impl = getelementptr inbounds %"class.std::_Rb_tree"* %this1, i32 0, i32 0
  %0 = bitcast %"struct.std::_Rb_tree<const void *, std::pair<const void *const, boost::detail::tss_data_node>, std::_Select1st<std::pair<const void *const, boost::detail::tss_data_node> >, std::less<const void *>, std::allocator<std::pair<const void *const, boost::detail::tss_data_node> > >::_Rb_tree_impl"* %_M_impl to %"class.std::allocator.16"*
  ret %"class.std::allocator.16"* %0
}

define linkonce_odr void @_ZNSaISt4pairIKPKvN5boost6detail13tss_data_nodeEEEC2ISt13_Rb_tree_nodeIS6_EEERKSaIT_E(%"class.std::allocator.24"* %this, %"class.std::allocator.16"*) unnamed_addr nounwind align 2 {
entry:
  %this.addr = alloca %"class.std::allocator.24"*, align 4
  %.addr = alloca %"class.std::allocator.16"*, align 4
  store %"class.std::allocator.24"* %this, %"class.std::allocator.24"** %this.addr, align 4
  store %"class.std::allocator.16"* %0, %"class.std::allocator.16"** %.addr, align 4
  %this1 = load %"class.std::allocator.24"** %this.addr
  %1 = bitcast %"class.std::allocator.24"* %this1 to %"class.__gnu_cxx::new_allocator.25"*
  call void @_ZN9__gnu_cxx13new_allocatorISt4pairIKPKvN5boost6detail13tss_data_nodeEEEC2Ev(%"class.__gnu_cxx::new_allocator.25"* %1) nounwind
  ret void
}

define linkonce_odr void @_ZN9__gnu_cxx13new_allocatorISt4pairIKPKvN5boost6detail13tss_data_nodeEEEC2Ev(%"class.__gnu_cxx::new_allocator.25"* %this) unnamed_addr nounwind align 2 {
entry:
  %this.addr = alloca %"class.__gnu_cxx::new_allocator.25"*, align 4
  store %"class.__gnu_cxx::new_allocator.25"* %this, %"class.__gnu_cxx::new_allocator.25"** %this.addr, align 4
  %this1 = load %"class.__gnu_cxx::new_allocator.25"** %this.addr
  ret void
}

define linkonce_odr void @_ZNSt6vectorISt4pairIPN5boost18condition_variableEPNS1_5mutexEESaIS6_EEC2Ev(%"class.std::vector"* %this) unnamed_addr align 2 {
entry:
  %this.addr = alloca %"class.std::vector"*, align 4
  store %"class.std::vector"* %this, %"class.std::vector"** %this.addr, align 4
  %this1 = load %"class.std::vector"** %this.addr
  %0 = bitcast %"class.std::vector"* %this1 to %"struct.std::_Vector_base"*
  call void @_ZNSt12_Vector_baseISt4pairIPN5boost18condition_variableEPNS1_5mutexEESaIS6_EEC2Ev(%"struct.std::_Vector_base"* %0)
  ret void
}

define linkonce_odr void @_ZNSt12_Vector_baseISt4pairIPN5boost18condition_variableEPNS1_5mutexEESaIS6_EEC2Ev(%"struct.std::_Vector_base"* %this) unnamed_addr align 2 {
entry:
  %this.addr = alloca %"struct.std::_Vector_base"*, align 4
  store %"struct.std::_Vector_base"* %this, %"struct.std::_Vector_base"** %this.addr, align 4
  %this1 = load %"struct.std::_Vector_base"** %this.addr
  %_M_impl = getelementptr inbounds %"struct.std::_Vector_base"* %this1, i32 0, i32 0
  call void @_ZNSt12_Vector_baseISt4pairIPN5boost18condition_variableEPNS1_5mutexEESaIS6_EE12_Vector_implC1Ev(%"struct.std::_Vector_base<std::pair<boost::condition_variable *, boost::mutex *>, std::allocator<std::pair<boost::condition_variable *, boost::mutex *> > >::_Vector_impl"* %_M_impl)
  ret void
}

define linkonce_odr void @_ZNSt12_Vector_baseISt4pairIPN5boost18condition_variableEPNS1_5mutexEESaIS6_EE12_Vector_implC1Ev(%"struct.std::_Vector_base<std::pair<boost::condition_variable *, boost::mutex *>, std::allocator<std::pair<boost::condition_variable *, boost::mutex *> > >::_Vector_impl"* %this) unnamed_addr align 2 {
entry:
  %this.addr = alloca %"struct.std::_Vector_base<std::pair<boost::condition_variable *, boost::mutex *>, std::allocator<std::pair<boost::condition_variable *, boost::mutex *> > >::_Vector_impl"*, align 4
  store %"struct.std::_Vector_base<std::pair<boost::condition_variable *, boost::mutex *>, std::allocator<std::pair<boost::condition_variable *, boost::mutex *> > >::_Vector_impl"* %this, %"struct.std::_Vector_base<std::pair<boost::condition_variable *, boost::mutex *>, std::allocator<std::pair<boost::condition_variable *, boost::mutex *> > >::_Vector_impl"** %this.addr, align 4
  %this1 = load %"struct.std::_Vector_base<std::pair<boost::condition_variable *, boost::mutex *>, std::allocator<std::pair<boost::condition_variable *, boost::mutex *> > >::_Vector_impl"** %this.addr
  call void @_ZNSt12_Vector_baseISt4pairIPN5boost18condition_variableEPNS1_5mutexEESaIS6_EE12_Vector_implC2Ev(%"struct.std::_Vector_base<std::pair<boost::condition_variable *, boost::mutex *>, std::allocator<std::pair<boost::condition_variable *, boost::mutex *> > >::_Vector_impl"* %this1)
  ret void
}

define linkonce_odr void @_ZNSt12_Vector_baseISt4pairIPN5boost18condition_variableEPNS1_5mutexEESaIS6_EE12_Vector_implC2Ev(%"struct.std::_Vector_base<std::pair<boost::condition_variable *, boost::mutex *>, std::allocator<std::pair<boost::condition_variable *, boost::mutex *> > >::_Vector_impl"* %this) unnamed_addr nounwind align 2 {
entry:
  %this.addr = alloca %"struct.std::_Vector_base<std::pair<boost::condition_variable *, boost::mutex *>, std::allocator<std::pair<boost::condition_variable *, boost::mutex *> > >::_Vector_impl"*, align 4
  store %"struct.std::_Vector_base<std::pair<boost::condition_variable *, boost::mutex *>, std::allocator<std::pair<boost::condition_variable *, boost::mutex *> > >::_Vector_impl"* %this, %"struct.std::_Vector_base<std::pair<boost::condition_variable *, boost::mutex *>, std::allocator<std::pair<boost::condition_variable *, boost::mutex *> > >::_Vector_impl"** %this.addr, align 4
  %this1 = load %"struct.std::_Vector_base<std::pair<boost::condition_variable *, boost::mutex *>, std::allocator<std::pair<boost::condition_variable *, boost::mutex *> > >::_Vector_impl"** %this.addr
  %0 = bitcast %"struct.std::_Vector_base<std::pair<boost::condition_variable *, boost::mutex *>, std::allocator<std::pair<boost::condition_variable *, boost::mutex *> > >::_Vector_impl"* %this1 to %"class.std::allocator.19"*
  call void @_ZNSaISt4pairIPN5boost18condition_variableEPNS0_5mutexEEEC2Ev(%"class.std::allocator.19"* %0) nounwind
  %_M_start = getelementptr inbounds %"struct.std::_Vector_base<std::pair<boost::condition_variable *, boost::mutex *>, std::allocator<std::pair<boost::condition_variable *, boost::mutex *> > >::_Vector_impl"* %this1, i32 0, i32 0
  store %"struct.std::pair"* null, %"struct.std::pair"** %_M_start, align 4
  %_M_finish = getelementptr inbounds %"struct.std::_Vector_base<std::pair<boost::condition_variable *, boost::mutex *>, std::allocator<std::pair<boost::condition_variable *, boost::mutex *> > >::_Vector_impl"* %this1, i32 0, i32 1
  store %"struct.std::pair"* null, %"struct.std::pair"** %_M_finish, align 4
  %_M_end_of_storage = getelementptr inbounds %"struct.std::_Vector_base<std::pair<boost::condition_variable *, boost::mutex *>, std::allocator<std::pair<boost::condition_variable *, boost::mutex *> > >::_Vector_impl"* %this1, i32 0, i32 2
  store %"struct.std::pair"* null, %"struct.std::pair"** %_M_end_of_storage, align 4
  ret void
}

define linkonce_odr void @_ZNSaISt4pairIPN5boost18condition_variableEPNS0_5mutexEEEC2Ev(%"class.std::allocator.19"* %this) unnamed_addr nounwind align 2 {
entry:
  %this.addr = alloca %"class.std::allocator.19"*, align 4
  store %"class.std::allocator.19"* %this, %"class.std::allocator.19"** %this.addr, align 4
  %this1 = load %"class.std::allocator.19"** %this.addr
  %0 = bitcast %"class.std::allocator.19"* %this1 to %"class.__gnu_cxx::new_allocator.20"*
  call void @_ZN9__gnu_cxx13new_allocatorISt4pairIPN5boost18condition_variableEPNS2_5mutexEEEC2Ev(%"class.__gnu_cxx::new_allocator.20"* %0) nounwind
  ret void
}

define linkonce_odr void @_ZN9__gnu_cxx13new_allocatorISt4pairIPN5boost18condition_variableEPNS2_5mutexEEEC2Ev(%"class.__gnu_cxx::new_allocator.20"* %this) unnamed_addr nounwind align 2 {
entry:
  %this.addr = alloca %"class.__gnu_cxx::new_allocator.20"*, align 4
  store %"class.__gnu_cxx::new_allocator.20"* %this, %"class.__gnu_cxx::new_allocator.20"** %this.addr, align 4
  %this1 = load %"class.__gnu_cxx::new_allocator.20"** %this.addr
  ret void
}

define linkonce_odr void @_ZNSt3mapIPKvN5boost6detail13tss_data_nodeESt4lessIS1_ESaISt4pairIKS1_S4_EEEC2Ev(%"class.std::map"* %this) unnamed_addr align 2 {
entry:
  %this.addr = alloca %"class.std::map"*, align 4
  store %"class.std::map"* %this, %"class.std::map"** %this.addr, align 4
  %this1 = load %"class.std::map"** %this.addr
  %_M_t = getelementptr inbounds %"class.std::map"* %this1, i32 0, i32 0
  call void @_ZNSt8_Rb_treeIPKvSt4pairIKS1_N5boost6detail13tss_data_nodeEESt10_Select1stIS7_ESt4lessIS1_ESaIS7_EEC1Ev(%"class.std::_Rb_tree"* %_M_t)
  ret void
}

define linkonce_odr void @_ZNSt8_Rb_treeIPKvSt4pairIKS1_N5boost6detail13tss_data_nodeEESt10_Select1stIS7_ESt4lessIS1_ESaIS7_EEC1Ev(%"class.std::_Rb_tree"* %this) unnamed_addr align 2 {
entry:
  %this.addr = alloca %"class.std::_Rb_tree"*, align 4
  store %"class.std::_Rb_tree"* %this, %"class.std::_Rb_tree"** %this.addr, align 4
  %this1 = load %"class.std::_Rb_tree"** %this.addr
  call void @_ZNSt8_Rb_treeIPKvSt4pairIKS1_N5boost6detail13tss_data_nodeEESt10_Select1stIS7_ESt4lessIS1_ESaIS7_EEC2Ev(%"class.std::_Rb_tree"* %this1)
  ret void
}

define linkonce_odr void @_ZNSt8_Rb_treeIPKvSt4pairIKS1_N5boost6detail13tss_data_nodeEESt10_Select1stIS7_ESt4lessIS1_ESaIS7_EEC2Ev(%"class.std::_Rb_tree"* %this) unnamed_addr align 2 {
entry:
  %this.addr = alloca %"class.std::_Rb_tree"*, align 4
  store %"class.std::_Rb_tree"* %this, %"class.std::_Rb_tree"** %this.addr, align 4
  %this1 = load %"class.std::_Rb_tree"** %this.addr
  %_M_impl = getelementptr inbounds %"class.std::_Rb_tree"* %this1, i32 0, i32 0
  call void @_ZNSt8_Rb_treeIPKvSt4pairIKS1_N5boost6detail13tss_data_nodeEESt10_Select1stIS7_ESt4lessIS1_ESaIS7_EE13_Rb_tree_implISB_Lb0EEC1Ev(%"struct.std::_Rb_tree<const void *, std::pair<const void *const, boost::detail::tss_data_node>, std::_Select1st<std::pair<const void *const, boost::detail::tss_data_node> >, std::less<const void *>, std::allocator<std::pair<const void *const, boost::detail::tss_data_node> > >::_Rb_tree_impl"* %_M_impl)
  ret void
}

define linkonce_odr void @_ZNSt8_Rb_treeIPKvSt4pairIKS1_N5boost6detail13tss_data_nodeEESt10_Select1stIS7_ESt4lessIS1_ESaIS7_EE13_Rb_tree_implISB_Lb0EEC1Ev(%"struct.std::_Rb_tree<const void *, std::pair<const void *const, boost::detail::tss_data_node>, std::_Select1st<std::pair<const void *const, boost::detail::tss_data_node> >, std::less<const void *>, std::allocator<std::pair<const void *const, boost::detail::tss_data_node> > >::_Rb_tree_impl"* %this) unnamed_addr align 2 {
entry:
  %this.addr = alloca %"struct.std::_Rb_tree<const void *, std::pair<const void *const, boost::detail::tss_data_node>, std::_Select1st<std::pair<const void *const, boost::detail::tss_data_node> >, std::less<const void *>, std::allocator<std::pair<const void *const, boost::detail::tss_data_node> > >::_Rb_tree_impl"*, align 4
  store %"struct.std::_Rb_tree<const void *, std::pair<const void *const, boost::detail::tss_data_node>, std::_Select1st<std::pair<const void *const, boost::detail::tss_data_node> >, std::less<const void *>, std::allocator<std::pair<const void *const, boost::detail::tss_data_node> > >::_Rb_tree_impl"* %this, %"struct.std::_Rb_tree<const void *, std::pair<const void *const, boost::detail::tss_data_node>, std::_Select1st<std::pair<const void *const, boost::detail::tss_data_node> >, std::less<const void *>, std::allocator<std::pair<const void *const, boost::detail::tss_data_node> > >::_Rb_tree_impl"** %this.addr, align 4
  %this1 = load %"struct.std::_Rb_tree<const void *, std::pair<const void *const, boost::detail::tss_data_node>, std::_Select1st<std::pair<const void *const, boost::detail::tss_data_node> >, std::less<const void *>, std::allocator<std::pair<const void *const, boost::detail::tss_data_node> > >::_Rb_tree_impl"** %this.addr
  call void @_ZNSt8_Rb_treeIPKvSt4pairIKS1_N5boost6detail13tss_data_nodeEESt10_Select1stIS7_ESt4lessIS1_ESaIS7_EE13_Rb_tree_implISB_Lb0EEC2Ev(%"struct.std::_Rb_tree<const void *, std::pair<const void *const, boost::detail::tss_data_node>, std::_Select1st<std::pair<const void *const, boost::detail::tss_data_node> >, std::less<const void *>, std::allocator<std::pair<const void *const, boost::detail::tss_data_node> > >::_Rb_tree_impl"* %this1)
  ret void
}

define linkonce_odr void @_ZNSt8_Rb_treeIPKvSt4pairIKS1_N5boost6detail13tss_data_nodeEESt10_Select1stIS7_ESt4lessIS1_ESaIS7_EE13_Rb_tree_implISB_Lb0EEC2Ev(%"struct.std::_Rb_tree<const void *, std::pair<const void *const, boost::detail::tss_data_node>, std::_Select1st<std::pair<const void *const, boost::detail::tss_data_node> >, std::less<const void *>, std::allocator<std::pair<const void *const, boost::detail::tss_data_node> > >::_Rb_tree_impl"* %this) unnamed_addr align 2 {
entry:
  %this.addr = alloca %"struct.std::_Rb_tree<const void *, std::pair<const void *const, boost::detail::tss_data_node>, std::_Select1st<std::pair<const void *const, boost::detail::tss_data_node> >, std::less<const void *>, std::allocator<std::pair<const void *const, boost::detail::tss_data_node> > >::_Rb_tree_impl"*, align 4
  %exn.slot = alloca i8*
  %ehselector.slot = alloca i32
  store %"struct.std::_Rb_tree<const void *, std::pair<const void *const, boost::detail::tss_data_node>, std::_Select1st<std::pair<const void *const, boost::detail::tss_data_node> >, std::less<const void *>, std::allocator<std::pair<const void *const, boost::detail::tss_data_node> > >::_Rb_tree_impl"* %this, %"struct.std::_Rb_tree<const void *, std::pair<const void *const, boost::detail::tss_data_node>, std::_Select1st<std::pair<const void *const, boost::detail::tss_data_node> >, std::less<const void *>, std::allocator<std::pair<const void *const, boost::detail::tss_data_node> > >::_Rb_tree_impl"** %this.addr, align 4
  %this1 = load %"struct.std::_Rb_tree<const void *, std::pair<const void *const, boost::detail::tss_data_node>, std::_Select1st<std::pair<const void *const, boost::detail::tss_data_node> >, std::less<const void *>, std::allocator<std::pair<const void *const, boost::detail::tss_data_node> > >::_Rb_tree_impl"** %this.addr
  %0 = bitcast %"struct.std::_Rb_tree<const void *, std::pair<const void *const, boost::detail::tss_data_node>, std::_Select1st<std::pair<const void *const, boost::detail::tss_data_node> >, std::less<const void *>, std::allocator<std::pair<const void *const, boost::detail::tss_data_node> > >::_Rb_tree_impl"* %this1 to %"class.std::allocator.16"*
  call void @_ZNSaISt13_Rb_tree_nodeISt4pairIKPKvN5boost6detail13tss_data_nodeEEEEC2Ev(%"class.std::allocator.16"* %0) nounwind
  %_M_key_compare = getelementptr inbounds %"struct.std::_Rb_tree<const void *, std::pair<const void *const, boost::detail::tss_data_node>, std::_Select1st<std::pair<const void *const, boost::detail::tss_data_node> >, std::less<const void *>, std::allocator<std::pair<const void *const, boost::detail::tss_data_node> > >::_Rb_tree_impl"* %this1, i32 0, i32 0
  %_M_header = getelementptr inbounds %"struct.std::_Rb_tree<const void *, std::pair<const void *const, boost::detail::tss_data_node>, std::_Select1st<std::pair<const void *const, boost::detail::tss_data_node> >, std::less<const void *>, std::allocator<std::pair<const void *const, boost::detail::tss_data_node> > >::_Rb_tree_impl"* %this1, i32 0, i32 1
  %1 = bitcast %"struct.std::_Rb_tree_node_base"* %_M_header to i8*
  call void @llvm.memset.p0i8.i32(i8* %1, i8 0, i32 16, i32 4, i1 false)
  %_M_node_count = getelementptr inbounds %"struct.std::_Rb_tree<const void *, std::pair<const void *const, boost::detail::tss_data_node>, std::_Select1st<std::pair<const void *const, boost::detail::tss_data_node> >, std::less<const void *>, std::allocator<std::pair<const void *const, boost::detail::tss_data_node> > >::_Rb_tree_impl"* %this1, i32 0, i32 2
  store i32 0, i32* %_M_node_count, align 4
  invoke void @_ZNSt8_Rb_treeIPKvSt4pairIKS1_N5boost6detail13tss_data_nodeEESt10_Select1stIS7_ESt4lessIS1_ESaIS7_EE13_Rb_tree_implISB_Lb0EE13_M_initializeEv(%"struct.std::_Rb_tree<const void *, std::pair<const void *const, boost::detail::tss_data_node>, std::_Select1st<std::pair<const void *const, boost::detail::tss_data_node> >, std::less<const void *>, std::allocator<std::pair<const void *const, boost::detail::tss_data_node> > >::_Rb_tree_impl"* %this1)
          to label %invoke.cont unwind label %lpad

invoke.cont:                                      ; preds = %entry
  ret void

lpad:                                             ; preds = %entry
  %2 = landingpad { i8*, i32 } personality i8* bitcast (i32 (...)* @__gxx_personality_v0 to i8*)
          cleanup
  %3 = extractvalue { i8*, i32 } %2, 0
  store i8* %3, i8** %exn.slot
  %4 = extractvalue { i8*, i32 } %2, 1
  store i32 %4, i32* %ehselector.slot
  %5 = bitcast %"struct.std::_Rb_tree<const void *, std::pair<const void *const, boost::detail::tss_data_node>, std::_Select1st<std::pair<const void *const, boost::detail::tss_data_node> >, std::less<const void *>, std::allocator<std::pair<const void *const, boost::detail::tss_data_node> > >::_Rb_tree_impl"* %this1 to %"class.std::allocator.16"*
  call void @_ZNSaISt13_Rb_tree_nodeISt4pairIKPKvN5boost6detail13tss_data_nodeEEEED2Ev(%"class.std::allocator.16"* %5) nounwind
  br label %eh.resume

eh.resume:                                        ; preds = %lpad
  %exn = load i8** %exn.slot
  %sel = load i32* %ehselector.slot
  %lpad.val = insertvalue { i8*, i32 } undef, i8* %exn, 0
  %lpad.val2 = insertvalue { i8*, i32 } %lpad.val, i32 %sel, 1
  resume { i8*, i32 } %lpad.val2
}

define linkonce_odr void @_ZNSaISt13_Rb_tree_nodeISt4pairIKPKvN5boost6detail13tss_data_nodeEEEEC2Ev(%"class.std::allocator.16"* %this) unnamed_addr nounwind align 2 {
entry:
  %this.addr = alloca %"class.std::allocator.16"*, align 4
  store %"class.std::allocator.16"* %this, %"class.std::allocator.16"** %this.addr, align 4
  %this1 = load %"class.std::allocator.16"** %this.addr
  %0 = bitcast %"class.std::allocator.16"* %this1 to %"class.__gnu_cxx::new_allocator.17"*
  call void @_ZN9__gnu_cxx13new_allocatorISt13_Rb_tree_nodeISt4pairIKPKvN5boost6detail13tss_data_nodeEEEEC2Ev(%"class.__gnu_cxx::new_allocator.17"* %0) nounwind
  ret void
}

declare void @llvm.memset.p0i8.i32(i8* nocapture, i8, i32, i32, i1) nounwind

define linkonce_odr void @_ZNSt8_Rb_treeIPKvSt4pairIKS1_N5boost6detail13tss_data_nodeEESt10_Select1stIS7_ESt4lessIS1_ESaIS7_EE13_Rb_tree_implISB_Lb0EE13_M_initializeEv(%"struct.std::_Rb_tree<const void *, std::pair<const void *const, boost::detail::tss_data_node>, std::_Select1st<std::pair<const void *const, boost::detail::tss_data_node> >, std::less<const void *>, std::allocator<std::pair<const void *const, boost::detail::tss_data_node> > >::_Rb_tree_impl"* %this) nounwind align 2 {
entry:
  %this.addr = alloca %"struct.std::_Rb_tree<const void *, std::pair<const void *const, boost::detail::tss_data_node>, std::_Select1st<std::pair<const void *const, boost::detail::tss_data_node> >, std::less<const void *>, std::allocator<std::pair<const void *const, boost::detail::tss_data_node> > >::_Rb_tree_impl"*, align 4
  store %"struct.std::_Rb_tree<const void *, std::pair<const void *const, boost::detail::tss_data_node>, std::_Select1st<std::pair<const void *const, boost::detail::tss_data_node> >, std::less<const void *>, std::allocator<std::pair<const void *const, boost::detail::tss_data_node> > >::_Rb_tree_impl"* %this, %"struct.std::_Rb_tree<const void *, std::pair<const void *const, boost::detail::tss_data_node>, std::_Select1st<std::pair<const void *const, boost::detail::tss_data_node> >, std::less<const void *>, std::allocator<std::pair<const void *const, boost::detail::tss_data_node> > >::_Rb_tree_impl"** %this.addr, align 4
  %this1 = load %"struct.std::_Rb_tree<const void *, std::pair<const void *const, boost::detail::tss_data_node>, std::_Select1st<std::pair<const void *const, boost::detail::tss_data_node> >, std::less<const void *>, std::allocator<std::pair<const void *const, boost::detail::tss_data_node> > >::_Rb_tree_impl"** %this.addr
  %_M_header = getelementptr inbounds %"struct.std::_Rb_tree<const void *, std::pair<const void *const, boost::detail::tss_data_node>, std::_Select1st<std::pair<const void *const, boost::detail::tss_data_node> >, std::less<const void *>, std::allocator<std::pair<const void *const, boost::detail::tss_data_node> > >::_Rb_tree_impl"* %this1, i32 0, i32 1
  %_M_color = getelementptr inbounds %"struct.std::_Rb_tree_node_base"* %_M_header, i32 0, i32 0
  store i32 0, i32* %_M_color, align 4
  %_M_header2 = getelementptr inbounds %"struct.std::_Rb_tree<const void *, std::pair<const void *const, boost::detail::tss_data_node>, std::_Select1st<std::pair<const void *const, boost::detail::tss_data_node> >, std::less<const void *>, std::allocator<std::pair<const void *const, boost::detail::tss_data_node> > >::_Rb_tree_impl"* %this1, i32 0, i32 1
  %_M_parent = getelementptr inbounds %"struct.std::_Rb_tree_node_base"* %_M_header2, i32 0, i32 1
  store %"struct.std::_Rb_tree_node_base"* null, %"struct.std::_Rb_tree_node_base"** %_M_parent, align 4
  %_M_header3 = getelementptr inbounds %"struct.std::_Rb_tree<const void *, std::pair<const void *const, boost::detail::tss_data_node>, std::_Select1st<std::pair<const void *const, boost::detail::tss_data_node> >, std::less<const void *>, std::allocator<std::pair<const void *const, boost::detail::tss_data_node> > >::_Rb_tree_impl"* %this1, i32 0, i32 1
  %_M_header4 = getelementptr inbounds %"struct.std::_Rb_tree<const void *, std::pair<const void *const, boost::detail::tss_data_node>, std::_Select1st<std::pair<const void *const, boost::detail::tss_data_node> >, std::less<const void *>, std::allocator<std::pair<const void *const, boost::detail::tss_data_node> > >::_Rb_tree_impl"* %this1, i32 0, i32 1
  %_M_left = getelementptr inbounds %"struct.std::_Rb_tree_node_base"* %_M_header4, i32 0, i32 2
  store %"struct.std::_Rb_tree_node_base"* %_M_header3, %"struct.std::_Rb_tree_node_base"** %_M_left, align 4
  %_M_header5 = getelementptr inbounds %"struct.std::_Rb_tree<const void *, std::pair<const void *const, boost::detail::tss_data_node>, std::_Select1st<std::pair<const void *const, boost::detail::tss_data_node> >, std::less<const void *>, std::allocator<std::pair<const void *const, boost::detail::tss_data_node> > >::_Rb_tree_impl"* %this1, i32 0, i32 1
  %_M_header6 = getelementptr inbounds %"struct.std::_Rb_tree<const void *, std::pair<const void *const, boost::detail::tss_data_node>, std::_Select1st<std::pair<const void *const, boost::detail::tss_data_node> >, std::less<const void *>, std::allocator<std::pair<const void *const, boost::detail::tss_data_node> > >::_Rb_tree_impl"* %this1, i32 0, i32 1
  %_M_right = getelementptr inbounds %"struct.std::_Rb_tree_node_base"* %_M_header6, i32 0, i32 3
  store %"struct.std::_Rb_tree_node_base"* %_M_header5, %"struct.std::_Rb_tree_node_base"** %_M_right, align 4
  ret void
}

define linkonce_odr void @_ZN9__gnu_cxx13new_allocatorISt13_Rb_tree_nodeISt4pairIKPKvN5boost6detail13tss_data_nodeEEEEC2Ev(%"class.__gnu_cxx::new_allocator.17"* %this) unnamed_addr nounwind align 2 {
entry:
  %this.addr = alloca %"class.__gnu_cxx::new_allocator.17"*, align 4
  store %"class.__gnu_cxx::new_allocator.17"* %this, %"class.__gnu_cxx::new_allocator.17"** %this.addr, align 4
  %this1 = load %"class.__gnu_cxx::new_allocator.17"** %this.addr
  ret void
}

define linkonce_odr void @_ZN5boost18condition_variableC2Ev(%"class.boost::condition_variable"* %this) unnamed_addr align 2 {
entry:
  %this.addr = alloca %"class.boost::condition_variable"*, align 4
  %res = alloca i32, align 4
  %ref.tmp = alloca %"class.boost::thread_resource_error", align 4
  %exn.slot = alloca i8*
  %ehselector.slot = alloca i32
  %res2 = alloca i32, align 4
  %ref.tmp10 = alloca %"class.boost::thread_resource_error", align 4
  store %"class.boost::condition_variable"* %this, %"class.boost::condition_variable"** %this.addr, align 4
  %this1 = load %"class.boost::condition_variable"** %this.addr
  %internal_mutex = getelementptr inbounds %"class.boost::condition_variable"* %this1, i32 0, i32 0
  %cond = getelementptr inbounds %"class.boost::condition_variable"* %this1, i32 0, i32 1
  %internal_mutex2 = getelementptr inbounds %"class.boost::condition_variable"* %this1, i32 0, i32 0
  %call = call i32 @pthread_mutex_init(%union.pthread_mutex_t* %internal_mutex2, %union.pthread_mutexattr_t* null) nounwind
  store i32 %call, i32* %res, align 4
  %0 = load i32* %res, align 4
  %tobool = icmp ne i32 %0, 0
  br i1 %tobool, label %if.then, label %if.end

if.then:                                          ; preds = %entry
  %1 = load i32* %res, align 4
  call void @_ZN5boost21thread_resource_errorC1EiPKc(%"class.boost::thread_resource_error"* %ref.tmp, i32 %1, i8* getelementptr inbounds ([68 x i8]* @.str28, i32 0, i32 0))
  invoke void @_ZN5boost15throw_exceptionINS_21thread_resource_errorEEEvRKT_(%"class.boost::thread_resource_error"* %ref.tmp) noreturn
          to label %invoke.cont unwind label %lpad

invoke.cont:                                      ; preds = %if.then
  unreachable

lpad:                                             ; preds = %if.then
  %2 = landingpad { i8*, i32 } personality i8* bitcast (i32 (...)* @__gxx_personality_v0 to i8*)
          cleanup
  %3 = extractvalue { i8*, i32 } %2, 0
  store i8* %3, i8** %exn.slot
  %4 = extractvalue { i8*, i32 } %2, 1
  store i32 %4, i32* %ehselector.slot
  call void @_ZN5boost21thread_resource_errorD1Ev(%"class.boost::thread_resource_error"* %ref.tmp) nounwind
  br label %eh.resume

if.end:                                           ; preds = %entry
  %cond3 = getelementptr inbounds %"class.boost::condition_variable"* %this1, i32 0, i32 1
  %call4 = call i32 @pthread_cond_init(%union.pthread_cond_t* %cond3, %union.pthread_condattr_t* null) nounwind
  store i32 %call4, i32* %res2, align 4
  %5 = load i32* %res2, align 4
  %tobool5 = icmp ne i32 %5, 0
  br i1 %tobool5, label %if.then6, label %if.end13

if.then6:                                         ; preds = %if.end
  %internal_mutex7 = getelementptr inbounds %"class.boost::condition_variable"* %this1, i32 0, i32 0
  %call8 = call i32 @pthread_mutex_destroy(%union.pthread_mutex_t* %internal_mutex7) nounwind
  %tobool9 = icmp ne i32 %call8, 0
  br i1 %tobool9, label %cond.false, label %cond.true

cond.true:                                        ; preds = %if.then6
  br label %cond.end

cond.false:                                       ; preds = %if.then6
  call void @__assert_fail(i8* getelementptr inbounds ([40 x i8]* @.str25, i32 0, i32 0), i8* getelementptr inbounds ([74 x i8]* @.str26, i32 0, i32 0), i32 46, i8* getelementptr inbounds ([48 x i8]* @__PRETTY_FUNCTION__._ZN5boost18condition_variableC2Ev, i32 0, i32 0)) noreturn nounwind
  unreachable
                                                  ; No predecessors!
  br label %cond.end

cond.end:                                         ; preds = %6, %cond.true
  %7 = load i32* %res2, align 4
  call void @_ZN5boost21thread_resource_errorC1EiPKc(%"class.boost::thread_resource_error"* %ref.tmp10, i32 %7, i8* getelementptr inbounds ([67 x i8]* @.str29, i32 0, i32 0))
  invoke void @_ZN5boost15throw_exceptionINS_21thread_resource_errorEEEvRKT_(%"class.boost::thread_resource_error"* %ref.tmp10) noreturn
          to label %invoke.cont12 unwind label %lpad11

invoke.cont12:                                    ; preds = %cond.end
  unreachable

lpad11:                                           ; preds = %cond.end
  %8 = landingpad { i8*, i32 } personality i8* bitcast (i32 (...)* @__gxx_personality_v0 to i8*)
          cleanup
  %9 = extractvalue { i8*, i32 } %8, 0
  store i8* %9, i8** %exn.slot
  %10 = extractvalue { i8*, i32 } %8, 1
  store i32 %10, i32* %ehselector.slot
  call void @_ZN5boost21thread_resource_errorD1Ev(%"class.boost::thread_resource_error"* %ref.tmp10) nounwind
  br label %eh.resume

if.end13:                                         ; preds = %if.end
  ret void

eh.resume:                                        ; preds = %lpad11, %lpad
  %exn = load i8** %exn.slot
  %sel = load i32* %ehselector.slot
  %lpad.val = insertvalue { i8*, i32 } undef, i8* %exn, 0
  %lpad.val14 = insertvalue { i8*, i32 } %lpad.val, i32 %sel, 1
  resume { i8*, i32 } %lpad.val14
}

declare i32 @pthread_mutex_init(%union.pthread_mutex_t*, %union.pthread_mutexattr_t*) nounwind

define linkonce_odr void @_ZN5boost15throw_exceptionINS_21thread_resource_errorEEEvRKT_(%"class.boost::thread_resource_error"* %e) noreturn inlinehint {
entry:
  %e.addr = alloca %"class.boost::thread_resource_error"*, align 4
  %ref.tmp = alloca %"struct.boost::exception_detail::error_info_injector", align 4
  %exn.slot = alloca i8*
  %ehselector.slot = alloca i32
  %cleanup.isactive = alloca i1
  store %"class.boost::thread_resource_error"* %e, %"class.boost::thread_resource_error"** %e.addr, align 4
  %0 = load %"class.boost::thread_resource_error"** %e.addr, align 4
  %1 = bitcast %"class.boost::thread_resource_error"* %0 to %"class.std::exception"*
  call void @_ZN5boost36throw_exception_assert_compatibilityERKSt9exception(%"class.std::exception"* %1)
  %exception = call i8* @__cxa_allocate_exception(i32 44) nounwind
  store i1 true, i1* %cleanup.isactive
  %2 = bitcast i8* %exception to %"class.boost::exception_detail::clone_impl"*
  %3 = load %"class.boost::thread_resource_error"** %e.addr, align 4
  invoke void @_ZN5boost17enable_error_infoINS_21thread_resource_errorEEENS_16exception_detail29enable_error_info_return_typeIT_E4typeERKS4_(%"struct.boost::exception_detail::error_info_injector"* sret %ref.tmp, %"class.boost::thread_resource_error"* %3)
          to label %invoke.cont unwind label %lpad

invoke.cont:                                      ; preds = %entry
  invoke void @_ZN5boost24enable_current_exceptionINS_16exception_detail19error_info_injectorINS_21thread_resource_errorEEEEENS1_10clone_implIT_EERKS6_(%"class.boost::exception_detail::clone_impl"* sret %2, %"struct.boost::exception_detail::error_info_injector"* %ref.tmp)
          to label %invoke.cont2 unwind label %lpad1

invoke.cont2:                                     ; preds = %invoke.cont
  store i1 false, i1* %cleanup.isactive
  invoke void @__cxa_throw(i8* %exception, i8* bitcast ({ i8*, i8*, i32, i32, i8*, i32, i8*, i32 }* @_ZTIN5boost16exception_detail10clone_implINS0_19error_info_injectorINS_21thread_resource_errorEEEEE to i8*), i8* bitcast (void (%"class.boost::exception_detail::clone_impl"*)* @_ZN5boost16exception_detail10clone_implINS0_19error_info_injectorINS_21thread_resource_errorEEEED1Ev to i8*)) noreturn
          to label %unreachable unwind label %lpad1

lpad:                                             ; preds = %entry
  %4 = landingpad { i8*, i32 } personality i8* bitcast (i32 (...)* @__gxx_personality_v0 to i8*)
          cleanup
  %5 = extractvalue { i8*, i32 } %4, 0
  store i8* %5, i8** %exn.slot
  %6 = extractvalue { i8*, i32 } %4, 1
  store i32 %6, i32* %ehselector.slot
  br label %ehcleanup

lpad1:                                            ; preds = %invoke.cont2, %invoke.cont
  %7 = landingpad { i8*, i32 } personality i8* bitcast (i32 (...)* @__gxx_personality_v0 to i8*)
          cleanup
  %8 = extractvalue { i8*, i32 } %7, 0
  store i8* %8, i8** %exn.slot
  %9 = extractvalue { i8*, i32 } %7, 1
  store i32 %9, i32* %ehselector.slot
  call void @_ZN5boost16exception_detail19error_info_injectorINS_21thread_resource_errorEED1Ev(%"struct.boost::exception_detail::error_info_injector"* %ref.tmp) nounwind
  br label %ehcleanup

ehcleanup:                                        ; preds = %lpad1, %lpad
  %cleanup.is_active = load i1* %cleanup.isactive
  br i1 %cleanup.is_active, label %cleanup.action, label %cleanup.done

cleanup.action:                                   ; preds = %ehcleanup
  call void @__cxa_free_exception(i8* %exception) nounwind
  br label %cleanup.done

cleanup.done:                                     ; preds = %cleanup.action, %ehcleanup
  br label %eh.resume

return:                                           ; No predecessors!
  ret void

eh.resume:                                        ; preds = %cleanup.done
  %exn = load i8** %exn.slot
  %sel = load i32* %ehselector.slot
  %lpad.val = insertvalue { i8*, i32 } undef, i8* %exn, 0
  %lpad.val3 = insertvalue { i8*, i32 } %lpad.val, i32 %sel, 1
  resume { i8*, i32 } %lpad.val3

unreachable:                                      ; preds = %invoke.cont2
  unreachable
}

define linkonce_odr void @_ZN5boost21thread_resource_errorC1EiPKc(%"class.boost::thread_resource_error"* %this, i32 %ev, i8* %what_arg) unnamed_addr align 2 {
entry:
  %this.addr = alloca %"class.boost::thread_resource_error"*, align 4
  %ev.addr = alloca i32, align 4
  %what_arg.addr = alloca i8*, align 4
  store %"class.boost::thread_resource_error"* %this, %"class.boost::thread_resource_error"** %this.addr, align 4
  store i32 %ev, i32* %ev.addr, align 4
  store i8* %what_arg, i8** %what_arg.addr, align 4
  %this1 = load %"class.boost::thread_resource_error"** %this.addr
  %0 = load i32* %ev.addr, align 4
  %1 = load i8** %what_arg.addr, align 4
  call void @_ZN5boost21thread_resource_errorC2EiPKc(%"class.boost::thread_resource_error"* %this1, i32 %0, i8* %1)
  ret void
}

define linkonce_odr void @_ZN5boost21thread_resource_errorD1Ev(%"class.boost::thread_resource_error"* %this) unnamed_addr nounwind align 2 {
entry:
  %this.addr = alloca %"class.boost::thread_resource_error"*, align 4
  store %"class.boost::thread_resource_error"* %this, %"class.boost::thread_resource_error"** %this.addr, align 4
  %this1 = load %"class.boost::thread_resource_error"** %this.addr
  call void @_ZN5boost21thread_resource_errorD2Ev(%"class.boost::thread_resource_error"* %this1) nounwind
  ret void
}

declare i32 @pthread_cond_init(%union.pthread_cond_t*, %union.pthread_condattr_t*) nounwind

define linkonce_odr void @_ZN5boost21thread_resource_errorD2Ev(%"class.boost::thread_resource_error"* %this) unnamed_addr nounwind align 2 {
entry:
  %this.addr = alloca %"class.boost::thread_resource_error"*, align 4
  store %"class.boost::thread_resource_error"* %this, %"class.boost::thread_resource_error"** %this.addr, align 4
  %this1 = load %"class.boost::thread_resource_error"** %this.addr
  %0 = bitcast %"class.boost::thread_resource_error"* %this1 to %"class.boost::thread_exception"*
  call void @_ZN5boost16thread_exceptionD2Ev(%"class.boost::thread_exception"* %0) nounwind
  ret void
}

define linkonce_odr void @_ZN5boost16thread_exceptionD2Ev(%"class.boost::thread_exception"* %this) unnamed_addr nounwind align 2 {
entry:
  %this.addr = alloca %"class.boost::thread_exception"*, align 4
  store %"class.boost::thread_exception"* %this, %"class.boost::thread_exception"** %this.addr, align 4
  %this1 = load %"class.boost::thread_exception"** %this.addr
  %0 = bitcast %"class.boost::thread_exception"* %this1 to %"class.boost::system::system_error"*
  call void @_ZN5boost6system12system_errorD2Ev(%"class.boost::system::system_error"* %0) nounwind
  ret void
}

define linkonce_odr void @_ZN5boost6system12system_errorD2Ev(%"class.boost::system::system_error"* %this) unnamed_addr nounwind align 2 {
entry:
  %this.addr = alloca %"class.boost::system::system_error"*, align 4
  %exn.slot = alloca i8*
  %ehselector.slot = alloca i32
  store %"class.boost::system::system_error"* %this, %"class.boost::system::system_error"** %this.addr, align 4
  %this1 = load %"class.boost::system::system_error"** %this.addr
  %0 = bitcast %"class.boost::system::system_error"* %this1 to i8***
  store i8** getelementptr inbounds ([5 x i8*]* @_ZTVN5boost6system12system_errorE, i64 0, i64 2), i8*** %0
  %m_what = getelementptr inbounds %"class.boost::system::system_error"* %this1, i32 0, i32 2
  invoke void @_ZNSsD1Ev(%"class.std::basic_string"* %m_what)
          to label %invoke.cont unwind label %lpad

invoke.cont:                                      ; preds = %entry
  %1 = bitcast %"class.boost::system::system_error"* %this1 to %"class.std::runtime_error"*
  call void @_ZNSt13runtime_errorD2Ev(%"class.std::runtime_error"* %1) nounwind
  ret void

lpad:                                             ; preds = %entry
  %2 = landingpad { i8*, i32 } personality i8* bitcast (i32 (...)* @__gxx_personality_v0 to i8*)
          cleanup
          filter [0 x i8*] zeroinitializer
  %3 = extractvalue { i8*, i32 } %2, 0
  store i8* %3, i8** %exn.slot
  %4 = extractvalue { i8*, i32 } %2, 1
  store i32 %4, i32* %ehselector.slot
  %5 = bitcast %"class.boost::system::system_error"* %this1 to %"class.std::runtime_error"*
  call void @_ZNSt13runtime_errorD2Ev(%"class.std::runtime_error"* %5) nounwind
  br label %filter.dispatch

filter.dispatch:                                  ; preds = %lpad
  %exn = load i8** %exn.slot
  call void @__cxa_call_unexpected(i8* %exn) noreturn
  unreachable
}

declare void @_ZNSt13runtime_errorD2Ev(%"class.std::runtime_error"*) nounwind

define linkonce_odr void @_ZN5boost21thread_resource_errorC2EiPKc(%"class.boost::thread_resource_error"* %this, i32 %ev, i8* %what_arg) unnamed_addr align 2 {
entry:
  %this.addr = alloca %"class.boost::thread_resource_error"*, align 4
  %ev.addr = alloca i32, align 4
  %what_arg.addr = alloca i8*, align 4
  store %"class.boost::thread_resource_error"* %this, %"class.boost::thread_resource_error"** %this.addr, align 4
  store i32 %ev, i32* %ev.addr, align 4
  store i8* %what_arg, i8** %what_arg.addr, align 4
  %this1 = load %"class.boost::thread_resource_error"** %this.addr
  %0 = bitcast %"class.boost::thread_resource_error"* %this1 to %"class.boost::thread_exception"*
  %1 = load i32* %ev.addr, align 4
  %2 = load i8** %what_arg.addr, align 4
  call void @_ZN5boost16thread_exceptionC2EiPKc(%"class.boost::thread_exception"* %0, i32 %1, i8* %2)
  %3 = bitcast %"class.boost::thread_resource_error"* %this1 to i8***
  store i8** getelementptr inbounds ([5 x i8*]* @_ZTVN5boost21thread_resource_errorE, i64 0, i64 2), i8*** %3
  ret void
}

define linkonce_odr void @_ZN5boost16thread_exceptionC2EiPKc(%"class.boost::thread_exception"* %this, i32 %ev, i8* %what_arg) unnamed_addr align 2 {
entry:
  %this.addr = alloca %"class.boost::thread_exception"*, align 4
  %ev.addr = alloca i32, align 4
  %what_arg.addr = alloca i8*, align 4
  %agg.tmp = alloca %"class.boost::system::error_code", align 4
  store %"class.boost::thread_exception"* %this, %"class.boost::thread_exception"** %this.addr, align 4
  store i32 %ev, i32* %ev.addr, align 4
  store i8* %what_arg, i8** %what_arg.addr, align 4
  %this1 = load %"class.boost::thread_exception"** %this.addr
  %0 = bitcast %"class.boost::thread_exception"* %this1 to %"class.boost::system::system_error"*
  %1 = load i32* %ev.addr, align 4
  %call = call %"class.boost::system::error_category"* @_ZN5boost6system15system_categoryEv()
  call void @_ZN5boost6system10error_codeC1EiRKNS0_14error_categoryE(%"class.boost::system::error_code"* %agg.tmp, i32 %1, %"class.boost::system::error_category"* %call)
  %2 = load i8** %what_arg.addr, align 4
  call void @_ZN5boost6system12system_errorC2ENS0_10error_codeEPKc(%"class.boost::system::system_error"* %0, %"class.boost::system::error_code"* byval align 4 %agg.tmp, i8* %2)
  %3 = bitcast %"class.boost::thread_exception"* %this1 to i8***
  store i8** getelementptr inbounds ([5 x i8*]* @_ZTVN5boost16thread_exceptionE, i64 0, i64 2), i8*** %3
  ret void
}

define linkonce_odr void @_ZN5boost21thread_resource_errorD0Ev(%"class.boost::thread_resource_error"* %this) unnamed_addr nounwind align 2 {
entry:
  %this.addr = alloca %"class.boost::thread_resource_error"*, align 4
  store %"class.boost::thread_resource_error"* %this, %"class.boost::thread_resource_error"** %this.addr, align 4
  %this1 = load %"class.boost::thread_resource_error"** %this.addr
  call void @_ZN5boost21thread_resource_errorD1Ev(%"class.boost::thread_resource_error"* %this1) nounwind
  %0 = bitcast %"class.boost::thread_resource_error"* %this1 to i8*
  call void @_ZdlPv(i8* %0) nounwind
  ret void
}

